 uws

 Timestamp is 5a33ae3e (Fri Dec 15 20:13:02 2017)

 Preferred load address is 0000000180000000

 Start         Length     Name                   Class
 0001:00000000 00000320H .text$di                CODE
 0001:00000320 0005c3b0H .text$mn                CODE
 0001:0005c6d0 000000e0H .text$mn$00             CODE
 0001:0005c7b0 00001030H .text$x                 CODE
 0001:0005d7e0 000002baH .text$yd                CODE
 0002:00000000 00000458H .idata$5                DATA
 0002:00000458 00000020H .00cfg                  DATA
 0002:00000478 00000008H .CRT$XCA                DATA
 0002:00000480 00000068H .CRT$XCC                DATA
 0002:000004e8 00000010H .CRT$XCL                DATA
 0002:000004f8 00000058H .CRT$XCU                DATA
 0002:00000550 00000008H .CRT$XCZ                DATA
 0002:00000558 00000008H .CRT$XIA                DATA
 0002:00000560 00000030H .CRT$XIC                DATA
 0002:00000590 00000008H .CRT$XIZ                DATA
 0002:00000598 00000008H .CRT$XLA                DATA
 0002:000005a0 00000008H .CRT$XLZ                DATA
 0002:000005a8 00000008H .CRT$XPA                DATA
 0002:000005b0 00000008H .CRT$XPB                DATA
 0002:000005b8 00000010H .CRT$XPX                DATA
 0002:000005c8 00000008H .CRT$XPXA               DATA
 0002:000005d0 00000008H .CRT$XPZ                DATA
 0002:000005d8 00000008H .CRT$XTA                DATA
 0002:000005e0 00000010H .CRT$XTZ                DATA
 0002:000005e8 00000000H .gfids$y                DATA
 0002:000005f0 00013b98H .rdata                  DATA
 0002:00014188 00000028H .rdata$T                DATA
 0002:000141b0 0000393cH .rdata$r                DATA
 0002:00017aec 00000494H .rdata$zzzdbg           DATA
 0002:00017f80 00000008H .rtc$IAA                DATA
 0002:00017f88 00000008H .rtc$IZZ                DATA
 0002:00017f90 00000008H .rtc$TAA                DATA
 0002:00017f98 00000008H .rtc$TZZ                DATA
 0002:00017fa0 00000010H .tls                    DATA
 0002:00017fb0 00000051H .tls$                   DATA
 0002:00018001 0000000fH .tls$ZZZ                DATA
 0002:00018010 00005ff0H .xdata                  DATA
 0002:0001e000 00000ac4H .xdata$x                DATA
 0002:0001eac4 00000020H .didat$2                DATA
 0002:0001eae4 00000024H .didat$3                DATA
 0002:0001eb08 00000360H .didat$4                DATA
 0002:0001ee68 00001410H .didat$6                DATA
 0002:00020278 00000368H .didat$7                DATA
 0002:000205e0 00004260H .edata                  DATA
 0002:00024840 00000028H .idata$2                DATA
 0002:00024868 00000018H .idata$3                DATA
 0002:00024880 00000458H .idata$4                DATA
 0002:00024cd8 0000091cH .idata$6                DATA
 0003:00000000 00000d20H .data                   DATA
 0003:00000d20 00002460H .data$r                 DATA
 0003:00003180 00000360H .didat$5                DATA
 0003:000034e0 0000296cH .bss                    DATA
 0004:00000000 00005d00H .pdata                  DATA
 0005:00000000 00000060H .rsrc$01                DATA
 0005:00000060 00000180H .rsrc$02                DATA

  Address         Publics by Value              Rva+Base               Lib:Object

 0000:00000000       __dynamic_value_reloc_table 0000000000000000     <absolute>
 0000:00000000       __guard_iat_count          0000000000000000     <absolute>
 0000:00000000       __hybrid_code_map          0000000000000000     <absolute>
 0000:00000000       __hybrid_code_map_count    0000000000000000     <absolute>
 0000:00000000       __guard_iat_table          0000000000000000     <absolute>
 0000:00000000       __hybrid_auxiliary_iat     0000000000000000     <absolute>
 0000:00000000       __guard_longjmp_table      0000000000000000     <absolute>
 0000:00000000       __guard_longjmp_count      0000000000000000     <absolute>
 0000:00000000       __guard_fids_count         0000000000000000     <absolute>
 0000:00000000       __enclave_config           0000000000000000     <absolute>
 0000:00000000       ___safe_se_handler_table   0000000000000000     <absolute>
 0000:00000000       ___safe_se_handler_count   0000000000000000     <absolute>
 0000:00000000       __guard_fids_table         0000000000000000     <absolute>
 0000:00000100       __guard_flags              0000000000000100     <absolute>
 0000:00000000       __ImageBase                0000000180000000     <linker-defined>
 0001:00000320       ?_Deallocate@std@@YAXPEAX_K1@Z 0000000180001320 f i Extensions.obj
 0001:00000370       ??0ExtensionsParser@uWS@@QEAA@PEBD_K@Z 0000000180001370 f   Extensions.obj
 0001:00000540       ??1?$basic_string@DU?$char_traits@D@std@@V?$allocator@D@2@@std@@QEAA@XZ 0000000180001540 f i Extensions.obj
 0001:00000540       ?_Tidy_deallocate@?$basic_string@DU?$char_traits@D@std@@V?$allocator@D@2@@std@@QEAAXXZ 0000000180001540 f i Extensions.obj
 0001:000005b0       ?append@?$basic_string@DU?$char_traits@D@std@@V?$allocator@D@2@@std@@QEAAAEAV12@QEBD_K@Z 00000001800015b0 f i Extensions.obj
 0001:00000630       ?generateOffer@?$ExtensionsNegotiator@$00@uWS@@QEAA?AV?$basic_string@DU?$char_traits@D@std@@V?$allocator@D@2@@std@@XZ 0000000180001630 f i Extensions.obj
 0001:000007c0       ?readOffer@?$ExtensionsNegotiator@$00@uWS@@QEAAXV?$basic_string@DU?$char_traits@D@std@@V?$allocator@D@2@@std@@@Z 00000001800017c0 f i Extensions.obj
 0001:00000a20       ?_Xlen@?$basic_string@DU?$char_traits@D@std@@V?$allocator@D@2@@std@@SAXXZ 0000000180001a20 f i Extensions.obj
 0001:00000a70       ?_Decref@_Ref_count_base@std@@QEAAXXZ 0000000180001a70 f i Group.obj
 0001:00000b00       ?passwordCallback@Context@TLS@uS@@CAHPEADHHPEAX@Z 0000000180001b00 f i Group.obj
 0001:00000b50       ??0Context@TLS@uS@@QEAA@PEAUssl_ctx_st@@@Z 0000000180001b50 f i Group.obj
 0001:00000b70       ??BContext@TLS@uS@@QEAA_NXZ 0000000180001b70 f i Group.obj
 0001:00000b80       ?getLoop@Node@uS@@QEAAPEAULoop@@XZ 0000000180001b80 f i Group.obj
 0001:00000b80       ??C?$shared_ptr@V__ExceptionPtr@@@std@@QEBAPEAV__ExceptionPtr@@XZ 0000000180001b80 f i libcpmt:excptptr.obj
 0001:00000b80       ?getNativeContext@Context@TLS@uS@@QEAAPEAUssl_ctx_st@@XZ 0000000180001b80 f i Group.obj
 0001:00000b90       ??0Context@TLS@uS@@QEAA@XZ 0000000180001b90 f i Group.obj
 0001:00000bb0       ?getMemoryBlockIndex@NodeData@uS@@SAH_K@Z 0000000180001bb0 f i Group.obj
 0001:00000bd0       ?getSmallMemoryBlock@NodeData@uS@@QEAAPEADH@Z 0000000180001bd0 f i Group.obj
 0001:00000c00       ?freeSmallMemoryBlock@NodeData@uS@@QEAAXPEADH@Z 0000000180001c00 f i Group.obj
 0001:00000c20       ?addAsync@NodeData@uS@@QEAAXXZ 0000000180001c20 f i Group.obj
 0001:00000d00       ?clearPendingPollChanges@NodeData@uS@@QEAAXPEAUPoll@@@Z 0000000180001d00 f i Group.obj
 0001:00000de0       ??0NodeData@uS@@QEAA@XZ    0000000180001de0 f i Group.obj
 0001:00000e10       ??1NodeData@uS@@QEAA@XZ    0000000180001e10 f i Group.obj
 0001:00000e30       ??0NodeData@uS@@QEAA@AEBU01@@Z 0000000180001e30 f i Group.obj
 0001:00000ec0       ??0NodeData@uS@@QEAA@$$QEAU01@@Z 0000000180001ec0 f i Group.obj
 0001:00000f90       ??4NodeData@uS@@QEAAAEAU01@AEBU01@@Z 0000000180001f90 f i Group.obj
 0001:00001020       ??4NodeData@uS@@QEAAAEAU01@$$QEAU01@@Z 0000000180002020 f i Group.obj
 0001:00001120       ?getPoll@Socket@uS@@IEAAHXZ 0000000180002120 f i Group.obj
 0001:00001130       ?setPoll@Socket@uS@@IEAAHH@Z 0000000180002130 f i Group.obj
 0001:00001140       ?setShuttingDown@Socket@uS@@IEAAX_N@Z 0000000180002140 f i Group.obj
 0001:00001160       ?transfer@Socket@uS@@IEAAXPEAUNodeData@2@P6AXPEAUPoll@@@Z@Z 0000000180002160 f i Group.obj
 0001:000012e0       ?changePoll@Socket@uS@@IEAAXPEAU12@@Z 00000001800022e0 f i Group.obj
 0001:000013a0       ?cancelTimeout@Socket@uS@@IEAAXXZ 00000001800023a0 f i Group.obj
 0001:000013f0       ?hasEmptyQueue@Socket@uS@@IEAA_NXZ 00000001800023f0 f i Group.obj
 0001:00001400       ?enqueue@Socket@uS@@IEAAXPEAUMessage@Queue@12@@Z 0000000180002400 f i Group.obj
 0001:00001430       ?allocMessage@Socket@uS@@IEAAPEAUMessage@Queue@12@_KPEBD@Z 0000000180002430 f i Group.obj
 0001:00001490       ?freeMessage@Socket@uS@@IEAAXPEAUMessage@Queue@12@@Z 0000000180002490 f i Group.obj
 0001:000014a0       ?write@Socket@uS@@IEAA_NPEAUMessage@Queue@12@AEA_N@Z 00000001800024a0 f i Group.obj
 0001:000015e0       ??0Socket@uS@@QEAA@PEAUNodeData@1@PEAULoop@@_KPEAUssl_st@@@Z 00000001800025e0 f i Group.obj
 0001:00001680       ?from@?$Group@$0A@@uWS@@SAPEAU12@PEAUSocket@uS@@@Z 0000000180002680 f i Group.obj
 0001:00001680       ?from@?$Group@$00@uWS@@SAPEAU12@PEAUSocket@uS@@@Z 0000000180002680 f i Group.obj
 0001:00001680       ?getNodeData@Socket@uS@@QEAAPEAUNodeData@2@XZ 0000000180002680 f i Group.obj
 0001:00001690       ?getUserData@Socket@uS@@QEAAPEAXXZ 0000000180002690 f i Group.obj
 0001:000016a0       ?setUserData@Socket@uS@@QEAAXPEAX@Z 00000001800026a0 f i Group.obj
 0001:000016b0       ?setNoDelay@Socket@uS@@QEAAXH@Z 00000001800026b0 f i Group.obj
 0001:000016f0       _guard_check_icall_nop     00000001800026f0 f i LIBCMT:guard_support.obj
 0001:000016f0       ?imbue@?$basic_streambuf@DU?$char_traits@D@std@@@std@@MEAAXAEBVlocale@2@@Z 00000001800026f0 f i libcpmt:cout.obj
 0001:000016f0       ?_Unlock@?$basic_streambuf@DU?$char_traits@D@std@@@std@@UEAAXXZ 00000001800026f0 f i libcpmt:cout.obj
 0001:000016f0       ?Destroy@WaitAnyBlock@details@Concurrency@@UEAAXXZ 00000001800026f0 f i libconcrt:event.obj
 0001:000016f0       ?_Doraise@exception@stdext@@MEBAXXZ 00000001800026f0 f i addon.obj
 0001:000016f0       ?NotifyResourcesExternallyIdle@ThreadScheduler@details@Concurrency@@UEAAXPEAPEAUIVirtualProcessorRoot@3@I@Z 00000001800026f0 f i libconcrt:ThreadScheduler.obj
 0001:000016f0       ??3@YAXPEAX0@Z             00000001800026f0 f i libcpmt:mutex.obj
 0001:000016f0       ?setHeader@Response@HttpServer@@SAXAEBV?$FunctionCallbackInfo@VValue@v8@@@v8@@@Z 00000001800026f0 f i addon.obj
 0001:000016f0       ?destroy@stl_condition_variable_win7@details@Concurrency@@UEAAXXZ 00000001800026f0 f i libcpmt:cond.obj
 0001:000016f0       ?_Lock@?$basic_streambuf@DU?$char_traits@D@std@@@std@@UEAAXXZ 00000001800026f0 f i libcpmt:cout.obj
 0001:000016f0       ?NotifyResourcesExternallyBusy@ThreadScheduler@details@Concurrency@@UEAAXPEAPEAUIVirtualProcessorRoot@3@I@Z 00000001800026f0 f i libconcrt:ThreadScheduler.obj
 0001:000016f0       ?RMAwaken@InternalContextBase@details@Concurrency@@EEAAXXZ 00000001800026f0 f i libconcrt:InternalContextBase.obj
 0001:000016f0       ?destroy@stl_condition_variable_vista@details@Concurrency@@UEAAXXZ 00000001800026f0 f i libcpmt:cond.obj
 0001:000016f0       ?getHeader@Response@HttpServer@@SAXAEBV?$FunctionCallbackInfo@VValue@v8@@@v8@@@Z 00000001800026f0 f i addon.obj
 0001:000016f0       ?unpipe@Request@HttpServer@@SAXAEBV?$FunctionCallbackInfo@VValue@v8@@@v8@@@Z 00000001800026f0 f i addon.obj
 0001:000016f0       ?VirtualProcessorActiveNotification@SchedulerBase@details@Concurrency@@MEAAX_NJ@Z 00000001800026f0 f i libconcrt:SchedulerBase.obj
 0001:000016f0       ?NotifyAffinitizedWork@FairScheduleGroupSegment@details@Concurrency@@UEAAXXZ 00000001800026f0 f i libconcrt:SchedulerBase.obj
 0001:000016f0       ?CreateNodeTopology@ResourceManager@details@Concurrency@@UEAAXIPEAIPEAPEAI0@Z 00000001800026f0 f i libconcrt:ResourceManager.obj
 0001:000016f0       ?destroy@stl_critical_section_win7@details@Concurrency@@UEAAXXZ 00000001800026f0 f i libcpmt:mutex.obj
 0001:000016f0       ??1critical_section@Concurrency@@QEAA@XZ 00000001800026f0 f i libconcrt:rtlocks.obj
 0001:000016f0       ?cork@Socket@uS@@QEAAXH@Z  00000001800026f0 f i Group.obj
 0001:000016f0       ?resume@Request@HttpServer@@SAXAEBV?$FunctionCallbackInfo@VValue@v8@@@v8@@@Z 00000001800026f0 f i addon.obj
 0001:00001700       ?shutdown@Socket@uS@@QEAAXXZ 0000000180002700 f i Group.obj
 0001:00001740       ?isShuttingDown@Socket@uS@@QEAA_NXZ 0000000180002740 f i Group.obj
 0001:00001750       ??1Socket@uS@@QEAA@XZ      0000000180002750 f i Group.obj
 0001:00001760       ??0Socket@uS@@QEAA@$$QEAU01@@Z 0000000180002760 f i Group.obj
 0001:000017b0       ??1?$HttpSocket@$00@uWS@@QEAA@XZ 00000001800027b0 f i Group.obj
 0001:000017b0       ??1?$HttpSocket@$0A@@uWS@@QEAA@XZ 00000001800027b0 f i Group.obj
 0001:000017b0       ??1?$WebSocket@$00@uWS@@QEAA@XZ 00000001800027b0 f i Group.obj
 0001:00001830       ??0?$HttpSocket@$0A@@uWS@@QEAA@$$QEAU01@@Z 0000000180002830 f i Group.obj
 0001:00001830       ??0?$HttpSocket@$00@uWS@@QEAA@$$QEAU01@@Z 0000000180002830 f i Group.obj
 0001:00001900       ??_FNode@uS@@QEAAXXZ       0000000180002900 f i Group.obj
 0001:00001920       ??0Hub@uWS@@QEAA@H_NI@Z    0000000180002920 f i Group.obj
 0001:00001a00       ??1Hub@uWS@@QEAA@XZ        0000000180002a00 f i Group.obj
 0001:00001ab0       ??1?$Group@$00@uWS@@QEAA@XZ 0000000180002ab0 f i Group.obj
 0001:00001ab0       ??1?$Group@$0A@@uWS@@QEAA@XZ 0000000180002ab0 f i Group.obj
 0001:00001d20       ??0?$Group@$0A@@uWS@@QEAA@AEBU01@@Z 0000000180002d20 f i Group.obj
 0001:00001d20       ??0?$Group@$00@uWS@@QEAA@AEBU01@@Z 0000000180002d20 f i Group.obj
 0001:00001fe0       ??0?$Group@$0A@@uWS@@QEAA@$$QEAU01@@Z 0000000180002fe0 f i Group.obj
 0001:00001fe0       ??0?$Group@$00@uWS@@QEAA@$$QEAU01@@Z 0000000180002fe0 f i Group.obj
 0001:00002360       ??4?$Group@$0A@@uWS@@QEAAAEAU01@AEBU01@@Z 0000000180003360 f i Group.obj
 0001:00002360       ??4?$Group@$00@uWS@@QEAAAEAU01@AEBU01@@Z 0000000180003360 f i Group.obj
 0001:00002690       ??4?$Group@$00@uWS@@QEAAAEAU01@$$QEAU01@@Z 0000000180003690 f i Group.obj
 0001:00002690       ??4?$Group@$0A@@uWS@@QEAAAEAU01@$$QEAU01@@Z 0000000180003690 f i Group.obj
 0001:00002a60       ??_FHub@uWS@@QEAAXXZ       0000000180003a60 f i Group.obj
 0001:00002a70       ??4?$WebSocketProtocol@$00U?$WebSocket@$00@uWS@@@uWS@@QEAAAEAV01@$$QEAV01@@Z 0000000180003a70 f i Group.obj
 0001:00002a70       ??4?$WebSocketProtocol@$0A@U?$WebSocket@$0A@@uWS@@@uWS@@QEAAAEAV01@$$QEAV01@@Z 0000000180003a70 f i WebSocket.obj
 0001:00002a70       ??4?$WebSocketProtocol@$00U?$WebSocket@$00@uWS@@@uWS@@QEAAAEAV01@AEBV01@@Z 0000000180003a70 f i Group.obj
 0001:00002a70       ??4?$WebSocketProtocol@$0A@U?$WebSocket@$0A@@uWS@@@uWS@@QEAAAEAV01@AEBV01@@Z 0000000180003a70 f i WebSocket.obj
 0001:00002a70       ?setbuf@?$basic_streambuf@DU?$char_traits@D@std@@@std@@MEAAPEAV12@PEAD_J@Z 0000000180003a70 f i libcpmt:cout.obj
 0001:00002a80       ??0?$stack@PEAUPoll@@V?$deque@PEAUPoll@@V?$allocator@PEAUPoll@@@std@@@std@@@std@@QEAA@AEBV01@@Z 0000000180003a80 f i Group.obj
 0001:00002bc0       ??0?$stack@PEAUPoll@@V?$deque@PEAUPoll@@V?$allocator@PEAUPoll@@@std@@@std@@@std@@QEAA@$$QEAV01@@Z 0000000180003bc0 f i Group.obj
 0001:00002c70       ??4?$stack@PEAUPoll@@V?$deque@PEAUPoll@@V?$allocator@PEAUPoll@@@std@@@std@@@std@@QEAAAEAV01@$$QEAV01@@Z 0000000180003c70 f i Group.obj
 0001:00002cf0       ??0?$function@$$A6AXPEAU?$HttpSocket@$0A@@uWS@@@Z@std@@QEAA@$$QEAV01@@Z 0000000180003cf0 f i Group.obj
 0001:00002cf0       ??0?$function@$$A6AXPEAUHttpResponse@uWS@@PEAD_K2@Z@std@@QEAA@$$QEAV01@@Z 0000000180003cf0 f i Group.obj
 0001:00002cf0       ??0?$function@$$A6AXPEAU?$WebSocket@$00@uWS@@PEAD_K@Z@std@@QEAA@$$QEAV01@@Z 0000000180003cf0 f i Group.obj
 0001:00002cf0       ??0?$function@$$A6AXPEAUHttpResponse@uWS@@UHttpRequest@2@PEAD_K3@Z@std@@QEAA@$$QEAV01@@Z 0000000180003cf0 f i Group.obj
 0001:00002cf0       ??0?$function@$$A6AXPEAU?$HttpSocket@$00@uWS@@@Z@std@@QEAA@$$QEAV01@@Z 0000000180003cf0 f i Group.obj
 0001:00002cf0       ??0?$function@$$A6AXPEAU?$WebSocket@$0A@@uWS@@PEAD_K@Z@std@@QEAA@$$QEAV01@@Z 0000000180003cf0 f i Group.obj
 0001:00002cf0       ??0?$function@$$A6AXPEAUHttpResponse@uWS@@@Z@std@@QEAA@$$QEAV01@@Z 0000000180003cf0 f i Group.obj
 0001:00002d70       ??4?$function@$$A6AXPEAU?$HttpSocket@$00@uWS@@@Z@std@@QEAAAEAV01@AEBV01@@Z 0000000180003d70 f i Group.obj
 0001:00002d70       ??$?4AEAV?$function@$$A6AXPEAU?$HttpSocket@$0A@@uWS@@@Z@std@@X@?$function@$$A6AXPEAU?$HttpSocket@$0A@@uWS@@@Z@std@@QEAAAEAV01@AEAV01@@Z 0000000180003d70 f i Group.obj
 0001:00002d70       ??$?4AEAV?$function@$$A6AXPEAU?$WebSocket@$0A@@uWS@@PEAD_K@Z@std@@X@?$function@$$A6AXPEAU?$WebSocket@$0A@@uWS@@PEAD_K@Z@std@@QEAAAEAV01@AEAV01@@Z 0000000180003d70 f i Group.obj
 0001:00002d70       ??$?4AEAV?$function@$$A6AXPEAUHttpResponse@uWS@@PEAD_K2@Z@std@@X@?$function@$$A6AXPEAUHttpResponse@uWS@@PEAD_K2@Z@std@@QEAAAEAV01@AEAV01@@Z 0000000180003d70 f i Group.obj
 0001:00002d70       ??4?$function@$$A6AXPEAU?$WebSocket@$00@uWS@@PEAD_K@Z@std@@QEAAAEAV01@AEBV01@@Z 0000000180003d70 f i Group.obj
 0001:00002d70       ??$?4AEAV?$function@$$A6AXPEAU?$WebSocket@$00@uWS@@PEAD_K@Z@std@@X@?$function@$$A6AXPEAU?$WebSocket@$00@uWS@@PEAD_K@Z@std@@QEAAAEAV01@AEAV01@@Z 0000000180003d70 f i Group.obj
 0001:00002d70       ??4?$function@$$A6AXPEAU?$HttpSocket@$0A@@uWS@@@Z@std@@QEAAAEAV01@AEBV01@@Z 0000000180003d70 f i Group.obj
 0001:00002d70       ??4?$function@$$A6AXPEAU?$WebSocket@$0A@@uWS@@PEAD_K@Z@std@@QEAAAEAV01@AEBV01@@Z 0000000180003d70 f i Group.obj
 0001:00002d70       ??4?$function@$$A6AXPEAUHttpResponse@uWS@@UHttpRequest@2@PEAD_K3@Z@std@@QEAAAEAV01@AEBV01@@Z 0000000180003d70 f i Group.obj
 0001:00002d70       ??$?4AEAV?$function@$$A6AXPEAUHttpResponse@uWS@@@Z@std@@X@?$function@$$A6AXPEAUHttpResponse@uWS@@@Z@std@@QEAAAEAV01@AEAV01@@Z 0000000180003d70 f i Group.obj
 0001:00002d70       ??4?$function@$$A6AXPEAUHttpResponse@uWS@@PEAD_K2@Z@std@@QEAAAEAV01@AEBV01@@Z 0000000180003d70 f i Group.obj
 0001:00002d70       ??$?4AEAV?$function@$$A6AXPEAU?$HttpSocket@$00@uWS@@@Z@std@@X@?$function@$$A6AXPEAU?$HttpSocket@$00@uWS@@@Z@std@@QEAAAEAV01@AEAV01@@Z 0000000180003d70 f i Group.obj
 0001:00002d70       ??4?$function@$$A6AXPEAUHttpResponse@uWS@@@Z@std@@QEAAAEAV01@AEBV01@@Z 0000000180003d70 f i Group.obj
 0001:00002d70       ??$?4AEAV?$function@$$A6AXPEAUHttpResponse@uWS@@UHttpRequest@2@PEAD_K3@Z@std@@X@?$function@$$A6AXPEAUHttpResponse@uWS@@UHttpRequest@2@PEAD_K3@Z@std@@QEAAAEAV01@AEAV01@@Z 0000000180003d70 f i Group.obj
 0001:00002df0       ?listen@?$Group@$0A@@uWS@@QEAAXW4ListenOptions@2@@Z 0000000180003df0 f i Group.obj
 0001:00002df0       ?listen@?$Group@$00@uWS@@QEAAXW4ListenOptions@2@@Z 0000000180003df0 f i Group.obj
 0001:00002e00       ?addAsync@?$Group@$00@uWS@@QEAAXXZ 0000000180003e00 f i Group.obj
 0001:00002e00       ?addAsync@?$Group@$0A@@uWS@@QEAAXXZ 0000000180003e00 f i Group.obj
 0001:00002e10       ??4?$deque@PEAUPoll@@V?$allocator@PEAUPoll@@@std@@@std@@QEAAAEAV01@AEBV01@@Z 0000000180003e10 f i Group.obj
 0001:00003050       ??4?$vector@PEAUPoll@@V?$allocator@PEAUPoll@@@std@@@std@@QEAAAEAV01@AEBV01@@Z 0000000180004050 f i Group.obj
 0001:000031b0       ?push_back@?$vector@PEAUPoll@@V?$allocator@PEAUPoll@@@std@@@std@@QEAAXAEBQEAUPoll@@@Z 00000001800041b0 f i Group.obj
 0001:000032f0       ??0?$vector@PEAUPoll@@V?$allocator@PEAUPoll@@@std@@@std@@QEAA@AEBV01@@Z 00000001800042f0 f i Group.obj
 0001:000033a0       ??0?$basic_string@DU?$char_traits@D@std@@V?$allocator@D@2@@std@@QEAA@AEBV01@@Z 00000001800043a0 f i Group.obj
 0001:00003480       ?_Reset_move@?$_Func_class@XH@std@@IEAAX$$QEAV12@@Z 0000000180004480 f i Group.obj
 0001:00003480       ?_Reset_move@?$_Func_class@XPEAX@std@@IEAAX$$QEAV12@@Z 0000000180004480 f i Group.obj
 0001:00003480       ?_Reset_move@?$_Func_class@XPEAU?$WebSocket@$0A@@uWS@@PEAD_K@std@@IEAAX$$QEAV12@@Z 0000000180004480 f i Group.obj
 0001:00003480       ?_Reset_move@?$_Func_class@XPEAU?$HttpSocket@$0A@@uWS@@@std@@IEAAX$$QEAV12@@Z 0000000180004480 f i Group.obj
 0001:00003480       ?_Reset_move@?$_Func_class@XPEAU?$WebSocket@$0A@@uWS@@HPEAD_K@std@@IEAAX$$QEAV12@@Z 0000000180004480 f i Group.obj
 0001:00003480       ?_Reset_move@?$_Func_class@XPEAUHttpResponse@uWS@@@std@@IEAAX$$QEAV12@@Z 0000000180004480 f i Group.obj
 0001:00003480       ?_Reset_move@?$_Func_class@XPEAU?$HttpSocket@$00@uWS@@@std@@IEAAX$$QEAV12@@Z 0000000180004480 f i Group.obj
 0001:00003480       ?_Reset_move@?$_Func_class@XPEAU?$HttpSocket@$0A@@uWS@@UHttpRequest@2@@std@@IEAAX$$QEAV12@@Z 0000000180004480 f i Group.obj
 0001:00003480       ?_Reset_move@?$_Func_class@XPEAUHttpResponse@uWS@@UHttpRequest@2@PEAD_K_K@std@@IEAAX$$QEAV12@@Z 0000000180004480 f i Group.obj
 0001:00003480       ?_Reset_move@?$_Func_class@XPEAU?$WebSocket@$00@uWS@@PEAD_K@std@@IEAAX$$QEAV12@@Z 0000000180004480 f i Group.obj
 0001:00003480       ?_Reset_move@?$_Func_class@XPEAU?$HttpSocket@$00@uWS@@UHttpRequest@2@@std@@IEAAX$$QEAV12@@Z 0000000180004480 f i Group.obj
 0001:00003480       ?_Reset_move@?$_Func_class@XPEAU?$WebSocket@$0A@@uWS@@UHttpRequest@2@@std@@IEAAX$$QEAV12@@Z 0000000180004480 f i Group.obj
 0001:00003480       ?_Reset_move@?$_Func_class@XPEAU?$WebSocket@$00@uWS@@@std@@IEAAX$$QEAV12@@Z 0000000180004480 f i Group.obj
 0001:00003480       ?_Reset_move@?$_Func_class@XPEAU?$WebSocket@$00@uWS@@PEAD_KW4OpCode@2@@std@@IEAAX$$QEAV12@@Z 0000000180004480 f i Group.obj
 0001:00003480       ?_Reset_move@?$_Func_class@XPEAU?$WebSocket@$00@uWS@@HPEAD_K@std@@IEAAX$$QEAV12@@Z 0000000180004480 f i Group.obj
 0001:00003480       ?_Reset_move@?$_Func_class@XPEAU?$WebSocket@$00@uWS@@UHttpRequest@2@@std@@IEAAX$$QEAV12@@Z 0000000180004480 f i Group.obj
 0001:00003480       ?_Reset_move@?$_Func_class@XPEAU?$WebSocket@$0A@@uWS@@PEAD_KW4OpCode@2@@std@@IEAAX$$QEAV12@@Z 0000000180004480 f i Group.obj
 0001:00003480       ?_Reset_move@?$_Func_class@XPEAU?$WebSocket@$0A@@uWS@@@std@@IEAAX$$QEAV12@@Z 0000000180004480 f i Group.obj
 0001:00003480       ?_Reset_move@?$_Func_class@XPEAUHttpResponse@uWS@@PEAD_K_K@std@@IEAAX$$QEAV12@@Z 0000000180004480 f i Group.obj
 0001:000034f0       ?swap@?$function@$$A6AXPEAU?$WebSocket@$00@uWS@@@Z@std@@QEAAXAEAV12@@Z 00000001800044f0 f i Group.obj
 0001:000034f0       ?swap@?$function@$$A6AXPEAUHttpResponse@uWS@@UHttpRequest@2@PEAD_K3@Z@std@@QEAAXAEAV12@@Z 00000001800044f0 f i Group.obj
 0001:000034f0       ?swap@?$function@$$A6AXPEAU?$WebSocket@$00@uWS@@HPEAD_K@Z@std@@QEAAXAEAV12@@Z 00000001800044f0 f i Group.obj
 0001:000034f0       ?swap@?$function@$$A6AXPEAU?$WebSocket@$0A@@uWS@@HPEAD_K@Z@std@@QEAAXAEAV12@@Z 00000001800044f0 f i Group.obj
 0001:000034f0       ?swap@?$function@$$A6AXPEAUHttpResponse@uWS@@PEAD_K2@Z@std@@QEAAXAEAV12@@Z 00000001800044f0 f i Group.obj
 0001:000034f0       ?swap@?$function@$$A6AXPEAUHttpResponse@uWS@@@Z@std@@QEAAXAEAV12@@Z 00000001800044f0 f i Group.obj
 0001:000034f0       ?swap@?$function@$$A6AXPEAU?$HttpSocket@$0A@@uWS@@@Z@std@@QEAAXAEAV12@@Z 00000001800044f0 f i Group.obj
 0001:000034f0       ?swap@?$function@$$A6AXPEAU?$WebSocket@$0A@@uWS@@@Z@std@@QEAAXAEAV12@@Z 00000001800044f0 f i Group.obj
 0001:000034f0       ?swap@?$function@$$A6AXPEAU?$WebSocket@$00@uWS@@PEAD_KW4OpCode@2@@Z@std@@QEAAXAEAV12@@Z 00000001800044f0 f i Group.obj
 0001:000034f0       ?swap@?$function@$$A6AXPEAU?$HttpSocket@$00@uWS@@UHttpRequest@2@@Z@std@@QEAAXAEAV12@@Z 00000001800044f0 f i Group.obj
 0001:000034f0       ?swap@?$function@$$A6AXPEAU?$HttpSocket@$00@uWS@@@Z@std@@QEAAXAEAV12@@Z 00000001800044f0 f i Group.obj
 0001:000034f0       ?swap@?$function@$$A6AXPEAU?$WebSocket@$00@uWS@@PEAD_K@Z@std@@QEAAXAEAV12@@Z 00000001800044f0 f i Group.obj
 0001:000034f0       ?swap@?$function@$$A6AXPEAX@Z@std@@QEAAXAEAV12@@Z 00000001800044f0 f i Group.obj
 0001:000034f0       ?swap@?$function@$$A6AXH@Z@std@@QEAAXAEAV12@@Z 00000001800044f0 f i Group.obj
 0001:000034f0       ?swap@?$function@$$A6AXPEAU?$WebSocket@$0A@@uWS@@PEAD_KW4OpCode@2@@Z@std@@QEAAXAEAV12@@Z 00000001800044f0 f i Group.obj
 0001:000034f0       ?swap@?$function@$$A6AXPEAU?$WebSocket@$00@uWS@@UHttpRequest@2@@Z@std@@QEAAXAEAV12@@Z 00000001800044f0 f i Group.obj
 0001:000034f0       ?swap@?$function@$$A6AXPEAU?$WebSocket@$0A@@uWS@@PEAD_K@Z@std@@QEAAXAEAV12@@Z 00000001800044f0 f i Group.obj
 0001:000034f0       ?swap@?$function@$$A6AXPEAU?$HttpSocket@$0A@@uWS@@UHttpRequest@2@@Z@std@@QEAAXAEAV12@@Z 00000001800044f0 f i Group.obj
 0001:000034f0       ?swap@?$function@$$A6AXPEAU?$WebSocket@$0A@@uWS@@UHttpRequest@2@@Z@std@@QEAAXAEAV12@@Z 00000001800044f0 f i Group.obj
 0001:000035e0       ?_Tidy@?$deque@PEAUPoll@@V?$allocator@PEAUPoll@@@std@@@std@@IEAAXXZ 00000001800045e0 f i Group.obj
 0001:000036b0       ?erase@?$deque@PEAUPoll@@V?$allocator@PEAUPoll@@@std@@@std@@QEAA?AV?$_Deque_iterator@V?$_Deque_val@U?$_Deque_simple_types@PEAUPoll@@@std@@@std@@@2@V?$_Deque_const_iterator@V?$_Deque_val@U?$_Deque_simple_types@PEAUPoll@@@std@@@std@@@2@0@Z 00000001800046b0 f i Group.obj
 0001:00003990       ?_Xlength@?$vector@PEAUPoll@@V?$allocator@PEAUPoll@@@std@@@std@@CAXXZ 0000000180004990 f i Group.obj
 0001:000039b0       ?_Tidy@?$vector@PEAUPoll@@V?$allocator@PEAUPoll@@@std@@@std@@AEAAXXZ 00000001800049b0 f i Group.obj
 0001:00003a30       ?allocate@?$allocator@PEAUPoll@@@std@@QEAAPEAPEAUPoll@@_K@Z 0000000180004a30 f i Group.obj
 0001:00003aa0       ?deallocate@?$allocator@PEAUPoll@@@std@@QEAAXQEAPEAUPoll@@_K@Z 0000000180004aa0 f i Group.obj
 0001:00003b00       ?assign@?$basic_string@DU?$char_traits@D@std@@V?$allocator@D@2@@std@@QEAAAEAV12@QEBD_K@Z 0000000180004b00 f i Group.obj
 0001:00003c70       ?timerCallback@?$Group@$00@uWS@@KAXPEAUTimer@@@Z 0000000180004c70 f i Group.obj
 0001:00003e10       ?addWebSocket@?$Group@$00@uWS@@IEAAXPEAU?$WebSocket@$00@2@@Z 0000000180004e10 f i Group.obj
 0001:00003e10       ?addWebSocket@?$Group@$0A@@uWS@@IEAAXPEAU?$WebSocket@$0A@@2@@Z 0000000180004e10 f i Group.obj
 0001:00003e50       ?removeWebSocket@?$Group@$00@uWS@@IEAAXPEAU?$WebSocket@$00@2@@Z 0000000180004e50 f i Group.obj
 0001:00003e50       ?removeWebSocket@?$Group@$0A@@uWS@@IEAAXPEAU?$WebSocket@$0A@@2@@Z 0000000180004e50 f i Group.obj
 0001:00003f10       ?addHttpSocket@?$Group@$00@uWS@@IEAAXPEAU?$HttpSocket@$00@2@@Z 0000000180004f10 f i Group.obj
 0001:00003fe0       ?removeHttpSocket@?$Group@$00@uWS@@IEAAXPEAU?$HttpSocket@$00@2@@Z 0000000180004fe0 f i Group.obj
 0001:00003fe0       ?removeHttpSocket@?$Group@$0A@@uWS@@IEAAXPEAU?$HttpSocket@$0A@@2@@Z 0000000180004fe0 f i Group.obj
 0001:000040d0       ??0?$Group@$00@uWS@@IEAA@HIPEAUHub@1@PEAUNodeData@uS@@@Z 00000001800050d0 f i Group.obj
 0001:000044e0       ?stopListening@?$Group@$00@uWS@@IEAAXXZ 00000001800054e0 f i Group.obj
 0001:00004550       ?onConnection@?$Group@$00@uWS@@QEAAXV?$function@$$A6AXPEAU?$WebSocket@$00@uWS@@UHttpRequest@2@@Z@std@@@Z 0000000180005550 f i Group.obj
 0001:00004550       ?onConnection@?$Group@$0A@@uWS@@QEAAXV?$function@$$A6AXPEAU?$WebSocket@$0A@@uWS@@UHttpRequest@2@@Z@std@@@Z 0000000180005550 f i Group.obj
 0001:00004600       ?onTransfer@?$Group@$00@uWS@@QEAAXV?$function@$$A6AXPEAU?$WebSocket@$00@uWS@@@Z@std@@@Z 0000000180005600 f i Group.obj
 0001:00004600       ?onTransfer@?$Group@$0A@@uWS@@QEAAXV?$function@$$A6AXPEAU?$WebSocket@$0A@@uWS@@@Z@std@@@Z 0000000180005600 f i Group.obj
 0001:000046b0       ?onMessage@?$Group@$00@uWS@@QEAAXV?$function@$$A6AXPEAU?$WebSocket@$00@uWS@@PEAD_KW4OpCode@2@@Z@std@@@Z 00000001800056b0 f i Group.obj
 0001:000046b0       ?onMessage@?$Group@$0A@@uWS@@QEAAXV?$function@$$A6AXPEAU?$WebSocket@$0A@@uWS@@PEAD_KW4OpCode@2@@Z@std@@@Z 00000001800056b0 f i Group.obj
 0001:00004760       ?onDisconnection@?$Group@$0A@@uWS@@QEAAXV?$function@$$A6AXPEAU?$WebSocket@$0A@@uWS@@HPEAD_K@Z@std@@@Z 0000000180005760 f i Group.obj
 0001:00004760       ?onDisconnection@?$Group@$00@uWS@@QEAAXV?$function@$$A6AXPEAU?$WebSocket@$00@uWS@@HPEAD_K@Z@std@@@Z 0000000180005760 f i Group.obj
 0001:00004810       ?onPing@?$Group@$0A@@uWS@@QEAAXV?$function@$$A6AXPEAU?$WebSocket@$0A@@uWS@@PEAD_K@Z@std@@@Z 0000000180005810 f i Group.obj
 0001:00004810       ?onPing@?$Group@$00@uWS@@QEAAXV?$function@$$A6AXPEAU?$WebSocket@$00@uWS@@PEAD_K@Z@std@@@Z 0000000180005810 f i Group.obj
 0001:00004850       ?onPong@?$Group@$0A@@uWS@@QEAAXV?$function@$$A6AXPEAU?$WebSocket@$0A@@uWS@@PEAD_K@Z@std@@@Z 0000000180005850 f i Group.obj
 0001:00004850       ?onPong@?$Group@$00@uWS@@QEAAXV?$function@$$A6AXPEAU?$WebSocket@$00@uWS@@PEAD_K@Z@std@@@Z 0000000180005850 f i Group.obj
 0001:00004890       ?onError@?$Group@$0A@@uWS@@QEAAXV?$function@$$A6AXPEAX@Z@std@@@Z 0000000180005890 f i Group.obj
 0001:00004890       ?onError@?$Group@$00@uWS@@QEAAXV?$function@$$A6AXH@Z@std@@@Z 0000000180005890 f i Group.obj
 0001:00004940       ?onHttpConnection@?$Group@$00@uWS@@QEAAXV?$function@$$A6AXPEAU?$HttpSocket@$00@uWS@@@Z@std@@@Z 0000000180005940 f i Group.obj
 0001:00004940       ?onHttpConnection@?$Group@$0A@@uWS@@QEAAXV?$function@$$A6AXPEAU?$HttpSocket@$0A@@uWS@@@Z@std@@@Z 0000000180005940 f i Group.obj
 0001:00004980       ?onHttpRequest@?$Group@$00@uWS@@QEAAXV?$function@$$A6AXPEAUHttpResponse@uWS@@UHttpRequest@2@PEAD_K3@Z@std@@@Z 0000000180005980 f i Group.obj
 0001:00004980       ?onHttpRequest@?$Group@$0A@@uWS@@QEAAXV?$function@$$A6AXPEAUHttpResponse@uWS@@UHttpRequest@2@PEAD_K3@Z@std@@@Z 0000000180005980 f i Group.obj
 0001:000049c0       ?onHttpData@?$Group@$00@uWS@@QEAAXV?$function@$$A6AXPEAUHttpResponse@uWS@@PEAD_K2@Z@std@@@Z 00000001800059c0 f i Group.obj
 0001:000049c0       ?onHttpData@?$Group@$0A@@uWS@@QEAAXV?$function@$$A6AXPEAUHttpResponse@uWS@@PEAD_K2@Z@std@@@Z 00000001800059c0 f i Group.obj
 0001:00004a00       ?onHttpDisconnection@?$Group@$00@uWS@@QEAAXV?$function@$$A6AXPEAU?$HttpSocket@$00@uWS@@@Z@std@@@Z 0000000180005a00 f i Group.obj
 0001:00004a00       ?onHttpDisconnection@?$Group@$0A@@uWS@@QEAAXV?$function@$$A6AXPEAU?$HttpSocket@$0A@@uWS@@@Z@std@@@Z 0000000180005a00 f i Group.obj
 0001:00004a40       ?onCancelledHttpRequest@?$Group@$00@uWS@@QEAAXV?$function@$$A6AXPEAUHttpResponse@uWS@@@Z@std@@@Z 0000000180005a40 f i Group.obj
 0001:00004a40       ?onCancelledHttpRequest@?$Group@$0A@@uWS@@QEAAXV?$function@$$A6AXPEAUHttpResponse@uWS@@@Z@std@@@Z 0000000180005a40 f i Group.obj
 0001:00004a80       ?onHttpUpgrade@?$Group@$0A@@uWS@@QEAAXV?$function@$$A6AXPEAU?$HttpSocket@$0A@@uWS@@UHttpRequest@2@@Z@std@@@Z 0000000180005a80 f i Group.obj
 0001:00004a80       ?onHttpUpgrade@?$Group@$00@uWS@@QEAAXV?$function@$$A6AXPEAU?$HttpSocket@$00@uWS@@UHttpRequest@2@@Z@std@@@Z 0000000180005a80 f i Group.obj
 0001:00004b30       ?broadcast@?$Group@$00@uWS@@QEAAXPEBD_KW4OpCode@2@@Z 0000000180005b30 f i Group.obj
 0001:00004cc0       ?setUserData@?$Group@$0A@@uWS@@QEAAXPEAX@Z 0000000180005cc0 f i Group.obj
 0001:00004cc0       ?setUserData@?$Group@$00@uWS@@QEAAXPEAX@Z 0000000180005cc0 f i Group.obj
 0001:00004cd0       ?getUserData@?$Group@$00@uWS@@QEAAPEAXXZ 0000000180005cd0 f i Group.obj
 0001:00004cd0       ?getUserData@?$Group@$0A@@uWS@@QEAAPEAXXZ 0000000180005cd0 f i Group.obj
 0001:00004ce0       ?terminate@?$Group@$00@uWS@@QEAAXXZ 0000000180005ce0 f i Group.obj
 0001:00004e20       ?close@?$Group@$00@uWS@@QEAAXHPEAD_K@Z 0000000180005e20 f i Group.obj
 0001:00004fd0       ?startAutoPing@?$Group@$00@uWS@@QEAAXHV?$basic_string@DU?$char_traits@D@std@@V?$allocator@D@2@@std@@@Z 0000000180005fd0 f i Group.obj
 0001:000050b0       ?timerCallback@?$Group@$0A@@uWS@@KAXPEAUTimer@@@Z 00000001800060b0 f i Group.obj
 0001:00005250       ?addHttpSocket@?$Group@$0A@@uWS@@IEAAXPEAU?$HttpSocket@$0A@@2@@Z 0000000180006250 f i Group.obj
 0001:00005320       ??0?$Group@$0A@@uWS@@IEAA@HIPEAUHub@1@PEAUNodeData@uS@@@Z 0000000180006320 f i Group.obj
 0001:00005730       ?stopListening@?$Group@$0A@@uWS@@IEAAXXZ 0000000180006730 f i Group.obj
 0001:00005750       ?broadcast@?$Group@$0A@@uWS@@QEAAXPEBD_KW4OpCode@2@@Z 0000000180006750 f i Group.obj
 0001:000058e0       ?terminate@?$Group@$0A@@uWS@@QEAAXXZ 00000001800068e0 f i Group.obj
 0001:00005a50       ?close@?$Group@$0A@@uWS@@QEAAXHPEAD_K@Z 0000000180006a50 f i Group.obj
 0001:00005c10       ?startAutoPing@?$Group@$0A@@uWS@@QEAAXHV?$basic_string@DU?$char_traits@D@std@@V?$allocator@D@2@@std@@@Z 0000000180006c10 f i Group.obj
 0001:00005cf0       ??$copy@V?$_Deque_const_iterator@V?$_Deque_val@U?$_Deque_simple_types@PEAUPoll@@@std@@@std@@@std@@V?$_Deque_iterator@V?$_Deque_val@U?$_Deque_simple_types@PEAUPoll@@@std@@@std@@@2@@std@@YA?AV?$_Deque_iterator@V?$_Deque_val@U?$_Deque_simple_types@PEAUPoll@@@std@@@std@@@0@V?$_Deque_const_iterator@V?$_Deque_val@U?$_Deque_simple_types@PEAUPoll@@@std@@@std@@@0@0V10@@Z 0000000180006cf0 f i Group.obj
 0001:00005e50       ??$insert@V?$_Deque_const_iterator@V?$_Deque_val@U?$_Deque_simple_types@PEAUPoll@@@std@@@std@@@std@@X@?$deque@PEAUPoll@@V?$allocator@PEAUPoll@@@std@@@std@@QEAA?AV?$_Deque_iterator@V?$_Deque_val@U?$_Deque_simple_types@PEAUPoll@@@std@@@std@@@1@V?$_Deque_const_iterator@V?$_Deque_val@U?$_Deque_simple_types@PEAUPoll@@@std@@@std@@@1@00@Z 0000000180006e50 f i Group.obj
 0001:00006230       ??0?$WebSocketState@$00@uWS@@QEAA@XZ 0000000180007230 f i Group.obj
 0001:00006250       ??4?$WebSocketState@$00@uWS@@QEAAAEAU01@$$QEAU01@@Z 0000000180007250 f i Group.obj
 0001:00006290       ??4?$WebSocketState@$00@uWS@@QEAAAEAU01@AEBU01@@Z 0000000180007290 f i Group.obj
 0001:000062b0       ??0?$WebSocket@$00@uWS@@QEAA@$$QEAU01@@Z 00000001800072b0 f i Group.obj
 0001:00006380       ??0?$WebSocketState@$0A@@uWS@@QEAA@XZ 0000000180007380 f i Group.obj
 0001:000063a0       ??4?$WebSocketState@$0A@@uWS@@QEAAAEAU01@$$QEAU01@@Z 00000001800073a0 f i Group.obj
 0001:000063c0       ??4?$WebSocketState@$0A@@uWS@@QEAAAEAU01@AEBU01@@Z 00000001800073c0 f i Group.obj
 0001:000063e0       ??1?$WebSocket@$0A@@uWS@@QEAA@XZ 00000001800073e0 f i Group.obj
 0001:00006460       ??0?$WebSocket@$0A@@uWS@@QEAA@$$QEAU01@@Z 0000000180007460 f i Group.obj
 0001:00006520       ??D?$_Deque_const_iterator@V?$_Deque_val@U?$_Deque_simple_types@PEAUPoll@@@std@@@std@@@std@@QEBAAEBQEAUPoll@@XZ 0000000180007520 f i Group.obj
 0001:00006560       ?_Growmap@?$deque@PEAUPoll@@V?$allocator@PEAUPoll@@@std@@@std@@IEAAX_K@Z 0000000180007560 f i Group.obj
 0001:00006750       ?push_back@?$deque@PEAUPoll@@V?$allocator@PEAUPoll@@@std@@@std@@QEAAXAEBQEAUPoll@@@Z 0000000180007750 f i Group.obj
 0001:00006810       ?terminate@?$HttpSocket@$0A@@uWS@@QEAAXXZ 0000000180007810 f i Group.obj
 0001:00006820       ?terminate@?$HttpSocket@$00@uWS@@QEAAXXZ 0000000180007820 f i Group.obj
 0001:00006830       ?_Xlen@?$deque@PEAUPoll@@V?$allocator@PEAUPoll@@@std@@@std@@IEBAXXZ 0000000180007830 f i Group.obj
 0001:000069b0       ??$closeSocket@UListenSocket@uS@@@Socket@uS@@QEAAXXZ 00000001800079b0 f i Group.obj
 0001:00006bc0       ??$rotate@V?$_Deque_iterator@V?$_Deque_val@U?$_Deque_simple_types@PEAUPoll@@@std@@@std@@@std@@@std@@YA?AV?$_Deque_iterator@V?$_Deque_val@U?$_Deque_simple_types@PEAUPoll@@@std@@@std@@@0@V10@00@Z 0000000180007bc0 f i Group.obj
 0001:00006cc0       ??$_Rotate_unchecked1@V?$_Deque_unchecked_iterator@V?$_Deque_val@U?$_Deque_simple_types@PEAUPoll@@@std@@@std@@@std@@@std@@YA?AV?$_Deque_unchecked_iterator@V?$_Deque_val@U?$_Deque_simple_types@PEAUPoll@@@std@@@std@@@0@V10@00Urandom_access_iterator_tag@0@@Z 0000000180007cc0 f i Group.obj
 0001:00006f00       _Mtx_getconcrtcs           0000000180007f00 f   libcpmt:mutex.obj
 0001:000071d0       ??1_Ref_count_base@std@@UEAA@XZ 00000001800081d0 f i Networking.obj
 0001:000071e0       ?GetDefaultDestination@VirtualProcessor@details@Concurrency@@UEAAPEAUIExecutionContext@3@XZ 00000001800081e0 f i libconcrt:VirtualProcessor.obj
 0001:000071e0       ?showmanyc@?$basic_streambuf@DU?$char_traits@D@std@@@std@@MEAA_JXZ 00000001800081e0 f i libcpmt:cout.obj
 0001:000071e0       ?EnterHyperCriticalRegion@ContextBase@details@Concurrency@@QEAAHXZ 00000001800081e0 f i libconcrt:ContextBase.obj
 0001:000071e0       ?GetContextKind@ExternalContextBase@details@Concurrency@@EEBA?AW4ContextKind@ContextBase@23@XZ 00000001800081e0 f i libconcrt:ExternalContextBase.obj
 0001:000071e0       ?sync@?$basic_streambuf@DU?$char_traits@D@std@@@std@@MEAAHXZ 00000001800081e0 f i libcpmt:cout.obj
 0001:000071e0       ?EnterCriticalRegion@ContextBase@details@Concurrency@@QEAAHXZ 00000001800081e0 f i libconcrt:ContextBase.obj
 0001:000071e0       ?_Get_deleter@_Ref_count_base@std@@UEBAPEAXAEBVtype_info@@@Z 00000001800081e0 f i Networking.obj
 0001:000071e0       ?ExitHyperCriticalRegion@ContextBase@details@Concurrency@@QEAAHXZ 00000001800081e0 f i libconcrt:ContextBase.obj
 0001:000071e0       ?PreRunnableSearch@VirtualProcessor@details@Concurrency@@UEAAPEAVInternalContextBase@23@XZ 00000001800081e0 f i libconcrt:VirtualProcessor.obj
 0001:000071e0       ?ExitCriticalRegion@ContextBase@details@Concurrency@@QEAAHXZ 00000001800081e0 f i libconcrt:ContextBase.obj
 0001:000071f0       ??_E_Ref_count_base@std@@UEAAPEAXI@Z 00000001800081f0 f i * CIL library *:* CIL module *
 0001:000071f0       ??_G_Ref_count_base@std@@UEAAPEAXI@Z 00000001800081f0 f i Networking.obj
 0001:00007220       ??0Context@TLS@uS@@QEAA@AEBV012@@Z 0000000180008220 f   Networking.obj
 0001:00007250       ??4Context@TLS@uS@@QEAAAEAV012@AEBV012@@Z 0000000180008250 f   Networking.obj
 0001:00007270       ??1Context@TLS@uS@@QEAA@XZ 0000000180008270 f   Networking.obj
 0001:000072a0       ?createContext@TLS@uS@@YA?AVContext@12@V?$basic_string@DU?$char_traits@D@std@@V?$allocator@D@2@@std@@00@Z 00000001800082a0 f   Networking.obj
 0001:00007420       ??_G?$basic_string@DU?$char_traits@D@std@@V?$allocator@D@2@@std@@QEAAPEAXI@Z 0000000180008420 f i Networking.obj
 0001:000074a0       ?_Delete_this@?$_Ref_count@V?$basic_string@DU?$char_traits@D@std@@V?$allocator@D@2@@std@@@std@@EEAAXXZ 00000001800084a0 f i Networking.obj
 0001:000074c0       ?_Destroy@?$_Ref_count@V?$basic_string@DU?$char_traits@D@std@@V?$allocator@D@2@@std@@@std@@EEAAXXZ 00000001800084c0 f i Networking.obj
 0001:000074d0       ??_E?$_Ref_count@V?$basic_string@DU?$char_traits@D@std@@V?$allocator@D@2@@std@@@std@@UEAAPEAXI@Z 00000001800084d0 f i * CIL library *:* CIL module *
 0001:000074d0       ??_G?$_Ref_count@V?$basic_string@DU?$char_traits@D@std@@V?$allocator@D@2@@std@@@std@@UEAAPEAXI@Z 00000001800084d0 f i Networking.obj
 0001:00007500       ?to_string@std@@YA?AV?$basic_string@DU?$char_traits@D@std@@V?$allocator@D@2@@1@H@Z 0000000180008500 f i Hub.obj
 0001:000075e0       ??1?$map@V?$basic_string@DU?$char_traits@D@std@@V?$allocator@D@2@@std@@V12@U?$less@V?$basic_string@DU?$char_traits@D@std@@V?$allocator@D@2@@std@@@2@V?$allocator@U?$pair@$$CBV?$basic_string@DU?$char_traits@D@std@@V?$allocator@D@2@@std@@V12@@std@@@2@@std@@QEAA@XZ 00000001800085e0 f i Hub.obj
 0001:00007620       ?inflate@Hub@uWS@@IEAAPEADPEADAEA_K_K@Z 0000000180008620 f   Hub.obj
 0001:000077e0       ?onServerAccept@Hub@uWS@@KAXPEAUSocket@uS@@@Z 00000001800087e0 f   Hub.obj
 0001:00007940       ?onClientConnection@Hub@uWS@@KAXPEAUSocket@uS@@_N@Z 0000000180008940 f   Hub.obj
 0001:00007a00       ?listen@Hub@uWS@@QEAA_NPEBDHVContext@TLS@uS@@HPEAU?$Group@$00@2@@Z 0000000180008a00 f   Hub.obj
 0001:00007b00       ?listen@Hub@uWS@@QEAA_NHVContext@TLS@uS@@HPEAU?$Group@$00@2@@Z 0000000180008b00 f   Hub.obj
 0001:00007b80       ?allocateHttpSocket@uWS@@YAPEAUSocket@uS@@PEAU23@@Z 0000000180008b80 f   Hub.obj
 0001:00007c20       ?connect@Hub@uWS@@QEAAXV?$basic_string@DU?$char_traits@D@std@@V?$allocator@D@2@@std@@PEAXV?$map@V?$basic_string@DU?$char_traits@D@std@@V?$allocator@D@2@@std@@V12@U?$less@V?$basic_string@DU?$char_traits@D@std@@V?$allocator@D@2@@std@@@2@V?$allocator@U?$pair@$$CBV?$basic_string@DU?$char_traits@D@std@@V?$allocator@D@2@@std@@V12@@std@@@2@@4@HPEAU?$Group@$0A@@2@@Z 0000000180008c20 f   Hub.obj
 0001:00008d10       ?upgrade@Hub@uWS@@QEAAX_KPEBDPEAUssl_st@@1010PEAU?$Group@$00@2@@Z 0000000180009d10 f   Hub.obj
 0001:00009040       ??0?$WebSocket@$00@uWS@@IEAA@_NPEAUSocket@uS@@@Z 000000018000a040 f i Hub.obj
 0001:000090d0       ??0?$HttpSocket@$0A@@uWS@@QEAA@PEAUSocket@uS@@@Z 000000018000a0d0 f i Hub.obj
 0001:000090d0       ??0?$HttpSocket@$00@uWS@@QEAA@PEAUSocket@uS@@@Z 000000018000a0d0 f i Hub.obj
 0001:00009150       ?find@?$basic_string@DU?$char_traits@D@std@@V?$allocator@D@2@@std@@QEBA_KQEBD_K@Z 000000018000a150 f i Hub.obj
 0001:00009250       ?assign@?$basic_string@DU?$char_traits@D@std@@V?$allocator@D@2@@std@@QEAAAEAV12@QEBD@Z 000000018000a250 f i Hub.obj
 0001:00009270       ?_Erase@?$_Tree@V?$_Tmap_traits@V?$basic_string@DU?$char_traits@D@std@@V?$allocator@D@2@@std@@V12@U?$less@V?$basic_string@DU?$char_traits@D@std@@V?$allocator@D@2@@std@@@2@V?$allocator@U?$pair@$$CBV?$basic_string@DU?$char_traits@D@std@@V?$allocator@D@2@@std@@V12@@std@@@2@$0A@@std@@@std@@IEAAXPEAU?$_Tree_node@U?$pair@$$CBV?$basic_string@DU?$char_traits@D@std@@V?$allocator@D@2@@std@@V12@@std@@PEAX@2@@Z 000000018000a270 f i Hub.obj
 0001:00009390       ?_Xran@?$_String_val@U?$_Simple_types@D@std@@@std@@SAXXZ 000000018000a390 f i Hub.obj
 0001:000093b0       ??$listen@$1?onServerAccept@Hub@uWS@@KAXPEAUSocket@uS@@@Z@Node@uS@@QEAA_NPEBDHVContext@TLS@1@HPEAUNodeData@1@PEAX@Z 000000018000a3b0 f i Hub.obj
 0001:000096d0       ??$connect@$1?allocateHttpSocket@uWS@@YAPEAUSocket@uS@@PEAU34@@Z$1?onClientConnection@Hub@2@KAX0_N@Z@Node@uS@@QEAAPEAUSocket@1@PEBDH_NPEAUNodeData@1@@Z 000000018000a6d0 f i Hub.obj
 0001:00009930       ?reserve@?$basic_string@DU?$char_traits@D@std@@V?$allocator@D@2@@std@@QEAAX_K@Z 000000018000a930 f i Hub.obj
 0001:000099e0       ??$sslIoHandler@U?$HttpSocket@$00@uWS@@@Socket@uS@@KAXPEAUPoll@@HH@Z 000000018000a9e0 f i Hub.obj
 0001:00009c00       ??$ioHandler@U?$HttpSocket@$00@uWS@@@Socket@uS@@KAXPEAUPoll@@HH@Z 000000018000ac00 f i Hub.obj
 0001:00009d80       ??$sslIoHandler@U?$HttpSocket@$0A@@uWS@@@Socket@uS@@KAXPEAUPoll@@HH@Z 000000018000ad80 f i Hub.obj
 0001:00009fa0       ??$ioHandler@U?$HttpSocket@$0A@@uWS@@@Socket@uS@@KAXPEAUPoll@@HH@Z 000000018000afa0 f i Hub.obj
 0001:0000a120       ??$accept_poll_cb@$1?onServerAccept@Hub@uWS@@KAXPEAUSocket@uS@@@Z@Node@uS@@CAXPEAUPoll@@HH@Z 000000018000b120 f i Hub.obj
 0001:0000a2c0       ??$connect_cb@$1?onClientConnection@Hub@uWS@@KAXPEAUSocket@uS@@_N@Z@Node@uS@@CAXPEAUPoll@@HH@Z 000000018000b2c0 f i Hub.obj
 0001:0000a2d0       ??$sslIoHandler@U?$WebSocket@$00@uWS@@@Socket@uS@@KAXPEAUPoll@@HH@Z 000000018000b2d0 f i Hub.obj
 0001:0000a4f0       ??$ioHandler@U?$WebSocket@$00@uWS@@@Socket@uS@@KAXPEAUPoll@@HH@Z 000000018000b4f0 f i Hub.obj
 0001:0000a7f0       ??$accept_timer_cb@$1?onServerAccept@Hub@uWS@@KAXPEAUSocket@uS@@@Z@Node@uS@@CAXPEAUTimer@@@Z 000000018000b7f0 f i Hub.obj
 0001:0000a980       ?asyncCallback@NodeData@uS@@SAXPEAUAsync@@@Z 000000018000b980 f   Node.obj
 0001:0000ab10       ??0Node@uS@@QEAA@HHH_N@Z   000000018000bb10 f   Node.obj
 0001:0000ace0       ?run@Node@uS@@QEAAXXZ      000000018000bce0 f   Node.obj
 0001:0000ad10       ??1Node@uS@@QEAA@XZ        000000018000bd10 f   Node.obj
 0001:0000ade0       ntohll                     000000018000bde0 f i WebSocket.obj
 0001:0000ae70       ?send@?$WebSocket@$0A@@uWS@@QEAAXPEBDW4OpCode@2@@Z 000000018000be70 f i WebSocket.obj
 0001:0000aeb0       ?ping@?$WebSocket@$0A@@uWS@@QEAAXPEBD@Z 000000018000beb0 f i WebSocket.obj
 0001:0000aef0       ?forceClose@?$WebSocket@$0A@@uWS@@KAXPEAU?$WebSocketState@$0A@@2@@Z 000000018000bef0 f i WebSocket.obj
 0001:0000af10       ?setCompressed@?$WebSocket@$0A@@uWS@@KA_NPEAU?$WebSocketState@$0A@@2@@Z 000000018000bf10 f i WebSocket.obj
 0001:0000af30       ?refusePayloadLength@?$WebSocket@$00@uWS@@KA_N_KPEAU?$WebSocketState@$00@2@@Z 000000018000bf30 f i WebSocket.obj
 0001:0000af30       ?refusePayloadLength@?$WebSocket@$0A@@uWS@@KA_N_KPEAU?$WebSocketState@$0A@@2@@Z 000000018000bf30 f i WebSocket.obj
 0001:0000af60       ??0?$WebSocket@$0A@@uWS@@IEAA@_NPEAUSocket@uS@@@Z 000000018000bf60 f i WebSocket.obj
 0001:0000aff0       ?send@?$WebSocket@$00@uWS@@QEAAXPEBDW4OpCode@2@@Z 000000018000bff0 f i WebSocket.obj
 0001:0000b030       ?ping@?$WebSocket@$00@uWS@@QEAAXPEBD@Z 000000018000c030 f i WebSocket.obj
 0001:0000b070       ?forceClose@?$WebSocket@$00@uWS@@KAXPEAU?$WebSocketState@$00@2@@Z 000000018000c070 f i WebSocket.obj
 0001:0000b090       ?setCompressed@?$WebSocket@$00@uWS@@KA_NPEAU?$WebSocketState@$00@2@@Z 000000018000c090 f i WebSocket.obj
 0001:0000b0b0       ?resize@?$basic_string@DU?$char_traits@D@std@@V?$allocator@D@2@@std@@QEAAX_KD@Z 000000018000c0b0 f i WebSocket.obj
 0001:0000b140       ?append@?$basic_string@DU?$char_traits@D@std@@V?$allocator@D@2@@std@@QEAAAEAV12@_KD@Z 000000018000c140 f i WebSocket.obj
 0001:0000b1d0       ?onData@?$WebSocket@$00@uWS@@KAPEAUSocket@uS@@PEAU34@PEAD_K@Z 000000018000c1d0 f i WebSocket.obj
 0001:0000b210       ?onEnd@?$WebSocket@$00@uWS@@KAXPEAUSocket@uS@@@Z 000000018000c210 f i WebSocket.obj
 0001:0000b350       ?handleFragment@?$WebSocket@$00@uWS@@KA_NPEAD_KIH_NPEAU?$WebSocketState@$00@2@@Z 000000018000c350 f i WebSocket.obj
 0001:0000b7e0       ?sendPrepared@?$WebSocket@$00@uWS@@QEAAXPEAUPreparedMessage@12@PEAX@Z 000000018000c7e0 f i WebSocket.obj
 0001:0000b7e0       ?sendPrepared@?$WebSocket@$0A@@uWS@@QEAAXPEAUPreparedMessage@12@PEAX@Z 000000018000c7e0 f i WebSocket.obj
 0001:0000b930       ?finalizeMessage@?$WebSocket@$00@uWS@@SAXPEAUPreparedMessage@12@@Z 000000018000c930 f i WebSocket.obj
 0001:0000b930       ?finalizeMessage@?$WebSocket@$0A@@uWS@@SAXPEAUPreparedMessage@12@@Z 000000018000c930 f i WebSocket.obj
 0001:0000b960       ?close@?$WebSocket@$00@uWS@@QEAAXHPEBD_K@Z 000000018000c960 f i WebSocket.obj
 0001:0000bb10       ?transfer@?$WebSocket@$00@uWS@@QEAAXPEAU?$Group@$00@2@@Z 000000018000cb10 f i WebSocket.obj
 0001:0000bb10       ?transfer@?$WebSocket@$0A@@uWS@@QEAAXPEAU?$Group@$0A@@2@@Z 000000018000cb10 f i WebSocket.obj
 0001:0000bc30       ?terminate@?$WebSocket@$00@uWS@@QEAAXXZ 000000018000cc30 f i WebSocket.obj
 0001:0000bc40       ?send@?$WebSocket@$00@uWS@@QEAAXPEBD_KW4OpCode@2@P6AXPEAU12@PEAX_N4@Z4@Z 000000018000cc40 f i WebSocket.obj
 0001:0000bc60       ?prepareMessage@?$WebSocket@$00@uWS@@SAPEAUPreparedMessage@12@PEAD_KW4OpCode@2@_NP6AXPEAU12@PEAX35@Z@Z 000000018000cc60 f i WebSocket.obj
 0001:0000bcf0       ?prepareMessageBatch@?$WebSocket@$00@uWS@@SAPEAUPreparedMessage@12@AEAV?$vector@V?$basic_string@DU?$char_traits@D@std@@V?$allocator@D@2@@std@@V?$allocator@V?$basic_string@DU?$char_traits@D@std@@V?$allocator@D@2@@std@@@2@@std@@AEAV?$vector@HV?$allocator@H@std@@@5@W4OpCode@2@_NP6AXPEAU12@PEAX35@Z@Z 000000018000ccf0 f i WebSocket.obj
 0001:0000bfe0       ?onData@?$WebSocket@$0A@@uWS@@KAPEAUSocket@uS@@PEAU34@PEAD_K@Z 000000018000cfe0 f i WebSocket.obj
 0001:0000c020       ?onEnd@?$WebSocket@$0A@@uWS@@KAXPEAUSocket@uS@@@Z 000000018000d020 f i WebSocket.obj
 0001:0000c160       ?handleFragment@?$WebSocket@$0A@@uWS@@KA_NPEAD_KIH_NPEAU?$WebSocketState@$0A@@2@@Z 000000018000d160 f i WebSocket.obj
 0001:0000c5e0       ?close@?$WebSocket@$0A@@uWS@@QEAAXHPEBD_K@Z 000000018000d5e0 f i WebSocket.obj
 0001:0000c740       ?terminate@?$WebSocket@$0A@@uWS@@QEAAXXZ 000000018000d740 f i WebSocket.obj
 0001:0000c750       ?send@?$WebSocket@$0A@@uWS@@QEAAXPEBD_KW4OpCode@2@P6AXPEAU12@PEAX_N4@Z4@Z 000000018000d750 f i WebSocket.obj
 0001:0000c770       ?prepareMessage@?$WebSocket@$0A@@uWS@@SAPEAUPreparedMessage@12@PEAD_KW4OpCode@2@_NP6AXPEAU12@PEAX35@Z@Z 000000018000d770 f i WebSocket.obj
 0001:0000c800       ?prepareMessageBatch@?$WebSocket@$0A@@uWS@@SAPEAUPreparedMessage@12@AEAV?$vector@V?$basic_string@DU?$char_traits@D@std@@V?$allocator@D@2@@std@@V?$allocator@V?$basic_string@DU?$char_traits@D@std@@V?$allocator@D@2@@std@@@2@@std@@AEAV?$vector@HV?$allocator@H@std@@@5@W4OpCode@2@_NP6AXPEAU12@PEAX35@Z@Z 000000018000d800 f i WebSocket.obj
 0001:0000ccf0       ?consume@?$WebSocketProtocol@$0A@U?$WebSocket@$0A@@uWS@@@uWS@@SAXPEADIPEAU?$WebSocketState@$0A@@2@@Z 000000018000dcf0 f i WebSocket.obj
 0001:0000ce90       ?formatMessage@?$WebSocketProtocol@$0A@U?$WebSocket@$0A@@uWS@@@uWS@@SA_KPEADPEBD_KW4OpCode@2@2_N@Z 000000018000de90 f i WebSocket.obj
 0001:0000d030       ?formatClosePayload@?$WebSocketProtocol@$00U?$WebSocket@$00@uWS@@@uWS@@SA_KPEADGPEBD_K@Z 000000018000e030 f i WebSocket.obj
 0001:0000d030       ?formatClosePayload@?$WebSocketProtocol@$0A@U?$WebSocket@$0A@@uWS@@@uWS@@SA_KPEADGPEBD_K@Z 000000018000e030 f i WebSocket.obj
 0001:0000d090       ?parseClosePayload@?$WebSocketProtocol@$0A@U?$WebSocket@$0A@@uWS@@@uWS@@SA?AUCloseFrame@12@PEAD_K@Z 000000018000e090 f i WebSocket.obj
 0001:0000d090       ?parseClosePayload@?$WebSocketProtocol@$00U?$WebSocket@$00@uWS@@@uWS@@SA?AUCloseFrame@12@PEAD_K@Z 000000018000e090 f i WebSocket.obj
 0001:0000d180       ?isValidUtf8@?$WebSocketProtocol@$00U?$WebSocket@$00@uWS@@@uWS@@SA_NPEAE_K@Z 000000018000e180 f i WebSocket.obj
 0001:0000d180       ?isValidUtf8@?$WebSocketProtocol@$0A@U?$WebSocket@$0A@@uWS@@@uWS@@SA_NPEAE_K@Z 000000018000e180 f i WebSocket.obj
 0001:0000d2b0       ?consume@?$WebSocketProtocol@$00U?$WebSocket@$00@uWS@@@uWS@@SAXPEADIPEAU?$WebSocketState@$00@2@@Z 000000018000e2b0 f i WebSocket.obj
 0001:0000d450       ?formatMessage@?$WebSocketProtocol@$00U?$WebSocket@$00@uWS@@@uWS@@SA_KPEADPEBD_KW4OpCode@2@2_N@Z 000000018000e450 f i WebSocket.obj
 0001:0000d590       ??R?$_Func_class@XPEAU?$WebSocket@$00@uWS@@PEAD_K@std@@QEBAXPEAU?$WebSocket@$00@uWS@@PEAD_K@Z 000000018000e590 f i WebSocket.obj
 0001:0000d590       ??R?$_Func_class@XPEAU?$WebSocket@$0A@@uWS@@PEAD_K@std@@QEBAXPEAU?$WebSocket@$0A@@uWS@@PEAD_K@Z 000000018000e590 f i WebSocket.obj
 0001:0000d5d0       ?consumeContinuation@?$WebSocketProtocol@$0A@U?$WebSocket@$0A@@uWS@@@uWS@@CA_NAEAPEADAEAIPEAU?$WebSocketState@$0A@@2@@Z 000000018000e5d0 f i WebSocket.obj
 0001:0000d6b0       ?rsv1@?$WebSocketProtocol@$0A@U?$WebSocket@$0A@@uWS@@@uWS@@CA_NPEAD@Z 000000018000e6b0 f i WebSocket.obj
 0001:0000d6b0       ?rsv1@?$WebSocketProtocol@$00U?$WebSocket@$00@uWS@@@uWS@@CA_NPEAD@Z 000000018000e6b0 f i WebSocket.obj
 0001:0000d6c0       ?rsv23@?$WebSocketProtocol@$0A@U?$WebSocket@$0A@@uWS@@@uWS@@CA_NPEAD@Z 000000018000e6c0 f i WebSocket.obj
 0001:0000d6c0       ?rsv23@?$WebSocketProtocol@$00U?$WebSocket@$00@uWS@@@uWS@@CA_NPEAD@Z 000000018000e6c0 f i WebSocket.obj
 0001:0000d6d0       ?payloadLength@?$WebSocketProtocol@$0A@U?$WebSocket@$0A@@uWS@@@uWS@@CAEPEAD@Z 000000018000e6d0 f i WebSocket.obj
 0001:0000d6d0       ?payloadLength@?$WebSocketProtocol@$00U?$WebSocket@$00@uWS@@@uWS@@CAEPEAD@Z 000000018000e6d0 f i WebSocket.obj
 0001:0000d6e0       ?getOpCode@?$WebSocketProtocol@$00U?$WebSocket@$00@uWS@@@uWS@@CAEPEAD@Z 000000018000e6e0 f i WebSocket.obj
 0001:0000d6e0       ?getOpCode@?$WebSocketProtocol@$0A@U?$WebSocket@$0A@@uWS@@@uWS@@CAEPEAD@Z 000000018000e6e0 f i WebSocket.obj
 0001:0000d6f0       ?isFin@?$WebSocketProtocol@$00U?$WebSocket@$00@uWS@@@uWS@@CA_NPEAD@Z 000000018000e6f0 f i WebSocket.obj
 0001:0000d6f0       ?isFin@?$WebSocketProtocol@$0A@U?$WebSocket@$0A@@uWS@@@uWS@@CA_NPEAD@Z 000000018000e6f0 f i WebSocket.obj
 0001:0000d700       ?consumeContinuation@?$WebSocketProtocol@$00U?$WebSocket@$00@uWS@@@uWS@@CA_NAEAPEADAEAIPEAU?$WebSocketState@$00@2@@Z 000000018000e700 f i WebSocket.obj
 0001:0000d8f0       ?unmaskInplace@?$WebSocketProtocol@$0A@U?$WebSocket@$0A@@uWS@@@uWS@@CAXPEAD00@Z 000000018000e8f0 f i WebSocket.obj
 0001:0000d8f0       ?unmaskInplace@?$WebSocketProtocol@$00U?$WebSocket@$00@uWS@@@uWS@@CAXPEAD00@Z 000000018000e8f0 f i WebSocket.obj
 0001:0000d930       ?rotateMask@?$WebSocketProtocol@$0A@U?$WebSocket@$0A@@uWS@@@uWS@@CAXIPEAD@Z 000000018000e930 f i WebSocket.obj
 0001:0000d930       ?rotateMask@?$WebSocketProtocol@$00U?$WebSocket@$00@uWS@@@uWS@@CAXIPEAD@Z 000000018000e930 f i WebSocket.obj
 0001:0000df90       ??$consumeMessage@$01E@?$WebSocketProtocol@$0A@U?$WebSocket@$0A@@uWS@@@uWS@@CA_NEAEAPEADAEAIPEAU?$WebSocketState@$0A@@1@@Z 000000018000ef90 f i WebSocket.obj
 0001:0000e150       ??$consumeMessage@$03G@?$WebSocketProtocol@$0A@U?$WebSocket@$0A@@uWS@@@uWS@@CA_NGAEAPEADAEAIPEAU?$WebSocketState@$0A@@1@@Z 000000018000f150 f i WebSocket.obj
 0001:0000e310       ??$consumeMessage@$09_K@?$WebSocketProtocol@$0A@U?$WebSocket@$0A@@uWS@@@uWS@@CA_N_KAEAPEADAEAIPEAU?$WebSocketState@$0A@@1@@Z 000000018000f310 f i WebSocket.obj
 0001:0000e490       ??$consumeMessage@$05E@?$WebSocketProtocol@$00U?$WebSocket@$00@uWS@@@uWS@@CA_NEAEAPEADAEAIPEAU?$WebSocketState@$00@1@@Z 000000018000f490 f i WebSocket.obj
 0001:0000e6e0       ??$consumeMessage@$07G@?$WebSocketProtocol@$00U?$WebSocket@$00@uWS@@@uWS@@CA_NGAEAPEADAEAIPEAU?$WebSocketState@$00@1@@Z 000000018000f6e0 f i WebSocket.obj
 0001:0000e920       ??$consumeMessage@$0O@_K@?$WebSocketProtocol@$00U?$WebSocket@$00@uWS@@@uWS@@CA_N_KAEAPEADAEAIPEAU?$WebSocketState@$00@1@@Z 000000018000f920 f i WebSocket.obj
 0001:0000eb40       ?unmaskImpreciseCopyMask@?$WebSocketProtocol@$0A@U?$WebSocket@$0A@@uWS@@@uWS@@CAXPEAD00I@Z 000000018000fb40 f i WebSocket.obj
 0001:0000eb40       ?unmaskImpreciseCopyMask@?$WebSocketProtocol@$00U?$WebSocket@$00@uWS@@@uWS@@CAXPEAD00I@Z 000000018000fb40 f i WebSocket.obj
 0001:0000eba0       ?unmaskImprecise@?$WebSocketProtocol@$0A@U?$WebSocket@$0A@@uWS@@@uWS@@CAXPEAD00I@Z 000000018000fba0 f i WebSocket.obj
 0001:0000eba0       ?unmaskImprecise@?$WebSocketProtocol@$00U?$WebSocket@$00@uWS@@@uWS@@CAXPEAD00I@Z 000000018000fba0 f i WebSocket.obj
 0001:0000ebf0       ?getMethod@HttpRequest@uWS@@QEAA?AW4HttpMethod@2@XZ 000000018000fbf0 f i HTTPSocket.obj
 0001:0000ed90       ?getHeaders@uWS@@YAPEADPEAD0PEAUHeader@1@_K@Z 000000018000fd90 f   HTTPSocket.obj
 0001:0000ef80       ?upgrade@?$HttpSocket@$00@uWS@@QEAAXPEBD0_K01PEA_N@Z 000000018000ff80 f i HTTPSocket.obj
 0001:0000f360       ?onData@?$HttpSocket@$00@uWS@@CAPEAUSocket@uS@@PEAU34@PEAD_K@Z 0000000180010360 f i HTTPSocket.obj
 0001:0000faf0       ?onEnd@?$HttpSocket@$00@uWS@@CAXPEAUSocket@uS@@@Z 0000000180010af0 f i HTTPSocket.obj
 0001:0000fc90       ?upgrade@?$HttpSocket@$0A@@uWS@@QEAAXPEBD0_K01PEA_N@Z 0000000180010c90 f i HTTPSocket.obj
 0001:0000fd50       ?onData@?$HttpSocket@$0A@@uWS@@CAPEAUSocket@uS@@PEAU34@PEAD_K@Z 0000000180010d50 f i HTTPSocket.obj
 0001:000100a0       ?onEnd@?$HttpSocket@$0A@@uWS@@CAXPEAUSocket@uS@@@Z 00000001800110a0 f i HTTPSocket.obj
 0001:00010280       ??$sslIoHandler@U?$WebSocket@$0A@@uWS@@@Socket@uS@@KAXPEAUPoll@@HH@Z 0000000180011280 f i HTTPSocket.obj
 0001:000104a0       ??$ioHandler@U?$WebSocket@$0A@@uWS@@@Socket@uS@@KAXPEAUPoll@@HH@Z 00000001800114a0 f i HTTPSocket.obj
 0001:00010640       ?getAddress@Socket@uS@@QEAA?AUAddress@12@XZ 0000000180011640 f   Socket.obj
 0001:00010760       __local_stdio_printf_options 0000000180011760 f i addon.obj
 0001:00010770       sprintf                    0000000180011770 f i addon.obj
 0001:000107d0       sprintf_s                  00000001800117d0 f i addon.obj
 0001:00010830       ?what@exception@stdext@@UEBAPEBDXZ 0000000180011830 f i addon.obj
 0001:00010850       ?_Raise@exception@stdext@@QEBAXXZ 0000000180011850 f i addon.obj
 0001:00010890       ??_Eexception@stdext@@UEAAPEAXI@Z 0000000180011890 f i * CIL library *:* CIL module *
 0001:00010890       ??_Gexception@stdext@@UEAAPEAXI@Z 0000000180011890 f i addon.obj
 0001:00010890       ??_Eruntime_error@std@@UEAAPEAXI@Z 0000000180011890 f i * CIL library *:* CIL module *
 0001:00010890       ??_Gruntime_error@std@@UEAAPEAXI@Z 0000000180011890 f i addon.obj
 0001:000108c0       ??0runtime_error@std@@QEAA@PEBD@Z 00000001800118c0 f i addon.obj
 0001:000108e0       ??0_Locinfo@std@@QEAA@PEBD@Z 00000001800118e0 f i addon.obj
 0001:00010960       ??1_Locinfo@std@@QEAA@XZ   0000000180011960 f i addon.obj
 0001:00010a00       ??_G_Facet_base@std@@UEAAPEAXI@Z 0000000180011a00 f i addon.obj
 0001:00010a00       ??_E_Facet_base@std@@UEAAPEAXI@Z 0000000180011a00 f i * CIL library *:* CIL module *
 0001:00010a30       ?_Incref@facet@locale@std@@UEAAXXZ 0000000180011a30 f i addon.obj
 0001:00010a40       ?_Decref@facet@locale@std@@UEAAPEAV_Facet_base@3@XZ 0000000180011a40 f i addon.obj
 0001:00010a50       ?do_tolower@?$ctype@D@std@@MEBADD@Z 0000000180011a50 f i addon.obj
 0001:00010a60       ?do_tolower@?$ctype@D@std@@MEBAPEBDPEADPEBD@Z 0000000180011a60 f i addon.obj
 0001:00010ac0       ?do_toupper@?$ctype@D@std@@MEBADD@Z 0000000180011ac0 f i addon.obj
 0001:00010ad0       ?do_toupper@?$ctype@D@std@@MEBAPEBDPEADPEBD@Z 0000000180011ad0 f i addon.obj
 0001:00010b30       ?do_widen@?$ctype@D@std@@MEBADD@Z 0000000180011b30 f i addon.obj
 0001:00010b30       ?do_narrow@?$ctype@D@std@@MEBADDD@Z 0000000180011b30 f i addon.obj
 0001:00010b40       ?do_widen@?$ctype@D@std@@MEBAPEBDPEBD0PEAD@Z 0000000180011b40 f i addon.obj
 0001:00010b60       ?do_narrow@?$ctype@D@std@@MEBAPEBDPEBD0DPEAD@Z 0000000180011b60 f i addon.obj
 0001:00010b80       ??_G?$ctype@D@std@@MEAAPEAXI@Z 0000000180011b80 f i addon.obj
 0001:00010b80       ??_E?$ctype@D@std@@MEAAPEAXI@Z 0000000180011b80 f i * CIL library *:* CIL module *
 0001:00010bf0       ?default_error_condition@error_category@std@@UEBA?AVerror_condition@2@H@Z 0000000180011bf0 f i addon.obj
 0001:00010c00       ?equivalent@error_category@std@@UEBA_NHAEBVerror_condition@2@@Z 0000000180011c00 f i addon.obj
 0001:00010c60       ?equivalent@error_category@std@@UEBA_NAEBVerror_code@2@H@Z 0000000180011c60 f i addon.obj
 0001:00010c80       ?make_error_code@std@@YA?AVerror_code@1@W4io_errc@1@@Z 0000000180011c80 f i addon.obj
 0001:00010d20       ?_Makestr@_System_error@std@@CA?AV?$basic_string@DU?$char_traits@D@std@@V?$allocator@D@2@@2@Verror_code@2@V32@@Z 0000000180011d20 f i addon.obj
 0001:00010ed0       ??0_System_error@std@@IEAA@Verror_code@1@AEBV?$basic_string@DU?$char_traits@D@std@@V?$allocator@D@2@@1@@Z 0000000180011ed0 f i addon.obj
 0001:00010fb0       ??_Esystem_error@std@@UEAAPEAXI@Z 0000000180011fb0 f i * CIL library *:* CIL module *
 0001:00010fb0       ??_Efailure@ios_base@std@@UEAAPEAXI@Z 0000000180011fb0 f i * CIL library *:* CIL module *
 0001:00010fb0       ??_Gfailure@ios_base@std@@UEAAPEAXI@Z 0000000180011fb0 f i addon.obj
 0001:00010fb0       ??_E_System_error@std@@UEAAPEAXI@Z 0000000180011fb0 f i * CIL library *:* CIL module *
 0001:00010fb0       ??_Gsystem_error@std@@UEAAPEAXI@Z 0000000180011fb0 f i addon.obj
 0001:00010fb0       ??_G_System_error@std@@UEAAPEAXI@Z 0000000180011fb0 f i addon.obj
 0001:00010fe0       ??1system_error@std@@UEAA@XZ 0000000180011fe0 f i addon.obj
 0001:00010ff0       ?name@_Generic_error_category@std@@UEBAPEBDXZ 0000000180011ff0 f i addon.obj
 0001:00011000       ?message@_Generic_error_category@std@@UEBA?AV?$basic_string@DU?$char_traits@D@std@@V?$allocator@D@2@@2@H@Z 0000000180012000 f i addon.obj
 0001:00011050       ??_G_Generic_error_category@std@@UEAAPEAXI@Z 0000000180012050 f i addon.obj
 0001:00011050       ??_E_Generic_error_category@std@@UEAAPEAXI@Z 0000000180012050 f i * CIL library *:* CIL module *
 0001:00011050       ??_G_Iostream_error_category@std@@UEAAPEAXI@Z 0000000180012050 f i addon.obj
 0001:00011050       ??_E_Iostream_error_category@std@@UEAAPEAXI@Z 0000000180012050 f i * CIL library *:* CIL module *
 0001:00011080       ?name@_Iostream_error_category@std@@UEBAPEBDXZ 0000000180012080 f i addon.obj
 0001:00011090       ?message@_Iostream_error_category@std@@UEBA?AV?$basic_string@DU?$char_traits@D@std@@V?$allocator@D@2@@2@H@Z 0000000180012090 f i addon.obj
 0001:00011110       ??0failure@ios_base@std@@QEAA@PEBDAEBVerror_code@2@@Z 0000000180012110 f i addon.obj
 0001:00011280       ?clear@ios_base@std@@QEAAXH_N@Z 0000000180012280 f i addon.obj
 0001:00011320       ?end@HttpResponse@uWS@@QEAAXPEBD_KP6AXPEAX2_N2@Z2@Z 0000000180012320 f i addon.obj
 0001:000115d0       ?NODE_SET_METHOD@node@@YAXV?$Local@VObject@v8@@@v8@@PEBDP6AXAEBV?$FunctionCallbackInfo@VValue@v8@@@3@@Z@Z 00000001800125d0 f i addon.obj
 0001:00011740       ??0NativeString@@QEAA@AEBV?$Local@VValue@v8@@@v8@@@Z 0000000180012740 f i addon.obj
 0001:00011890       ?connect@@YAXAEBV?$FunctionCallbackInfo@VValue@v8@@@v8@@@Z 0000000180012890 f   addon.obj
 0001:00011a00       ?upgrade@@YAXAEBV?$FunctionCallbackInfo@VValue@v8@@@v8@@@Z 0000000180012a00 f   addon.obj
 0001:00011be0       ?transfer@@YAXAEBV?$FunctionCallbackInfo@VValue@v8@@@v8@@@Z 0000000180012be0 f   addon.obj
 0001:00011e20       ?onError@@YAXAEBV?$FunctionCallbackInfo@VValue@v8@@@v8@@@Z 0000000180012e20 f   addon.obj
 0001:00011f00       ?forEach@@YAXAEBV?$FunctionCallbackInfo@VValue@v8@@@v8@@@Z 0000000180012f00 f   addon.obj
 0001:00011f80       ?getSize@@YAXAEBV?$FunctionCallbackInfo@VValue@v8@@@v8@@@Z 0000000180012f80 f   addon.obj
 0001:00011ff0       ?startAutoPing@@YAXAEBV?$FunctionCallbackInfo@VValue@v8@@@v8@@@Z 0000000180012ff0 f   addon.obj
 0001:000120f0       ?setNoop@@YAXAEBV?$FunctionCallbackInfo@VValue@v8@@@v8@@@Z 00000001800130f0 f   addon.obj
 0001:00012160       ?listen@@YAXAEBV?$FunctionCallbackInfo@VValue@v8@@@v8@@@Z 0000000180013160 f   addon.obj
 0001:000121f0       ?on@Request@HttpServer@@SAXAEBV?$FunctionCallbackInfo@VValue@v8@@@v8@@@Z 00000001800131f0 f i addon.obj
 0001:00012500       ?headers@Request@HttpServer@@SAXV?$Local@VString@v8@@@v8@@AEBV?$PropertyCallbackInfo@VValue@v8@@@4@@Z 0000000180013500 f i addon.obj
 0001:00012660       ?url@Request@HttpServer@@SAXV?$Local@VString@v8@@@v8@@AEBV?$PropertyCallbackInfo@VValue@v8@@@4@@Z 0000000180013660 f i addon.obj
 0001:000126e0       ?method@Request@HttpServer@@SAXV?$Local@VString@v8@@@v8@@AEBV?$PropertyCallbackInfo@VValue@v8@@@4@@Z 00000001800136e0 f i addon.obj
 0001:00012830       ?socket@Request@HttpServer@@SAXAEBV?$FunctionCallbackInfo@VValue@v8@@@v8@@@Z 0000000180013830 f i addon.obj
 0001:00012870       ?getTemplateObject@Request@HttpServer@@SA?AV?$Local@VObject@v8@@@v8@@PEAVIsolate@4@@Z 0000000180013870 f i addon.obj
 0001:00012c00       ?on@Response@HttpServer@@SAXAEBV?$FunctionCallbackInfo@VValue@v8@@@v8@@@Z 0000000180013c00 f i addon.obj
 0001:00012e30       ?end@Response@HttpServer@@SAXAEBV?$FunctionCallbackInfo@VValue@v8@@@v8@@@Z 0000000180013e30 f i addon.obj
 0001:00012f20       ?writeHead@Response@HttpServer@@SAXAEBV?$FunctionCallbackInfo@VValue@v8@@@v8@@@Z 0000000180013f20 f i addon.obj
 0001:00013980       ?write@Response@HttpServer@@SAXAEBV?$FunctionCallbackInfo@VValue@v8@@@v8@@@Z 0000000180014980 f i addon.obj
 0001:00013a40       ?getTemplateObject@Response@HttpServer@@SA?AV?$Local@VObject@v8@@@v8@@PEAVIsolate@4@@Z 0000000180014a40 f i addon.obj
 0001:00013d90       ?createServer@HttpServer@@SAXAEBV?$FunctionCallbackInfo@VValue@v8@@@v8@@@Z 0000000180014d90 f i addon.obj
 0001:00014530       ?on@HttpServer@@SAXAEBV?$FunctionCallbackInfo@VValue@v8@@@v8@@@Z 0000000180015530 f i addon.obj
 0001:00014660       ?listen@HttpServer@@SAXAEBV?$FunctionCallbackInfo@VValue@v8@@@v8@@@Z 0000000180015660 f i addon.obj
 0001:00014940       ?getExpressApp@HttpServer@@SAXAEBV?$FunctionCallbackInfo@VValue@v8@@@v8@@@Z 0000000180015940 f i addon.obj
 0001:00014b00       ?getResponsePrototype@HttpServer@@SAXAEBV?$FunctionCallbackInfo@VValue@v8@@@v8@@@Z 0000000180015b00 f i addon.obj
 0001:00014b60       ?getRequestPrototype@HttpServer@@SAXAEBV?$FunctionCallbackInfo@VValue@v8@@@v8@@@Z 0000000180015b60 f i addon.obj
 0001:00014bc0       ?getHttpServer@HttpServer@@SA?AV?$Local@VFunction@v8@@@v8@@PEAVIsolate@3@@Z 0000000180015bc0 f i addon.obj
 0001:00014f40       ?Main@@YAXV?$Local@VObject@v8@@@v8@@@Z 0000000180015f40 f   addon.obj
 0001:000156d0       ??0?$Namespace@$00@@QEAA@PEAVIsolate@v8@@@Z 00000001800166d0 f i addon.obj
 0001:00015930       ??0?$basic_string@DU?$char_traits@D@std@@V?$allocator@D@2@@std@@QEAA@_KD@Z 0000000180016930 f i addon.obj
 0001:00015960       ??0sentry@?$basic_ostream@DU?$char_traits@D@std@@@std@@QEAA@AEAV12@@Z 0000000180016960 f i addon.obj
 0001:000159d0       ?do_put@?$num_put@DV?$ostreambuf_iterator@DU?$char_traits@D@std@@@std@@@std@@MEBA?AV?$ostreambuf_iterator@DU?$char_traits@D@std@@@2@V32@AEAVios_base@2@DPEBX@Z 00000001800169d0 f i addon.obj
 0001:00015a70       ?do_put@?$num_put@DV?$ostreambuf_iterator@DU?$char_traits@D@std@@@std@@@std@@MEBA?AV?$ostreambuf_iterator@DU?$char_traits@D@std@@@2@V32@AEAVios_base@2@DO@Z 0000000180016a70 f i addon.obj
 0001:00015d60       ?do_put@?$num_put@DV?$ostreambuf_iterator@DU?$char_traits@D@std@@@std@@@std@@MEBA?AV?$ostreambuf_iterator@DU?$char_traits@D@std@@@2@V32@AEAVios_base@2@DN@Z 0000000180016d60 f i addon.obj
 0001:00016040       ?do_put@?$num_put@DV?$ostreambuf_iterator@DU?$char_traits@D@std@@@std@@@std@@MEBA?AV?$ostreambuf_iterator@DU?$char_traits@D@std@@@2@V32@AEAVios_base@2@D_K@Z 0000000180017040 f i addon.obj
 0001:00016160       ?do_put@?$num_put@DV?$ostreambuf_iterator@DU?$char_traits@D@std@@@std@@@std@@MEBA?AV?$ostreambuf_iterator@DU?$char_traits@D@std@@@2@V32@AEAVios_base@2@D_J@Z 0000000180017160 f i addon.obj
 0001:00016280       ?do_put@?$num_put@DV?$ostreambuf_iterator@DU?$char_traits@D@std@@@std@@@std@@MEBA?AV?$ostreambuf_iterator@DU?$char_traits@D@std@@@2@V32@AEAVios_base@2@DK@Z 0000000180017280 f i addon.obj
 0001:000163a0       ?do_put@?$num_put@DV?$ostreambuf_iterator@DU?$char_traits@D@std@@@std@@@std@@MEBA?AV?$ostreambuf_iterator@DU?$char_traits@D@std@@@2@V32@AEAVios_base@2@DJ@Z 00000001800173a0 f i addon.obj
 0001:000164c0       ?do_put@?$num_put@DV?$ostreambuf_iterator@DU?$char_traits@D@std@@@std@@@std@@MEBA?AV?$ostreambuf_iterator@DU?$char_traits@D@std@@@2@V32@AEAVios_base@2@D_N@Z 00000001800174c0 f i addon.obj
 0001:00016960       ?assign@?$basic_string@DU?$char_traits@D@std@@V?$allocator@D@2@@std@@QEAAAEAV12@_KD@Z 0000000180017960 f i addon.obj
 0001:00016ae0       ?setstate@?$basic_ios@DU?$char_traits@D@std@@@std@@QEAAXH_N@Z 0000000180017ae0 f i addon.obj
 0001:00016b90       ??_G?$codecvt@DDU_Mbstatet@@@std@@MEAAPEAXI@Z 0000000180017b90 f i libcpmt:cout.obj
 0001:00016b90       ??_G?$num_put@DV?$ostreambuf_iterator@DU?$char_traits@D@std@@@std@@@std@@MEAAPEAXI@Z 0000000180017b90 f i addon.obj
 0001:00016b90       ??_E?$codecvt@DDU_Mbstatet@@@std@@MEAAPEAXI@Z 0000000180017b90 f i libcpmt:cout.obj
 0001:00016b90       ??_E?$num_put@DV?$ostreambuf_iterator@DU?$char_traits@D@std@@@std@@@std@@MEAAPEAXI@Z 0000000180017b90 f i * CIL library *:* CIL module *
 0001:00016bc0       ?do_truename@?$numpunct@D@std@@MEBA?AV?$basic_string@DU?$char_traits@D@std@@V?$allocator@D@2@@2@XZ 0000000180017bc0 f i addon.obj
 0001:00016c00       ?do_falsename@?$numpunct@D@std@@MEBA?AV?$basic_string@DU?$char_traits@D@std@@V?$allocator@D@2@@2@XZ 0000000180017c00 f i addon.obj
 0001:00016c40       ?do_grouping@?$numpunct@D@std@@MEBA?AV?$basic_string@DU?$char_traits@D@std@@V?$allocator@D@2@@2@XZ 0000000180017c40 f i addon.obj
 0001:00016c80       ?do_thousands_sep@?$numpunct@D@std@@MEBADXZ 0000000180017c80 f i addon.obj
 0001:00016c90       ?do_decimal_point@?$numpunct@D@std@@MEBADXZ 0000000180017c90 f i addon.obj
 0001:00016ca0       ?_Iput@?$num_put@DV?$ostreambuf_iterator@DU?$char_traits@D@std@@@std@@@std@@AEBA?AV?$ostreambuf_iterator@DU?$char_traits@D@std@@@2@V32@AEAVios_base@2@DPEAD_K@Z 0000000180017ca0 f i addon.obj
 0001:000173b0       ?_Fput@?$num_put@DV?$ostreambuf_iterator@DU?$char_traits@D@std@@@std@@@std@@AEBA?AV?$ostreambuf_iterator@DU?$char_traits@D@std@@@2@V32@AEAVios_base@2@DPEBD_K@Z 00000001800183b0 f i addon.obj
 0001:00017b60       ?flush@?$basic_ostream@DU?$char_traits@D@std@@@std@@QEAAAEAV12@XZ 0000000180018b60 f i addon.obj
 0001:00017cc0       ??_E?$numpunct@D@std@@MEAAPEAXI@Z 0000000180018cc0 f i * CIL library *:* CIL module *
 0001:00017cc0       ??_G?$numpunct@D@std@@MEAAPEAXI@Z 0000000180018cc0 f i addon.obj
 0001:00017d20       ??$use_facet@V?$ctype@D@std@@@std@@YAAEBV?$ctype@D@0@AEBVlocale@0@@Z 0000000180018d20 f i addon.obj
 0001:00017f30       ??$sendTransformed@UNoopTransformer@?1??write@HttpResponse@uWS@@QEAAXPEBD_KP6AXPEAX2_N2@Z2@Z@H@Socket@uS@@IEAAXPEBD_KP6AXPEAX2_N2@Z2H@Z 0000000180018f30 f i addon.obj
 0001:000184b0       ??$?6U?$char_traits@D@std@@@std@@YAAEAV?$basic_ostream@DU?$char_traits@D@std@@@0@AEAV10@PEBD@Z 00000001800194b0 f i addon.obj
 0001:00018760       ??$endl@DU?$char_traits@D@std@@@std@@YAAEAV?$basic_ostream@DU?$char_traits@D@std@@@0@AEAV10@@Z 0000000180019760 f i addon.obj
 0001:00018900       ??$setUserData@$00@@YAXAEBV?$FunctionCallbackInfo@VValue@v8@@@v8@@@Z 0000000180019900 f i addon.obj
 0001:000189f0       ??$getUserData@$00@@YAXAEBV?$FunctionCallbackInfo@VValue@v8@@@v8@@@Z 00000001800199f0 f i addon.obj
 0001:00018a80       ??$clearUserData@$00@@YAXAEBV?$FunctionCallbackInfo@VValue@v8@@@v8@@@Z 0000000180019a80 f i addon.obj
 0001:00018af0       ??$getAddress@$00@@YAXAEBV?$FunctionCallbackInfo@VValue@v8@@@v8@@@Z 0000000180019af0 f i addon.obj
 0001:00018c00       ??$send@$0A@@@YAXAEBV?$FunctionCallbackInfo@VValue@v8@@@v8@@@Z 0000000180019c00 f i addon.obj
 0001:00018d80       ??$closeSocket@$0A@@@YAXAEBV?$FunctionCallbackInfo@VValue@v8@@@v8@@@Z 0000000180019d80 f i addon.obj
 0001:00018e70       ??$terminateSocket@$0A@@@YAXAEBV?$FunctionCallbackInfo@VValue@v8@@@v8@@@Z 0000000180019e70 f i addon.obj
 0001:00018eb0       ??$prepareMessage@$0A@@@YAXAEBV?$FunctionCallbackInfo@VValue@v8@@@v8@@@Z 0000000180019eb0 f i addon.obj
 0001:00018fb0       ??$sendPrepared@$00@@YAXAEBV?$FunctionCallbackInfo@VValue@v8@@@v8@@@Z 0000000180019fb0 f i addon.obj
 0001:00018fb0       ??$sendPrepared@$0A@@@YAXAEBV?$FunctionCallbackInfo@VValue@v8@@@v8@@@Z 0000000180019fb0 f i addon.obj
 0001:00019020       ??$finalizeMessage@$00@@YAXAEBV?$FunctionCallbackInfo@VValue@v8@@@v8@@@Z 000000018001a020 f i addon.obj
 0001:00019020       ??$finalizeMessage@$0A@@@YAXAEBV?$FunctionCallbackInfo@VValue@v8@@@v8@@@Z 000000018001a020 f i addon.obj
 0001:00019070       ??$onConnection@$0A@@@YAXAEBV?$FunctionCallbackInfo@VValue@v8@@@v8@@@Z 000000018001a070 f i addon.obj
 0001:00019160       ??$onMessage@$0A@@@YAXAEBV?$FunctionCallbackInfo@VValue@v8@@@v8@@@Z 000000018001a160 f i addon.obj
 0001:00019240       ??$onDisconnection@$0A@@@YAXAEBV?$FunctionCallbackInfo@VValue@v8@@@v8@@@Z 000000018001a240 f i addon.obj
 0001:00019340       ??$onPing@$0A@@@YAXAEBV?$FunctionCallbackInfo@VValue@v8@@@v8@@@Z 000000018001a340 f i addon.obj
 0001:00019440       ??$onPong@$0A@@@YAXAEBV?$FunctionCallbackInfo@VValue@v8@@@v8@@@Z 000000018001a440 f i addon.obj
 0001:00019540       ??$createGroup@$0A@@@YAXAEBV?$FunctionCallbackInfo@VValue@v8@@@v8@@@Z 000000018001a540 f i addon.obj
 0001:00019650       ??$deleteGroup@$00@@YAXAEBV?$FunctionCallbackInfo@VValue@v8@@@v8@@@Z 000000018001a650 f i addon.obj
 0001:00019650       ??$deleteGroup@$0A@@@YAXAEBV?$FunctionCallbackInfo@VValue@v8@@@v8@@@Z 000000018001a650 f i addon.obj
 0001:000196b0       ??$closeGroup@$0A@@@YAXAEBV?$FunctionCallbackInfo@VValue@v8@@@v8@@@Z 000000018001a6b0 f i addon.obj
 0001:000197a0       ??$terminateGroup@$0A@@@YAXAEBV?$FunctionCallbackInfo@VValue@v8@@@v8@@@Z 000000018001a7a0 f i addon.obj
 0001:000197e0       ??$broadcast@$0A@@@YAXAEBV?$FunctionCallbackInfo@VValue@v8@@@v8@@@Z 000000018001a7e0 f i addon.obj
 0001:000198d0       ??$send@$00@@YAXAEBV?$FunctionCallbackInfo@VValue@v8@@@v8@@@Z 000000018001a8d0 f i addon.obj
 0001:00019a50       ??$closeSocket@$00@@YAXAEBV?$FunctionCallbackInfo@VValue@v8@@@v8@@@Z 000000018001aa50 f i addon.obj
 0001:00019b40       ??$terminateSocket@$00@@YAXAEBV?$FunctionCallbackInfo@VValue@v8@@@v8@@@Z 000000018001ab40 f i addon.obj
 0001:00019b80       ??$prepareMessage@$00@@YAXAEBV?$FunctionCallbackInfo@VValue@v8@@@v8@@@Z 000000018001ab80 f i addon.obj
 0001:00019c80       ??$onConnection@$00@@YAXAEBV?$FunctionCallbackInfo@VValue@v8@@@v8@@@Z 000000018001ac80 f i addon.obj
 0001:00019d70       ??$onMessage@$00@@YAXAEBV?$FunctionCallbackInfo@VValue@v8@@@v8@@@Z 000000018001ad70 f i addon.obj
 0001:00019e50       ??$onDisconnection@$00@@YAXAEBV?$FunctionCallbackInfo@VValue@v8@@@v8@@@Z 000000018001ae50 f i addon.obj
 0001:00019f50       ??$onPing@$00@@YAXAEBV?$FunctionCallbackInfo@VValue@v8@@@v8@@@Z 000000018001af50 f i addon.obj
 0001:0001a050       ??$onPong@$00@@YAXAEBV?$FunctionCallbackInfo@VValue@v8@@@v8@@@Z 000000018001b050 f i addon.obj
 0001:0001a150       ??$createGroup@$00@@YAXAEBV?$FunctionCallbackInfo@VValue@v8@@@v8@@@Z 000000018001b150 f i addon.obj
 0001:0001a260       ??$closeGroup@$00@@YAXAEBV?$FunctionCallbackInfo@VValue@v8@@@v8@@@Z 000000018001b260 f i addon.obj
 0001:0001a350       ??$terminateGroup@$00@@YAXAEBV?$FunctionCallbackInfo@VValue@v8@@@v8@@@Z 000000018001b350 f i addon.obj
 0001:0001a390       ??$broadcast@$00@@YAXAEBV?$FunctionCallbackInfo@VValue@v8@@@v8@@@Z 000000018001b390 f i addon.obj
 0001:0001a480       ??$use_facet@V?$num_put@DV?$ostreambuf_iterator@DU?$char_traits@D@std@@@std@@@std@@@std@@YAAEBV?$num_put@DV?$ostreambuf_iterator@DU?$char_traits@D@std@@@std@@@0@AEBVlocale@0@@Z 000000018001b480 f i addon.obj
 0001:0001a670       ??$use_facet@V?$numpunct@D@std@@@std@@YAAEBV?$numpunct@D@0@AEBVlocale@0@@Z 000000018001b670 f i addon.obj
 0001:0001a980       ?_Getcat@?$numpunct@D@std@@SA_KPEAPEBVfacet@locale@2@PEBV42@@Z 000000018001b980 f i addon.obj
 0001:0001ab80       ?widen@?$basic_ios@DU?$char_traits@D@std@@@std@@QEBADD@Z 000000018001bb80 f i addon.obj
 0001:0001ac20       ??$_Immortalize_impl@V_Iostream_error_category@std@@@std@@YAHPEAX0PEAPEAX@Z 000000018001bc20 f i addon.obj
 0001:0001ac40       ??$_Insert_string@DU?$char_traits@D@std@@_K@std@@YAAEAV?$basic_ostream@DU?$char_traits@D@std@@@0@AEAV10@QEBD_K@Z 000000018001bc40 f i addon.obj
 0001:0001aef0       ??$sendCallback@$00@@YAXPEAU?$WebSocket@$00@uWS@@PEAX_N1@Z 000000018001bef0 f i addon.obj
 0001:0001aef0       ??$sendCallback@$0A@@@YAXPEAU?$WebSocket@$0A@@uWS@@PEAX_N1@Z 000000018001bef0 f i addon.obj
 0001:0001bb3c       __imp_load_uv_close        000000018001cb3c f   node:node.exe
 0001:0001bb48       __tailMerge_node_exe       000000018001cb48     node:node.exe
 0001:0001bbc1       __imp_load_SSL_free        000000018001cbc1 f   node:node.exe
 0001:0001bbcd       __imp_load_uv_poll_stop    000000018001cbcd f   node:node.exe
 0001:0001bbd9       __imp_load_uv_timer_init   000000018001cbd9 f   node:node.exe
 0001:0001bbe5       __imp_load_uv_timer_stop   000000018001cbe5 f   node:node.exe
 0001:0001bbf1       __imp_load_inflateEnd      000000018001cbf1 f   node:node.exe
 0001:0001bbfd       __imp_load_SSL_set_fd      000000018001cbfd f   node:node.exe
 0001:0001bc09       __imp_load_uv_fileno       000000018001cc09 f   node:node.exe
 0001:0001bc15       __imp_load_inflateInit2_   000000018001cc15 f   node:node.exe
 0001:0001bc21       __imp_load_uv_timer_start  000000018001cc21 f   node:node.exe
 0001:0001bc2d       __imp_load_uv_poll_init_socket 000000018001cc2d f   node:node.exe
 0001:0001bc39       __imp_load_SSL_write       000000018001cc39 f   node:node.exe
 0001:0001bc45       __imp_load_SSL_ctrl        000000018001cc45 f   node:node.exe
 0001:0001bc51       __imp_load_uv_async_send   000000018001cc51 f   node:node.exe
 0001:0001bc5d       __imp_load_uv_poll_start   000000018001cc5d f   node:node.exe
 0001:0001bc69       __imp_load_uv_async_init   000000018001cc69 f   node:node.exe
 0001:0001bc75       __imp_load_SSL_shutdown    000000018001cc75 f   node:node.exe
 0001:0001bc81       __imp_load_SSL_get_error   000000018001cc81 f   node:node.exe
 0001:0001bc8d       __imp_load_SSL_CTX_set_default_passwd_cb 000000018001cc8d f   node:node.exe
 0001:0001bc99       __imp_load_SSL_CTX_free    000000018001cc99 f   node:node.exe
 0001:0001bca5       __imp_load_SSL_CTX_ctrl    000000018001cca5 f   node:node.exe
 0001:0001bcb1       __imp_load_SSL_library_init 000000018001ccb1 f   node:node.exe
 0001:0001bcbd       __imp_load_SSL_CTX_use_PrivateKey_file 000000018001ccbd f   node:node.exe
 0001:0001bcc9       __imp_load_SSL_CTX_new     000000018001ccc9 f   node:node.exe
 0001:0001bcd5       __imp_load_SSL_CTX_set_default_passwd_cb_userdata 000000018001ccd5 f   node:node.exe
 0001:0001bce1       __imp_load_SSLv23_server_method 000000018001cce1 f   node:node.exe
 0001:0001bced       __imp_load_SSL_CTX_use_certificate_chain_file 000000018001cced f   node:node.exe
 0001:0001bcf9       __imp_load_SSL_new         000000018001ccf9 f   node:node.exe
 0001:0001bd05       __imp_load_SSL_want        000000018001cd05 f   node:node.exe
 0001:0001bd11       __imp_load_uv_is_closing   000000018001cd11 f   node:node.exe
 0001:0001bd1d       __imp_load_inflate         000000018001cd1d f   node:node.exe
 0001:0001bd29       __imp_load_SSL_pending     000000018001cd29 f   node:node.exe
 0001:0001bd35       __imp_load_SSL_read        000000018001cd35 f   node:node.exe
 0001:0001bd41       __imp_load_SSL_set_accept_state 000000018001cd41 f   node:node.exe
 0001:0001bd4d       __imp_load_inflateReset    000000018001cd4d f   node:node.exe
 0001:0001bd59       __imp_load_SSL_set_connect_state 000000018001cd59 f   node:node.exe
 0001:0001bd65       __imp_load_uv_run          000000018001cd65 f   node:node.exe
 0001:0001bd71       __imp_load_uv_loop_new     000000018001cd71 f   node:node.exe
 0001:0001bd7d       __imp_load_SSLv23_client_method 000000018001cd7d f   node:node.exe
 0001:0001bd89       __imp_load_uv_loop_delete  000000018001cd89 f   node:node.exe
 0001:0001bd95       __imp_load_uv_default_loop 000000018001cd95 f   node:node.exe
 0001:0001bda1       __imp_load_SHA1            000000018001cda1 f   node:node.exe
 0001:0001bdad       __imp_load_uv_unref        000000018001cdad f   node:node.exe
 0001:0001bdb9       __imp_load_?Global@Context@v8@@QEAA?AV?$Local@VObject@v8@@@2@XZ 000000018001cdb9 f   node:node.exe
 0001:0001bdc5       __imp_load_?Value@External@v8@@QEBAPEAXXZ 000000018001cdc5 f   node:node.exe
 0001:0001bdd1       __imp_load_?New@External@v8@@SA?AV?$Local@VExternal@v8@@@2@PEAVIsolate@2@PEAX@Z 000000018001cdd1 f   node:node.exe
 0001:0001bddd       __imp_load_?New@Integer@v8@@SA?AV?$Local@VInteger@v8@@@2@PEAVIsolate@2@H@Z 000000018001cddd f   node:node.exe
 0001:0001bde9       __imp_load_?GetCurrentContext@Isolate@v8@@QEAA?AV?$Local@VContext@v8@@@2@XZ 000000018001cde9 f   node:node.exe
 0001:0001bdf5       __imp_load_?GetCurrent@Isolate@v8@@SAPEAV12@XZ 000000018001cdf5 f   node:node.exe
 0001:0001be01       __imp_load_?CreateHandle@HandleScope@v8@@KAPEAPEAVObject@internal@2@PEAVIsolate@42@PEAV342@@Z 000000018001ce01 f   node:node.exe
 0001:0001be0d       __imp_load_?CreateHandle@HandleScope@v8@@CAPEAPEAVObject@internal@2@PEAVHeapObject@42@PEAV342@@Z 000000018001ce0d f   node:node.exe
 0001:0001be19       __imp_load_??1HandleScope@v8@@QEAA@XZ 000000018001ce19 f   node:node.exe
 0001:0001be25       __imp_load_??0HandleScope@v8@@QEAA@PEAVIsolate@1@@Z 000000018001ce25 f   node:node.exe
 0001:0001be31       __imp_load_?Set@Template@v8@@QEAAXV?$Local@VName@v8@@@2@V?$Local@VData@v8@@@2@W4PropertyAttribute@2@@Z 000000018001ce31 f   node:node.exe
 0001:0001be3d       __imp_load_?Buffer@ArrayBufferView@v8@@QEAA?AV?$Local@VArrayBuffer@v8@@@2@XZ 000000018001ce3d f   node:node.exe
 0001:0001be49       __imp_load_?New@Array@v8@@SA?AV?$Local@VArray@v8@@@2@PEAVIsolate@2@H@Z 000000018001ce49 f   node:node.exe
 0001:0001be55       __imp_load_?Length@Array@v8@@QEBAIXZ 000000018001ce55 f   node:node.exe
 0001:0001be61       __imp_load_?SetClassName@FunctionTemplate@v8@@QEAAXV?$Local@VString@v8@@@2@@Z 000000018001ce61 f   node:node.exe
 0001:0001be6d       __imp_load_?PrototypeTemplate@FunctionTemplate@v8@@QEAA?AV?$Local@VObjectTemplate@v8@@@2@XZ 000000018001ce6d f   node:node.exe
 0001:0001be79       __imp_load_?InstanceTemplate@FunctionTemplate@v8@@QEAA?AV?$Local@VObjectTemplate@v8@@@2@XZ 000000018001ce79 f   node:node.exe
 0001:0001be85       __imp_load_?GetFunction@FunctionTemplate@v8@@QEAA?AV?$Local@VFunction@v8@@@2@XZ 000000018001ce85 f   node:node.exe
 0001:0001be91       __imp_load_?New@FunctionTemplate@v8@@SA?AV?$Local@VFunctionTemplate@v8@@@2@PEAVIsolate@2@P6AXAEBV?$FunctionCallbackInfo@VValue@v8@@@2@@ZV?$Local@VValue@v8@@@2@V?$Local@VSignature@v8@@@2@HW4ConstructorBehavior@2@@Z 000000018001ce91 f   node:node.exe
 0001:0001be9d       __imp_load_?GetContents@ArrayBuffer@v8@@QEAA?AVContents@12@XZ 000000018001ce9d f   node:node.exe
 0001:0001bea9       __imp_load_?New@ArrayBuffer@v8@@SA?AV?$Local@VArrayBuffer@v8@@@2@PEAVIsolate@2@PEAX_KW4ArrayBufferCreationMode@2@@Z 000000018001cea9 f   node:node.exe
 0001:0001beb5       __imp_load_?DisposeGlobal@V8@v8@@CAXPEAPEAVObject@internal@2@@Z 000000018001ceb5 f   node:node.exe
 0001:0001bec1       __imp_load_?GlobalizeReference@V8@v8@@CAPEAPEAVObject@internal@2@PEAVIsolate@42@PEAPEAV342@@Z 000000018001cec1 f   node:node.exe
 0001:0001becd       __imp_load_?IntegerValue@Value@v8@@QEBA_JXZ 000000018001cecd f   node:node.exe
 0001:0001bed9       __imp_load_?BooleanValue@Value@v8@@QEBA_NXZ 000000018001ced9 f   node:node.exe
 0001:0001bee5       __imp_load_?IsTypedArray@Value@v8@@QEBA_NXZ 000000018001cee5 f   node:node.exe
 0001:0001bef1       __imp_load_?IsArrayBuffer@Value@v8@@QEBA_NXZ 000000018001cef1 f   node:node.exe
 0001:0001befd       __imp_load_?IsExternal@Value@v8@@QEBA_NXZ 000000018001cefd f   node:node.exe
 0001:0001bf09       __imp_load_?IsObject@Value@v8@@QEBA_NXZ 000000018001cf09 f   node:node.exe
 0001:0001bf15       __imp_load_?IsFunction@Value@v8@@QEBA_NXZ 000000018001cf15 f   node:node.exe
 0001:0001bf21       __imp_load_??1Utf8Value@String@v8@@QEAA@XZ 000000018001cf21 f   node:node.exe
 0001:0001bf2d       __imp_load_??0Utf8Value@String@v8@@QEAA@V?$Local@VValue@v8@@@2@@Z 000000018001cf2d f   node:node.exe
 0001:0001bf39       __imp_load_?NewFromOneByte@String@v8@@SA?AV?$Local@VString@v8@@@2@PEAVIsolate@2@PEBEW4NewStringType@12@H@Z 000000018001cf39 f   node:node.exe
 0001:0001bf45       __imp_load_?NewFromUtf8@String@v8@@SA?AV?$Local@VString@v8@@@2@PEAVIsolate@2@PEBDW4NewStringType@12@H@Z 000000018001cf45 f   node:node.exe
 0001:0001bf51       __imp_load_?SlowGetAlignedPointerFromInternalField@Object@v8@@AEAAPEAXH@Z 000000018001cf51 f   node:node.exe
 0001:0001bf5d       __imp_load_?SlowGetInternalField@Object@v8@@AEAA?AV?$Local@VValue@v8@@@2@H@Z 000000018001cf5d f   node:node.exe
 0001:0001bf69       __imp_load_?New@Object@v8@@SA?AV?$Local@VObject@v8@@@2@PEAVIsolate@2@@Z 000000018001cf69 f   node:node.exe
 0001:0001bf75       __imp_load_?GetIsolate@Object@v8@@QEAAPEAVIsolate@2@XZ 000000018001cf75 f   node:node.exe
 0001:0001bf81       __imp_load_?Clone@Object@v8@@QEAA?AV?$Local@VObject@v8@@@2@XZ 000000018001cf81 f   node:node.exe
 0001:0001bf8d       __imp_load_?SetAlignedPointerInInternalField@Object@v8@@QEAAXHPEAX@Z 000000018001cf8d f   node:node.exe
 0001:0001bf99       __imp_load_?SetInternalField@Object@v8@@QEAAXHV?$Local@VValue@v8@@@2@@Z 000000018001cf99 f   node:node.exe
 0001:0001bfa5       __imp_load_?SetPrototype@Object@v8@@QEAA_NV?$Local@VValue@v8@@@2@@Z 000000018001cfa5 f   node:node.exe
 0001:0001bfb1       __imp_load_?GetPrototype@Object@v8@@QEAA?AV?$Local@VValue@v8@@@2@XZ 000000018001cfb1 f   node:node.exe
 0001:0001bfbd       __imp_load_?GetOwnPropertyNames@Object@v8@@QEAA?AV?$Local@VArray@v8@@@2@XZ 000000018001cfbd f   node:node.exe
 0001:0001bfc9       __imp_load_?Get@Object@v8@@QEAA?AV?$Local@VValue@v8@@@2@V32@@Z 000000018001cfc9 f   node:node.exe
 0001:0001bfd5       __imp_load_?Get@Object@v8@@QEAA?AV?$Local@VValue@v8@@@2@I@Z 000000018001cfd5 f   node:node.exe
 0001:0001bfe1       __imp_load_?Set@Object@v8@@QEAA_NV?$Local@VValue@v8@@@2@0@Z 000000018001cfe1 f   node:node.exe
 0001:0001bfed       __imp_load_?Set@Object@v8@@QEAA_NIV?$Local@VValue@v8@@@2@@Z 000000018001cfed f   node:node.exe
 0001:0001bff9       __imp_load_?SetName@Function@v8@@QEAAXV?$Local@VString@v8@@@2@@Z 000000018001cff9 f   node:node.exe
 0001:0001c005       __imp_load_?Call@Function@v8@@QEAA?AV?$Local@VValue@v8@@@2@V32@HQEAV32@@Z 000000018001d005 f   node:node.exe
 0001:0001c011       __imp_load_?NewInstance@Function@v8@@QEBA?AV?$Local@VObject@v8@@@2@XZ 000000018001d011 f   node:node.exe
 0001:0001c01d       __imp_load_?SetInternalFieldCount@ObjectTemplate@v8@@QEAAXH@Z 000000018001d01d f   node:node.exe
 0001:0001c029       __imp_load_?SetNamedPropertyHandler@ObjectTemplate@v8@@QEAAXP6AXV?$Local@VString@v8@@@2@AEBV?$PropertyCallbackInfo@VValue@v8@@@2@@ZP6AX0V?$Local@VValue@v8@@@2@1@ZP6AX0AEBV?$PropertyCallbackInfo@VInteger@v8@@@2@@ZP6AX0AEBV?$PropertyCallbackInfo@VBoolean@v8@@@2@@ZP6AXAEBV?$PropertyCallbackInfo@VArray@v8@@@2@@Z3@Z 000000018001d029 f   node:node.exe
 0001:0001c035       __imp_load_?SetAccessor@ObjectTemplate@v8@@QEAAXV?$Local@VString@v8@@@2@P6AX0AEBV?$PropertyCallbackInfo@VValue@v8@@@2@@ZP6AX0V?$Local@VValue@v8@@@2@AEBV?$PropertyCallbackInfo@X@2@@Z3W4AccessControl@2@W4PropertyAttribute@2@V?$Local@VAccessorSignature@v8@@@2@@Z 000000018001d035 f   node:node.exe
 0001:0001c041       __imp_load_?NewInstance@ObjectTemplate@v8@@QEAA?AV?$Local@VObject@v8@@@2@XZ 000000018001d041 f   node:node.exe
 0001:0001c04d       __imp_load_?New@ObjectTemplate@v8@@SA?AV?$Local@VObjectTemplate@v8@@@2@PEAVIsolate@2@V?$Local@VFunctionTemplate@v8@@@2@@Z 000000018001d04d f   node:node.exe
 0001:0001c059       __imp_load_node_module_register 000000018001d059 f   node:node.exe
 0001:0001c065       __imp_load_?HasInstance@Buffer@node@@YA_NV?$Local@VValue@v8@@@v8@@@Z 000000018001d065 f   node:node.exe
 0001:0001c071       __imp_load_?Data@Buffer@node@@YAPEADV?$Local@VValue@v8@@@v8@@@Z 000000018001d071 f   node:node.exe
 0001:0001c07d       __imp_load_?Length@Buffer@node@@YA_KV?$Local@VValue@v8@@@v8@@@Z 000000018001d07d f   node:node.exe
 0001:0001c089       __imp_load_?MakeCallback@node@@YA?AV?$Local@VValue@v8@@@v8@@PEAVIsolate@3@V?$Local@VObject@v8@@@3@V?$Local@VFunction@v8@@@3@HPEAV23@@Z 000000018001d089 f   node:node.exe
 0001:0001c095       __imp_load_uv_check_init   000000018001d095 f   node:node.exe
 0001:0001c0a1       __imp_load_uv_check_start  000000018001d0a1 f   node:node.exe
 0001:0001c0ad       __imp_load_?ToObject@Value@v8@@QEBA?AV?$Local@VObject@v8@@@2@XZ 000000018001d0ad f   node:node.exe
 0001:0001c0bc       ??0bad_alloc@std@@QEAA@AEBV01@@Z 000000018001d0bc f i libcpmt:xthrow.obj
 0001:0001c0fc       ??0bad_alloc@std@@QEAA@XZ  000000018001d0fc f i libcpmt:xthrow.obj
 0001:0001c11c       ??0bad_function_call@std@@QEAA@AEBV01@@Z 000000018001d11c f i libcpmt:xthrow.obj
 0001:0001c15c       ??0bad_function_call@std@@QEAA@XZ 000000018001d15c f i libcpmt:xthrow.obj
 0001:0001c174       ??0exception@std@@QEAA@AEBV01@@Z 000000018001d174 f i libcpmt:xthrow.obj
 0001:0001c1ac       ??0invalid_argument@std@@QEAA@AEBV01@@Z 000000018001d1ac f i libcpmt:xthrow.obj
 0001:0001c1ec       ??0invalid_argument@std@@QEAA@PEBD@Z 000000018001d1ec f i libcpmt:xthrow.obj
 0001:0001c238       ??0length_error@std@@QEAA@AEBV01@@Z 000000018001d238 f i libcpmt:xthrow.obj
 0001:0001c278       ??0length_error@std@@QEAA@PEBD@Z 000000018001d278 f i libcpmt:xthrow.obj
 0001:0001c2c4       ??0logic_error@std@@QEAA@AEBV01@@Z 000000018001d2c4 f i libcpmt:xthrow.obj
 0001:0001c304       ??0out_of_range@std@@QEAA@AEBV01@@Z 000000018001d304 f i libcpmt:xthrow.obj
 0001:0001c344       ??0out_of_range@std@@QEAA@PEBD@Z 000000018001d344 f i libcpmt:xthrow.obj
 0001:0001c390       ??0runtime_error@std@@QEAA@AEBV01@@Z 000000018001d390 f i libcpmt:xthrow.obj
 0001:0001c3d0       ??_Econtext_self_unblock@Concurrency@@UEAAPEAXI@Z 000000018001d3d0 f i libconcrt:Exceptions.obj
 0001:0001c3d0       ??_Ebad_exception@std@@UEAAPEAXI@Z 000000018001d3d0 f i libvcruntime:frame.obj
 0001:0001c3d0       ??_Ginvalid_scheduler_policy_key@Concurrency@@UEAAPEAXI@Z 000000018001d3d0 f i libconcrt:Exceptions.obj
 0001:0001c3d0       ??_Eimproper_scheduler_attach@Concurrency@@UEAAPEAXI@Z 000000018001d3d0 f i libconcrt:Exceptions.obj
 0001:0001c3d0       ??_Ebad_array_new_length@std@@UEAAPEAXI@Z 000000018001d3d0 f i LIBCMT:throw_bad_alloc.obj
 0001:0001c3d0       ??_Ginvalid_oversubscribe_operation@Concurrency@@UEAAPEAXI@Z 000000018001d3d0 f i libconcrt:Exceptions.obj
 0001:0001c3d0       ??_Ginvalid_scheduler_policy_thread_specification@Concurrency@@UEAAPEAXI@Z 000000018001d3d0 f i libconcrt:Exceptions.obj
 0001:0001c3d0       ??_Ginvalid_scheduler_policy_value@Concurrency@@UEAAPEAXI@Z 000000018001d3d0 f i libconcrt:Exceptions.obj
 0001:0001c3d0       ??_E_Interruption_exception@details@Concurrency@@UEAAPEAXI@Z 000000018001d3d0 f i libconcrt:TaskCollection.obj
 0001:0001c3d0       ??_Einvalid_oversubscribe_operation@Concurrency@@UEAAPEAXI@Z 000000018001d3d0 f i libconcrt:Exceptions.obj
 0001:0001c3d0       ??_Glength_error@std@@UEAAPEAXI@Z 000000018001d3d0 f i libcpmt:xthrow.obj
 0001:0001c3d0       ??_Ebad_typeid@std@@UEAAPEAXI@Z 000000018001d3d0 f i libvcruntime:rtti.obj
 0001:0001c3d0       ??_Eimproper_scheduler_reference@Concurrency@@UEAAPEAXI@Z 000000018001d3d0 f i libconcrt:Exceptions.obj
 0001:0001c3d0       ??_E__non_rtti_object@std@@UEAAPEAXI@Z 000000018001d3d0 f i libvcruntime:rtti.obj
 0001:0001c3d0       ??_Ginvalid_argument@std@@UEAAPEAXI@Z 000000018001d3d0 f i libcpmt:xthrow.obj
 0001:0001c3d0       ??_Eimproper_lock@Concurrency@@UEAAPEAXI@Z 000000018001d3d0 f i libconcrt:rtlocks.obj
 0001:0001c3d0       ??_Emissing_wait@Concurrency@@UEAAPEAXI@Z 000000018001d3d0 f i libconcrt:Exceptions.obj
 0001:0001c3d0       ??_Ginvalid_operation@Concurrency@@UEAAPEAXI@Z 000000018001d3d0 f i libconcrt:ResourceManager.obj
 0001:0001c3d0       ??_Elogic_error@std@@UEAAPEAXI@Z 000000018001d3d0 f i libcpmt:xthrow.obj
 0001:0001c3d0       ??_G_Interruption_exception@details@Concurrency@@UEAAPEAXI@Z 000000018001d3d0 f i libconcrt:TaskCollection.obj
 0001:0001c3d0       ??_Elength_error@std@@UEAAPEAXI@Z 000000018001d3d0 f i libcpmt:xthrow.obj
 0001:0001c3d0       ??_Ebad_cast@std@@UEAAPEAXI@Z 000000018001d3d0 f i libcpmt:cout.obj
 0001:0001c3d0       ??_Econtext_unblock_unbalanced@Concurrency@@UEAAPEAXI@Z 000000018001d3d0 f i libconcrt:Exceptions.obj
 0001:0001c3d0       ??_Einvalid_argument@std@@UEAAPEAXI@Z 000000018001d3d0 f i libcpmt:xthrow.obj
 0001:0001c3d0       ??_Gimproper_scheduler_reference@Concurrency@@UEAAPEAXI@Z 000000018001d3d0 f i libconcrt:Exceptions.obj
 0001:0001c3d0       ??_Gout_of_range@std@@UEAAPEAXI@Z 000000018001d3d0 f i libcpmt:xthrow.obj
 0001:0001c3d0       ??_Gbad_alloc@std@@UEAAPEAXI@Z 000000018001d3d0 f i libcpmt:xthrow.obj
 0001:0001c3d0       ??_Gimproper_scheduler_attach@Concurrency@@UEAAPEAXI@Z 000000018001d3d0 f i libconcrt:Exceptions.obj
 0001:0001c3d0       ??_Glogic_error@std@@UEAAPEAXI@Z 000000018001d3d0 f i libcpmt:xthrow.obj
 0001:0001c3d0       ??_Gimproper_lock@Concurrency@@UEAAPEAXI@Z 000000018001d3d0 f i libconcrt:rtlocks.obj
 0001:0001c3d0       ??_Ebad_function_call@std@@UEAAPEAXI@Z 000000018001d3d0 f i libcpmt:xthrow.obj
 0001:0001c3d0       ??_Einvalid_scheduler_policy_thread_specification@Concurrency@@UEAAPEAXI@Z 000000018001d3d0 f i libconcrt:Exceptions.obj
 0001:0001c3d0       ??_G__non_rtti_object@std@@UEAAPEAXI@Z 000000018001d3d0 f i libvcruntime:rtti.obj
 0001:0001c3d0       ??_Gbad_cast@std@@UEAAPEAXI@Z 000000018001d3d0 f i libcpmt:cout.obj
 0001:0001c3d0       ??_Eunsupported_os@Concurrency@@UEAAPEAXI@Z 000000018001d3d0 f i libconcrt:Exceptions.obj
 0001:0001c3d0       ??_Gmissing_wait@Concurrency@@UEAAPEAXI@Z 000000018001d3d0 f i libconcrt:Exceptions.obj
 0001:0001c3d0       ??_Gbad_array_new_length@std@@UEAAPEAXI@Z 000000018001d3d0 f i LIBCMT:throw_bad_alloc.obj
 0001:0001c3d0       ??_Gnested_scheduler_missing_detach@Concurrency@@UEAAPEAXI@Z 000000018001d3d0 f i libconcrt:Exceptions.obj
 0001:0001c3d0       ??_Einvalid_operation@Concurrency@@UEAAPEAXI@Z 000000018001d3d0 f i libconcrt:ResourceManager.obj
 0001:0001c3d0       ??_Ebad_alloc@std@@UEAAPEAXI@Z 000000018001d3d0 f i libcpmt:xthrow.obj
 0001:0001c3d0       ??_Gcontext_self_unblock@Concurrency@@UEAAPEAXI@Z 000000018001d3d0 f i libconcrt:Exceptions.obj
 0001:0001c3d0       ??_Eexception@std@@UEAAPEAXI@Z 000000018001d3d0 f i libcpmt:xthrow.obj
 0001:0001c3d0       ??_Eout_of_range@std@@UEAAPEAXI@Z 000000018001d3d0 f i libcpmt:xthrow.obj
 0001:0001c3d0       ??_Gbad_exception@std@@UEAAPEAXI@Z 000000018001d3d0 f i libvcruntime:frame.obj
 0001:0001c3d0       ??_Gunsupported_os@Concurrency@@UEAAPEAXI@Z 000000018001d3d0 f i libconcrt:Exceptions.obj
 0001:0001c3d0       ??_Einvalid_scheduler_policy_value@Concurrency@@UEAAPEAXI@Z 000000018001d3d0 f i libconcrt:Exceptions.obj
 0001:0001c3d0       ??_Gbad_typeid@std@@UEAAPEAXI@Z 000000018001d3d0 f i libvcruntime:rtti.obj
 0001:0001c3d0       ??_Einvalid_scheduler_policy_key@Concurrency@@UEAAPEAXI@Z 000000018001d3d0 f i libconcrt:Exceptions.obj
 0001:0001c3d0       ??_Gexception@std@@UEAAPEAXI@Z 000000018001d3d0 f i libcpmt:xthrow.obj
 0001:0001c3d0       ??_Enested_scheduler_missing_detach@Concurrency@@UEAAPEAXI@Z 000000018001d3d0 f i libconcrt:Exceptions.obj
 0001:0001c3d0       ??_Gcontext_unblock_unbalanced@Concurrency@@UEAAPEAXI@Z 000000018001d3d0 f i libconcrt:Exceptions.obj
 0001:0001c3d0       ??_Gbad_function_call@std@@UEAAPEAXI@Z 000000018001d3d0 f i libcpmt:xthrow.obj
 0001:0001c414       ?_Xbad_alloc@std@@YAXXZ    000000018001d414 f   libcpmt:xthrow.obj
 0001:0001c414       ?__scrt_throw_std_bad_alloc@@YAXXZ 000000018001d414 f   LIBCMT:throw_bad_alloc.obj
 0001:0001c434       ?_Xbad_function_call@std@@YAXXZ 000000018001d434 f   libcpmt:xthrow.obj
 0001:0001c454       ?_Xinvalid_argument@std@@YAXPEBD@Z 000000018001d454 f   libcpmt:xthrow.obj
 0001:0001c478       ?_Xlength_error@std@@YAXPEBD@Z 000000018001d478 f   libcpmt:xthrow.obj
 0001:0001c49c       ?_Xout_of_range@std@@YAXPEBD@Z 000000018001d49c f   libcpmt:xthrow.obj
 0001:0001c4c0       ?what@bad_function_call@std@@UEBAPEBDXZ 000000018001d4c0 f i libcpmt:xthrow.obj
 0001:0001c4c8       ?what@exception@std@@UEBAPEBDXZ 000000018001d4c8 f i libcpmt:xthrow.obj
 0001:0001c4dc       ??$_Immortalize_impl@V_Generic_error_category@std@@@std@@YAHPEAX0PEAPEAX@Z 000000018001d4dc f i libcpmt:thread0.obj
 0001:0001c4f4       ??0_System_error@std@@QEAA@AEBV01@@Z 000000018001d4f4 f i libcpmt:thread0.obj
 0001:0001c548       ??0system_error@std@@QEAA@AEBV01@@Z 000000018001d548 f i libcpmt:thread0.obj
 0001:0001c5a4       ??0system_error@std@@QEAA@HAEBVerror_category@1@PEBD@Z 000000018001d5a4 f i libcpmt:thread0.obj
 0001:0001c680       ?_Throw_C_error@std@@YAXH@Z 000000018001d680 f   libcpmt:thread0.obj
 0001:0001c6bc       ?_Throw_Cpp_error@std@@YAXH@Z 000000018001d6bc f   libcpmt:thread0.obj
 0001:0001c704       ?generic_category@std@@YAAEBVerror_category@1@XZ 000000018001d704 f i libcpmt:thread0.obj
 0001:0001c754       ??1GlobalCore@details@Concurrency@@QEAA@XZ 000000018001d754 f i libcpmt:mutex.obj
 0001:0001c764       ?create_stl_critical_section@details@Concurrency@@YAXPEAVstl_critical_section_interface@12@@Z 000000018001d764 f i libcpmt:mutex.obj
 0001:0001c7fc       ?destroy@stl_critical_section_concrt@details@Concurrency@@UEAAXXZ 000000018001d7fc f i libcpmt:mutex.obj
 0001:0001c808       ?destroy@stl_critical_section_vista@details@Concurrency@@UEAAXXZ 000000018001d808 f i libcpmt:mutex.obj
 0001:0001c814       ?lock@stl_critical_section_concrt@details@Concurrency@@UEAAXXZ 000000018001d814 f i libcpmt:mutex.obj
 0001:0001c820       ?lock@stl_critical_section_vista@details@Concurrency@@UEAAXXZ 000000018001d820 f i libcpmt:mutex.obj
 0001:0001c82c       ?lock@stl_critical_section_win7@details@Concurrency@@UEAAXXZ 000000018001d82c f i libcpmt:mutex.obj
 0001:0001c9cc       ?try_lock@stl_critical_section_concrt@details@Concurrency@@UEAA_NXZ 000000018001d9cc f i libcpmt:mutex.obj
 0001:0001c9d8       ?try_lock_for@stl_critical_section_win7@details@Concurrency@@UEAA_NI@Z 000000018001d9d8 f i libcpmt:mutex.obj
 0001:0001c9d8       ?try_lock@stl_critical_section_win7@details@Concurrency@@UEAA_NXZ 000000018001d9d8 f i libcpmt:mutex.obj
 0001:0001c9f0       ?try_lock_for@stl_critical_section_concrt@details@Concurrency@@UEAA_NI@Z 000000018001d9f0 f i libcpmt:mutex.obj
 0001:0001c9fc       ?try_lock_for@stl_critical_section_vista@details@Concurrency@@UEAA_NI@Z 000000018001d9fc f i libcpmt:mutex.obj
 0001:0001c9fc       ?try_lock@stl_critical_section_vista@details@Concurrency@@UEAA_NXZ 000000018001d9fc f i libcpmt:mutex.obj
 0001:0001ca14       ?unlock@stl_critical_section_concrt@details@Concurrency@@UEAAXXZ 000000018001da14 f i libcpmt:mutex.obj
 0001:0001ca20       ?unlock@stl_critical_section_vista@details@Concurrency@@UEAAXXZ 000000018001da20 f i libcpmt:mutex.obj
 0001:0001ca2c       ?unlock@stl_critical_section_win7@details@Concurrency@@UEAAXXZ 000000018001da2c f i libcpmt:mutex.obj
 0001:0001ca38       _Mtx_clear_owner           000000018001da38 f   libcpmt:mutex.obj
 0001:0001ca40       _Mtx_destroy_in_situ       000000018001da40 f   libcpmt:mutex.obj
 0001:0001ca70       _Mtx_init_in_situ          000000018001da70 f   libcpmt:mutex.obj
 0001:0001caa0       _Mtx_lock                  000000018001daa0 f   libcpmt:mutex.obj
 0001:0001caa8       _Mtx_reset_owner           000000018001daa8 f   libcpmt:mutex.obj
 0001:0001cac4       _Mtx_unlock                000000018001dac4 f   libcpmt:mutex.obj
 0001:0001cb00       ??0_Init_locks@std@@QEAA@XZ 000000018001db00 f   libcpmt:xlock.obj
 0001:0001cb4c       ??0_Lockit@std@@QEAA@H@Z   000000018001db4c f   libcpmt:xlock.obj
 0001:0001cb88       ??1_Init_locks@std@@QEAA@XZ 000000018001db88 f   libcpmt:xlock.obj
 0001:0001cbcc       ??1_Lockit@std@@QEAA@XZ    000000018001dbcc f   libcpmt:xlock.obj
 0001:0001cc00       ?_Execute_once@std@@YAHAEAUonce_flag@1@P6AHPEAX1PEAPEAX@Z1@Z 000000018001dc00 f   libcpmt:xonce.obj
 0001:0001cc08       ??$use_facet@V?$codecvt@DDU_Mbstatet@@@std@@@std@@YAAEBV?$codecvt@DDU_Mbstatet@@@0@AEBVlocale@0@@Z 000000018001dc08 f i libcpmt:cout.obj
 0001:0001cd40       ??0?$basic_ostream@DU?$char_traits@D@std@@@std@@QEAA@PEAV?$basic_streambuf@DU?$char_traits@D@std@@@1@_N@Z 000000018001dd40 f i libcpmt:cout.obj
 0001:0001ce08       ??0?$basic_streambuf@DU?$char_traits@D@std@@@std@@IEAA@XZ 000000018001de08 f i libcpmt:cout.obj
 0001:0001ceb8       ??0_Init_cout@std@@QEAA@XZ 000000018001deb8 f i libcpmt:cout.obj
 0001:0001cf24       ??0bad_cast@std@@QEAA@AEBV01@@Z 000000018001df24 f i libcpmt:cout.obj
 0001:0001cf64       ??0bad_cast@std@@QEAA@XZ   000000018001df64 f i libcpmt:cout.obj
 0001:0001cf84       ??1?$basic_filebuf@DU?$char_traits@D@std@@@std@@UEAA@XZ 000000018001df84 f i libcpmt:cout.obj
 0001:0001d030       ??1?$basic_ios@DU?$char_traits@D@std@@@std@@UEAA@XZ 000000018001e030 f i libcpmt:cout.obj
 0001:0001d054       ??1bad_alloc@std@@UEAA@XZ  000000018001e054 f i libcpmt:xthrow.obj
 0001:0001d054       ??1missing_wait@Concurrency@@UEAA@XZ 000000018001e054 f i libconcrt:Exceptions.obj
 0001:0001d054       ??1bad_cast@std@@UEAA@XZ   000000018001e054 f i libcpmt:cout.obj
 0001:0001d054       ??1context_self_unblock@Concurrency@@UEAA@XZ 000000018001e054 f i libconcrt:Exceptions.obj
 0001:0001d054       ??1invalid_scheduler_policy_value@Concurrency@@UEAA@XZ 000000018001e054 f i libconcrt:Exceptions.obj
 0001:0001d054       ??1nested_scheduler_missing_detach@Concurrency@@UEAA@XZ 000000018001e054 f i libconcrt:Exceptions.obj
 0001:0001d054       ??1improper_lock@Concurrency@@UEAA@XZ 000000018001e054 f i libconcrt:rtlocks.obj
 0001:0001d054       ??1invalid_scheduler_policy_thread_specification@Concurrency@@UEAA@XZ 000000018001e054 f i libconcrt:Exceptions.obj
 0001:0001d054       ??1improper_scheduler_reference@Concurrency@@UEAA@XZ 000000018001e054 f i libconcrt:Exceptions.obj
 0001:0001d054       ??1invalid_scheduler_policy_key@Concurrency@@UEAA@XZ 000000018001e054 f i libconcrt:Exceptions.obj
 0001:0001d054       ??1scheduler_worker_creation_error@Concurrency@@UEAA@XZ 000000018001e054 f i libconcrt:Exceptions.obj
 0001:0001d054       ??1_Interruption_exception@details@Concurrency@@UEAA@XZ 000000018001e054 f i libconcrt:TaskCollection.obj
 0001:0001d054       ??1bad_array_new_length@std@@UEAA@XZ 000000018001e054 f i LIBCMT:throw_bad_alloc.obj
 0001:0001d054       ??1unsupported_os@Concurrency@@UEAA@XZ 000000018001e054 f i libconcrt:Exceptions.obj
 0001:0001d054       ??1invalid_argument@std@@UEAA@XZ 000000018001e054 f i libcpmt:xthrow.obj
 0001:0001d054       ??1out_of_range@std@@UEAA@XZ 000000018001e054 f i libcpmt:xthrow.obj
 0001:0001d054       ??1improper_scheduler_attach@Concurrency@@UEAA@XZ 000000018001e054 f i libconcrt:Exceptions.obj
 0001:0001d054       ??1bad_exception@std@@UEAA@XZ 000000018001e054 f i libvcruntime:frame.obj
 0001:0001d054       ??1__non_rtti_object@std@@UEAA@XZ 000000018001e054 f i libvcruntime:rtti.obj
 0001:0001d054       ??1invalid_oversubscribe_operation@Concurrency@@UEAA@XZ 000000018001e054 f i libconcrt:Exceptions.obj
 0001:0001d054       ??1context_unblock_unbalanced@Concurrency@@UEAA@XZ 000000018001e054 f i libconcrt:Exceptions.obj
 0001:0001d054       ??1invalid_operation@Concurrency@@UEAA@XZ 000000018001e054 f i libconcrt:ResourceManager.obj
 0001:0001d054       ??1bad_function_call@std@@UEAA@XZ 000000018001e054 f i libcpmt:xthrow.obj
 0001:0001d054       ??1length_error@std@@UEAA@XZ 000000018001e054 f i libcpmt:xthrow.obj
 0001:0001d054       ??1scheduler_resource_allocation_error@Concurrency@@UEAA@XZ 000000018001e054 f i libconcrt:Platform.obj
 0001:0001d068       ??_E?$basic_ostream@DU?$char_traits@D@std@@@std@@$4PPPPPPPM@A@EAAPEAXI@Z 000000018001e068 f i libcpmt:cout.obj
 0001:0001d074       ??_E?$basic_filebuf@DU?$char_traits@D@std@@@std@@UEAAPEAXI@Z 000000018001e074 f i libcpmt:cout.obj
 0001:0001d074       ??_G?$basic_filebuf@DU?$char_traits@D@std@@@std@@UEAAPEAXI@Z 000000018001e074 f i libcpmt:cout.obj
 0001:0001d0a8       ??_G?$basic_ios@DU?$char_traits@D@std@@@std@@UEAAPEAXI@Z 000000018001e0a8 f i libcpmt:cout.obj
 0001:0001d0a8       ??_E?$basic_ios@DU?$char_traits@D@std@@@std@@UEAAPEAXI@Z 000000018001e0a8 f i libcpmt:cout.obj
 0001:0001d0f4       ??_G?$basic_ostream@DU?$char_traits@D@std@@@std@@UEAAPEAXI@Z 000000018001e0f4 f i libcpmt:cout.obj
 0001:0001d0f4       ??_E?$basic_ostream@DU?$char_traits@D@std@@@std@@UEAAPEAXI@Z 000000018001e0f4 f i libcpmt:cout.obj
 0001:0001d164       ??_G?$basic_streambuf@DU?$char_traits@D@std@@@std@@UEAAPEAXI@Z 000000018001e164 f i libcpmt:cout.obj
 0001:0001d164       ??_E?$basic_streambuf@DU?$char_traits@D@std@@@std@@UEAAPEAXI@Z 000000018001e164 f i libcpmt:cout.obj
 0001:0001d1b4       ??_Eios_base@std@@UEAAPEAXI@Z 000000018001e1b4 f i libcpmt:cout.obj
 0001:0001d1b4       ??_Gios_base@std@@UEAAPEAXI@Z 000000018001e1b4 f i libcpmt:cout.obj
 0001:0001d200       ??_Glocale@std@@QEAAPEAXI@Z 000000018001e200 f i libcpmt:cout.obj
 0001:0001d290       ?_Endwrite@?$basic_filebuf@DU?$char_traits@D@std@@@std@@IEAA_NXZ 000000018001e290 f i libcpmt:cout.obj
 0001:0001d470       ?_Getcat@?$codecvt@DDU_Mbstatet@@@std@@SA_KPEAPEBVfacet@locale@2@PEBV42@@Z 000000018001e470 f i libcpmt:cout.obj
 0001:0001d534       ?_Init@?$basic_filebuf@DU?$char_traits@D@std@@@std@@IEAAXPEAU_iobuf@@W4_Initfl@12@@Z 000000018001e534 f i libcpmt:cout.obj
 0001:0001d620       ?_Init@ios_base@std@@IEAAXXZ 000000018001e620 f i libcpmt:cout.obj
 0001:0001d6a0       ?_Initcvt@?$basic_filebuf@DU?$char_traits@D@std@@@std@@IEAAXPEBV?$codecvt@DDU_Mbstatet@@@2@@Z 000000018001e6a0 f i libcpmt:cout.obj
 0001:0001d740       ?_Lock@?$basic_filebuf@DU?$char_traits@D@std@@@std@@UEAAXXZ 000000018001e740 f i libcpmt:cout.obj
 0001:0001d75c       ?_Unlock@?$basic_filebuf@DU?$char_traits@D@std@@@std@@UEAAXXZ 000000018001e75c f i libcpmt:cout.obj
 0001:0001d778       ?do_out@?$codecvt@DDU_Mbstatet@@@std@@MEBAHAEAU_Mbstatet@@PEBD1AEAPEBDPEAD3AEAPEAD@Z 000000018001e778 f i libcpmt:cout.obj
 0001:0001d778       ?do_in@?$codecvt@DDU_Mbstatet@@@std@@MEBAHAEAU_Mbstatet@@PEBD1AEAPEBDPEAD3AEAPEAD@Z 000000018001e778 f i libcpmt:cout.obj
 0001:0001d794       ?do_length@?$codecvt@DDU_Mbstatet@@@std@@MEBAHAEAU_Mbstatet@@PEBD1_K@Z 000000018001e794 f i libcpmt:cout.obj
 0001:0001d7a8       ?do_unshift@?$codecvt@DDU_Mbstatet@@@std@@MEBAHAEAU_Mbstatet@@PEAD1AEAPEAD@Z 000000018001e7a8 f i libcpmt:cout.obj
 0001:0001d7b4       ?imbue@?$basic_filebuf@DU?$char_traits@D@std@@@std@@MEAAXAEBVlocale@2@@Z 000000018001e7b4 f i libcpmt:cout.obj
 0001:0001d7d8       ?overflow@?$basic_filebuf@DU?$char_traits@D@std@@@std@@MEAAHH@Z 000000018001e7d8 f i libcpmt:cout.obj
 0001:0001da4c       ?pbackfail@?$basic_filebuf@DU?$char_traits@D@std@@@std@@MEAAHH@Z 000000018001ea4c f i libcpmt:cout.obj
 0001:0001db18       ?overflow@?$basic_streambuf@DU?$char_traits@D@std@@@std@@MEAAHH@Z 000000018001eb18 f i libcpmt:cout.obj
 0001:0001db18       ?pbackfail@?$basic_streambuf@DU?$char_traits@D@std@@@std@@MEAAHH@Z 000000018001eb18 f i libcpmt:cout.obj
 0001:0001db18       ?underflow@?$basic_streambuf@DU?$char_traits@D@std@@@std@@MEAAHXZ 000000018001eb18 f i libcpmt:cout.obj
 0001:0001db18       ?GetVirtualProcessorId@ExternalContextBase@details@Concurrency@@UEBAIXZ 000000018001eb18 f i libconcrt:ExternalContextBase.obj
 0001:0001db1c       ?seekoff@?$basic_filebuf@DU?$char_traits@D@std@@@std@@MEAA?AV?$fpos@U_Mbstatet@@@2@_JHH@Z 000000018001eb1c f i libcpmt:cout.obj
 0001:0001dc08       ?seekpos@?$basic_filebuf@DU?$char_traits@D@std@@@std@@MEAA?AV?$fpos@U_Mbstatet@@@2@V32@H@Z 000000018001ec08 f i libcpmt:cout.obj
 0001:0001dd08       ?seekpos@?$basic_streambuf@DU?$char_traits@D@std@@@std@@MEAA?AV?$fpos@U_Mbstatet@@@2@V32@H@Z 000000018001ed08 f i libcpmt:cout.obj
 0001:0001dd08       ?seekoff@?$basic_streambuf@DU?$char_traits@D@std@@@std@@MEAA?AV?$fpos@U_Mbstatet@@@2@_JHH@Z 000000018001ed08 f i libcpmt:cout.obj
 0001:0001dd24       ?setbuf@?$basic_filebuf@DU?$char_traits@D@std@@@std@@MEAAPEAV?$basic_streambuf@DU?$char_traits@D@std@@@2@PEAD_J@Z 000000018001ed24 f i libcpmt:cout.obj
 0001:0001dd78       ?sync@?$basic_filebuf@DU?$char_traits@D@std@@@std@@MEAAHXZ 000000018001ed78 f i libcpmt:cout.obj
 0001:0001ddd8       ?uflow@?$basic_filebuf@DU?$char_traits@D@std@@@std@@MEAAHXZ 000000018001edd8 f i libcpmt:cout.obj
 0001:0001e0c8       ?uflow@?$basic_streambuf@DU?$char_traits@D@std@@@std@@MEAAHXZ 000000018001f0c8 f i libcpmt:cout.obj
 0001:0001e114       ?underflow@?$basic_filebuf@DU?$char_traits@D@std@@@std@@MEAAHXZ 000000018001f114 f i libcpmt:cout.obj
 0001:0001e18c       ?xsgetn@?$basic_streambuf@DU?$char_traits@D@std@@@std@@MEAA_JPEAD_J@Z 000000018001f18c f i libcpmt:cout.obj
 0001:0001e248       ?xsputn@?$basic_streambuf@DU?$char_traits@D@std@@@std@@MEAA_JPEBD_J@Z 000000018001f248 f i libcpmt:cout.obj
 0001:0001e308       ??4?$_Yarn@D@std@@QEAAAEAV01@PEBD@Z 000000018001f308 f i libcpmt:locale0.obj
 0001:0001e380       ??_G_Fac_node@std@@QEAAPEAXI@Z 000000018001f380 f i libcpmt:locale0.obj
 0001:0001e40c       ??_G_Locimp@locale@std@@MEAAPEAXI@Z 000000018001f40c f i libcpmt:locale0.obj
 0001:0001e40c       ??_E_Locimp@locale@std@@MEAAPEAXI@Z 000000018001f40c f i libcpmt:locale0.obj
 0001:0001e478       ?_Facet_Register@std@@YAXPEAV_Facet_base@1@@Z 000000018001f478 f   libcpmt:locale0.obj
 0001:0001e4b0       ?_Getgloballocale@locale@std@@CAPEAV_Locimp@12@XZ 000000018001f4b0 f   libcpmt:locale0.obj
 0001:0001e4b8       ?_Init@locale@std@@CAPEAV_Locimp@12@_N@Z 000000018001f4b8 f   libcpmt:locale0.obj
 0001:0001e574       ?_Locimp_dtor@_Locimp@locale@std@@CAXPEAV123@@Z 000000018001f574 f   libcpmt:locale0.obj
 0001:0001e61c       ?_Locinfo_ctor@_Locinfo@std@@SAXPEAV12@PEBD@Z 000000018001f61c f   libcpmt:locale0.obj
 0001:0001e688       ?_Locinfo_dtor@_Locinfo@std@@SAXPEAV12@@Z 000000018001f688 f   libcpmt:locale0.obj
 0001:0001e6ac       ?_New_Locimp@_Locimp@locale@std@@CAPEAV123@_N@Z 000000018001f6ac f   libcpmt:locale0.obj
 0001:0001e71c       ?_Setgloballocale@locale@std@@CAXPEAX@Z 000000018001f71c f   libcpmt:locale0.obj
 0001:0001e750       _Deletegloballocale        000000018001f750 f   libcpmt:locale0.obj
 0001:0001e7d8       ?_Syserror_map@std@@YAPEBDH@Z 000000018001f7d8 f   libcpmt:syserror.obj
 0001:0001e800       _Getctype                  000000018001f800 f   libcpmt:_tolower.obj
 0001:0001e8c0       _Tolower                   000000018001f8c0 f   libcpmt:_tolower.obj
 0001:0001e9e8       _Getcvt                    000000018001f9e8 f   libcpmt:xwctomb.obj
 0001:0001ea7c       _Toupper                   000000018001fa7c f   libcpmt:_toupper.obj
 0001:0001ebb4       _Xtime_diff_to_millis2     000000018001fbb4 f   libcpmt:xtime.obj
 0001:0001ec84       _Xtime_get_ticks           000000018001fc84 f   libcpmt:xtime.obj
 0001:0001ecb4       xtime_get                  000000018001fcb4 f   libcpmt:xtime.obj
 0001:0001f1dc       __crtAcquireSRWLockExclusive 00000001800201dc f   libcpmt:winapisupp.obj
 0001:0001f214       __crtCloseThreadpoolTimer  0000000180020214 f   libcpmt:winapisupp.obj
 0001:0001f24c       __crtCloseThreadpoolWait   000000018002024c f   libcpmt:winapisupp.obj
 0001:0001f284       __crtCreateEventExW        0000000180020284 f   libcpmt:winapisupp.obj
 0001:0001f300       __crtCreateSemaphoreExW    0000000180020300 f   libcpmt:winapisupp.obj
 0001:0001f3a0       __crtCreateThreadpoolTimer 00000001800203a0 f   libcpmt:winapisupp.obj
 0001:0001f3fc       __crtCreateThreadpoolWait  00000001800203fc f   libcpmt:winapisupp.obj
 0001:0001f458       __crtFlushProcessWriteBuffers 0000000180020458 f   libcpmt:winapisupp.obj
 0001:0001f480       __crtFreeLibraryWhenCallbackReturns 0000000180020480 f   libcpmt:winapisupp.obj
 0001:0001f4c8       __crtGetCurrentProcessorNumber 00000001800204c8 f   libcpmt:winapisupp.obj
 0001:0001f4fc       __crtGetSystemTimePreciseAsFileTime 00000001800204fc f   libcpmt:winapisupp.obj
 0001:0001f53c       __crtGetTickCount64        000000018002053c f   libcpmt:winapisupp.obj
 0001:0001f574       __crtInitOnceExecuteOnce   0000000180020574 f   libcpmt:winapisupp.obj
 0001:0001f650       __crtInitializeConditionVariable 0000000180020650 f   libcpmt:winapisupp.obj
 0001:0001f688       __crtInitializeCriticalSectionEx 0000000180020688 f   libcpmt:winapisupp.obj
 0001:0001f6e8       __crtInitializeSRWLock     00000001800206e8 f   libcpmt:winapisupp.obj
 0001:0001f720       __crtReleaseSRWLockExclusive 0000000180020720 f   libcpmt:winapisupp.obj
 0001:0001f758       __crtSetThreadpoolTimer    0000000180020758 f   libcpmt:winapisupp.obj
 0001:0001f7c0       __crtSetThreadpoolWait     00000001800207c0 f   libcpmt:winapisupp.obj
 0001:0001f818       __crtSleepConditionVariableCS 0000000180020818 f   libcpmt:winapisupp.obj
 0001:0001f870       __crtSleepConditionVariableSRW 0000000180020870 f   libcpmt:winapisupp.obj
 0001:0001f8d8       __crtTryAcquireSRWLockExclusive 00000001800208d8 f   libcpmt:winapisupp.obj
 0001:0001f910       __crtWaitForThreadpoolTimerCallbacks 0000000180020910 f   libcpmt:winapisupp.obj
 0001:0001f954       __crtWakeAllConditionVariable 0000000180020954 f   libcpmt:winapisupp.obj
 0001:0001f98c       __crtWakeConditionVariable 000000018002098c f   libcpmt:winapisupp.obj
 0001:0001f9c4       ??1_NonReentrantBlockingLock@details@Concurrency@@QEAA@XZ 00000001800209c4 f   libconcrt:rtlocks.obj
 0001:0001f9c4       _Mtxdst                    00000001800209c4 f   libcpmt:xmtx.obj
 0001:0001f9c4       ??1_ReentrantBlockingLock@details@Concurrency@@QEAA@XZ 00000001800209c4 f   libconcrt:rtlocks.obj
 0001:0001f9cc       _Mtxinit                   00000001800209cc f   libcpmt:xmtx.obj
 0001:0001f9dc       _Mtxlock                   00000001800209dc f   libcpmt:xmtx.obj
 0001:0001f9dc       ?_Acquire@_NonReentrantBlockingLock@details@Concurrency@@QEAAXXZ 00000001800209dc f   libconcrt:rtlocks.obj
 0001:0001f9dc       ?_Acquire@_ReentrantBlockingLock@details@Concurrency@@QEAAXXZ 00000001800209dc f   libconcrt:rtlocks.obj
 0001:0001f9e4       _Mtxunlock                 00000001800209e4 f   libcpmt:xmtx.obj
 0001:0001f9e4       ?_Release@_NonReentrantBlockingLock@details@Concurrency@@QEAAXXZ 00000001800209e4 f   libconcrt:rtlocks.obj
 0001:0001f9e4       ?_Release@_ReentrantBlockingLock@details@Concurrency@@QEAAXXZ 00000001800209e4 f   libconcrt:rtlocks.obj
 0001:0001f9ec       ?_Addstd@ios_base@std@@SAXPEAV12@@Z 00000001800209ec f   libcpmt:ios.obj
 0001:0001fa5c       ?_Ios_base_dtor@ios_base@std@@CAXPEAV12@@Z 0000000180020a5c f   libcpmt:ios.obj
 0001:0001faa0       ?_Tidy@ios_base@std@@AEAAXXZ 0000000180020aa0 f i libcpmt:ios.obj
 0001:0001fb30       ?_Atexit@@YAXP6AXXZ@Z      0000000180020b30 f   libcpmt:iosptrs.obj
 0001:0001fb70       __crtLCMapStringA          0000000180020b70 f   libcpmt:StlLCMapStringA.obj
 0001:0001fe24       GetTableIndexFromLocaleName 0000000180020e24 f   libcpmt:winapinls.obj
 0001:0001feac       __crtDownlevelLocaleNameToLCID 0000000180020eac f   libcpmt:winapinls.obj
 0001:0001fee0       __crtLCMapStringEx         0000000180020ee0 f   libcpmt:winapinls.obj
 0001:0001ff9c       __wcsnicmp_ascii           0000000180020f9c f   libcpmt:winapinls.obj
 0001:00020010       __security_check_cookie    0000000180021010 f   LIBCMT:_amdsecgs_.obj
 0001:00020034       ??2@YAPEAX_K@Z             0000000180021034 f   LIBCMT:new_scalar.obj
 0001:00020070       ??3@YAXPEAX@Z              0000000180021070 f   LIBCMT:delete_scalar.obj
 0001:00020078       ??_V@YAXPEAX@Z             0000000180021078 f   LIBCMT:delete_array.obj
 0001:00020078       ??3@YAXPEAX_K@Z            0000000180021078 f   LIBCMT:delete_scalar_size.obj
 0001:00020080       ??_U@YAPEAX_K@Z            0000000180021080 f   LIBCMT:new_array.obj
 0001:00020088       ??_Etype_info@@UEAAPEAXI@Z 0000000180021088 f i LIBCMT:std_type_info_static.obj
 0001:00020088       ??_Gtype_info@@UEAAPEAXI@Z 0000000180021088 f i LIBCMT:std_type_info_static.obj
 0001:000200b4       __scrt_acquire_startup_lock 00000001800210b4 f   LIBCMT:utility.obj
 0001:000200f0       __scrt_dllmain_after_initialize_c 00000001800210f0 f   LIBCMT:utility.obj
 0001:00020124       __scrt_dllmain_before_initialize_c 0000000180021124 f   LIBCMT:utility.obj
 0001:0002013c       __scrt_dllmain_crt_thread_attach 000000018002113c f   LIBCMT:utility.obj
 0001:00020164       __scrt_dllmain_crt_thread_detach 0000000180021164 f   LIBCMT:utility.obj
 0001:0002017c       __scrt_dllmain_exception_filter 000000018002117c f   LIBCMT:utility.obj
 0001:000201e0       __scrt_dllmain_uninitialize_c 00000001800211e0 f   LIBCMT:utility.obj
 0001:00020210       __scrt_dllmain_uninitialize_critical 0000000180021210 f   LIBCMT:utility.obj
 0001:00020224       __scrt_initialize_crt      0000000180021224 f   LIBCMT:utility.obj
 0001:00020270       __scrt_initialize_onexit_tables 0000000180021270 f   LIBCMT:utility.obj
 0001:00020350       __scrt_is_nonwritable_in_current_image 0000000180021350 f   LIBCMT:utility.obj
 0001:000203ec       __scrt_release_startup_lock 00000001800213ec f   LIBCMT:utility.obj
 0001:00020410       __scrt_uninitialize_crt    0000000180021410 f   LIBCMT:utility.obj
 0001:0002043c       _onexit                    000000018002143c f   LIBCMT:utility.obj
 0001:0002048c       atexit                     000000018002148c f   LIBCMT:utility.obj
 0001:00020618       _Init_thread_footer        0000000180021618 f   LIBCMT:thread_safe_statics.obj
 0001:00020678       _Init_thread_header        0000000180021678 f   LIBCMT:thread_safe_statics.obj
 0001:000206e0       _Init_thread_notify        00000001800216e0 f   LIBCMT:thread_safe_statics.obj
 0001:0002073c       _Init_thread_wait          000000018002173c f   LIBCMT:thread_safe_statics.obj
 0001:00020b04       _DllMainCRTStartup         0000000180021b04 f   LIBCMT:dll_dllmain.obj
 0001:00020b44       __GSHandlerCheck           0000000180021b44 f   LIBCMT:_gshandler_.obj
 0001:00020b64       __GSHandlerCheckCommon     0000000180021b64 f   LIBCMT:_gshandler_.obj
 0001:00020bc0       __GSHandlerCheck_EH        0000000180021bc0 f   LIBCMT:gshandlereh.obj
 0001:00020c40       _guard_check_icall         0000000180021c40 f i LIBCMT:checkcfg.obj
 0001:00020c48       ??_M@YAXPEAX_K1P6AX0@Z@Z   0000000180021c48 f   LIBCMT:ehvecdtr.obj
 0001:00020cb4       ?__ArrayUnwind@@YAXPEAX_K1P6AX0@Z@Z 0000000180021cb4 f   LIBCMT:ehvecdtr.obj
 0001:00020d18       ??_V@YAXPEAX_K@Z           0000000180021d18 f   LIBCMT:delete_array_size.obj
 0001:00020d30       _alloca_probe              0000000180021d30 f   LIBCMT:_chkstk_.obj
 0001:00020d30       __chkstk                   0000000180021d30 f   LIBCMT:_chkstk_.obj
 0001:00020d84       __raise_securityfailure    0000000180021d84 f   LIBCMT:gs_report.obj
 0001:00020db8       __report_gsfailure         0000000180021db8 f   LIBCMT:gs_report.obj
 0001:00020e8c       __report_rangecheckfailure 0000000180021e8c f   LIBCMT:gs_report.obj
 0001:00020ea0       __report_securityfailure   0000000180021ea0 f   LIBCMT:gs_report.obj
 0001:00021020       ??0bad_array_new_length@std@@QEAA@AEBV01@@Z 0000000180022020 f i LIBCMT:throw_bad_alloc.obj
 0001:00021060       ??0bad_array_new_length@std@@QEAA@XZ 0000000180022060 f i LIBCMT:throw_bad_alloc.obj
 0001:00021080       ?__scrt_throw_std_bad_array_new_length@@YAXXZ 0000000180022080 f   LIBCMT:throw_bad_alloc.obj
 0001:000210a0       __isa_available_init       00000001800220a0 f   LIBCMT:_cpu_disp_.obj
 0001:0002125c       __scrt_is_ucrt_dll_in_use  000000018002225c f   LIBCMT:ucrt_detection.obj
 0001:00021268       __crt_debugger_hook        0000000180022268 f   LIBCMT:utility_desktop.obj
 0001:00021270       __scrt_fastfail            0000000180022270 f   LIBCMT:utility_desktop.obj
 0001:000213bc       __security_init_cookie     00000001800223bc f   LIBCMT:gs_support.obj
 0001:00021468       ?__scrt_initialize_type_info@@YAXXZ 0000000180022468 f   LIBCMT:tncleanup.obj
 0001:00021478       ?__scrt_uninitialize_type_info@@YAXXZ 0000000180022478 f   LIBCMT:tncleanup.obj
 0001:00021484       __local_stdio_scanf_options 0000000180022484 f i LIBCMT:default_local_stdio_options.obj
 0001:0002148c       __scrt_initialize_default_local_stdio_options 000000018002248c f   LIBCMT:default_local_stdio_options.obj
 0001:000214a8       __scrt_get_dyn_tls_init_callback 00000001800224a8 f   LIBCMT:dyn_tls_init.obj
 0001:000214b0       _RTC_Initialize            00000001800224b0 f   LIBCMT:_initsect_.obj
 0001:000214fc       _RTC_Terminate             00000001800224fc f   LIBCMT:_initsect_.obj
 0001:00021550       ??0LockQueueNode@details@Concurrency@@QEAA@I@Z 0000000180022550 f i libconcrt:rtlocks.obj
 0001:00021658       ??0_ReaderWriterLock@details@Concurrency@@QEAA@XZ 0000000180022658 f   libconcrt:rtlocks.obj
 0001:0002166c       ??0_NonReentrantBlockingLock@details@Concurrency@@QEAA@XZ 000000018002266c f   libconcrt:rtlocks.obj
 0001:0002166c       ??0_ReentrantBlockingLock@details@Concurrency@@QEAA@XZ 000000018002266c f   libconcrt:rtlocks.obj
 0001:0002168c       ??0critical_section@Concurrency@@QEAA@XZ 000000018002268c f   libconcrt:rtlocks.obj
 0001:000216b4       ??0improper_lock@Concurrency@@QEAA@AEBV01@@Z 00000001800226b4 f i libconcrt:rtlocks.obj
 0001:000216f4       ??0scoped_lock@critical_section@Concurrency@@QEAA@AEAV12@@Z 00000001800226f4 f   libconcrt:rtlocks.obj
 0001:00021744       ??1scoped_lock@critical_section@Concurrency@@QEAA@XZ 0000000180022744 f   libconcrt:rtlocks.obj
 0001:00021760       ?Block@LockQueueNode@details@Concurrency@@QEAAXI@Z 0000000180022760 f i libconcrt:rtlocks.obj
 0001:00021810       ?DispatchNodeTimeoutTimer@LockQueueNode@details@Concurrency@@SAXPEAU_TP_CALLBACK_INSTANCE@@PEAXPEAU_TP_TIMER@@@Z 0000000180022810 f i libconcrt:rtlocks.obj
 0001:00021898       ?DispatchNodeTimeoutTimerXP@LockQueueNode@details@Concurrency@@SAXPEAXE@Z 0000000180022898 f i libconcrt:rtlocks.obj
 0001:00021910       ?UpdateQueuePosition@LockQueueNode@details@Concurrency@@QEAAXPEAV123@@Z 0000000180022910 f i libconcrt:rtlocks.obj
 0001:00021994       ?_AcquireRead@_ReaderWriterLock@details@Concurrency@@QEAAXXZ 0000000180022994 f   libconcrt:rtlocks.obj
 0001:000219d4       ?_AcquireWrite@_ReaderWriterLock@details@Concurrency@@QEAAXXZ 00000001800229d4 f   libconcrt:rtlocks.obj
 0001:00021a10       ?_Acquire_lock@critical_section@Concurrency@@QEAA_NPEAX_N@Z 0000000180022a10 f   libconcrt:rtlocks.obj
 0001:00021b20       ?_FlushWriteOwners@_ReaderWriterLock@details@Concurrency@@QEAAXXZ 0000000180022b20 f   libconcrt:rtlocks.obj
 0001:00021b40       ?_Flush_current_owner@critical_section@Concurrency@@QEAAXXZ 0000000180022b40 f   libconcrt:rtlocks.obj
 0001:00021b68       ?_Initialize@_SpinCount@details@Concurrency@@SAXXZ 0000000180022b68 f   libconcrt:rtlocks.obj
 0001:00021b8c       ?_ReleaseRead@_ReaderWriterLock@details@Concurrency@@QEAAXXZ 0000000180022b8c f   libconcrt:rtlocks.obj
 0001:00021b90       ?_ReleaseWrite@_ReaderWriterLock@details@Concurrency@@QEAAXXZ 0000000180022b90 f   libconcrt:rtlocks.obj
 0001:00021b9c       ?_SpinOnce@?$_SpinWait@$00@details@Concurrency@@QEAA_NXZ 0000000180022b9c f i libconcrt:rtlocks.obj
 0001:00021c5c       ?_SpinOnce@?$_SpinWait@$0A@@details@Concurrency@@QEAA_NXZ 0000000180022c5c f i libconcrt:rtlocks.obj
 0001:00021cfc       ?_Switch_to_active@critical_section@Concurrency@@AEAAXPEAX@Z 0000000180022cfc f   libconcrt:rtlocks.obj
 0001:00021d84       ?_TryAcquireWrite@_ReaderWriterLock@details@Concurrency@@QEAA_NXZ 0000000180022d84 f   libconcrt:rtlocks.obj
 0001:00021d9c       ?_WaitEquals@_ReaderWriterLock@details@Concurrency@@CAXAEDJJJ@Z 0000000180022d9c f   libconcrt:rtlocks.obj
 0001:00021e10       ?lock@critical_section@Concurrency@@QEAAXXZ 0000000180022e10 f   libconcrt:rtlocks.obj
 0001:00021e4c       ?try_lock@critical_section@Concurrency@@QEAA_NXZ 0000000180022e4c f   libconcrt:rtlocks.obj
 0001:00021ea8       ?try_lock_for@critical_section@Concurrency@@QEAA_NI@Z 0000000180022ea8 f   libconcrt:rtlocks.obj
 0001:00021f68       ?unlock@critical_section@Concurrency@@QEAAXXZ 0000000180022f68 f   libconcrt:rtlocks.obj
 0001:00022090       ??0scheduler_resource_allocation_error@Concurrency@@QEAA@AEBV01@@Z 0000000180023090 f i libconcrt:Platform.obj
 0001:000220e0       ??1DefaultWaiterPool@platform@details@Concurrency@@QEAA@XZ 00000001800230e0 f i libconcrt:Platform.obj
 0001:00022148       ?InitializeSystemFunctionPointers@platform@details@Concurrency@@YAXXZ 0000000180023148 f   libconcrt:Platform.obj
 0001:00022254       ?__ChangeTimerQueueTimer@platform@details@Concurrency@@YAHPEAX0KK@Z 0000000180023254 f   libconcrt:Platform.obj
 0001:0002225c       ?__CloseThreadHandle@platform@details@Concurrency@@YAXPEAX@Z 000000018002325c f   libconcrt:Platform.obj
 0001:00022264       ?__CreateAutoResetEvent@platform@details@Concurrency@@YAPEAX_N@Z 0000000180023264 f   libconcrt:Platform.obj
 0001:000222b8       ?__CreateThread@platform@details@Concurrency@@YAPEAXPEAU_SECURITY_ATTRIBUTES@@_KP6AKPEAX@Z2KPEAK@Z 00000001800232b8 f   libconcrt:Platform.obj
 0001:000222c0       ?__CreateTimerQueueTimer@platform@details@Concurrency@@YAHPEAPEAXPEAXP6AX1E@Z1KKK@Z 00000001800232c0 f   libconcrt:Platform.obj
 0001:000222c8       ?__DeleteTimerQueueTimer@platform@details@Concurrency@@YAXPEAX00@Z 00000001800232c8 f   libconcrt:Platform.obj
 0001:00022328       ?__GetCurrentProcessorNumberEx@platform@details@Concurrency@@YAXPEAU_PROCESSOR_NUMBER@@@Z 0000000180023328 f   libconcrt:Platform.obj
 0001:00022360       ?__GetLogicalProcessorInformation@platform@details@Concurrency@@YAPEAU_SYSTEM_LOGICAL_PROCESSOR_INFORMATION@@PEAK@Z 0000000180023360 f   libconcrt:Platform.obj
 0001:0002242c       ?__GetLogicalProcessorInformationEx@platform@details@Concurrency@@YAPEAU_SYSTEM_LOGICAL_PROCESSOR_INFORMATION_EX@@W4_LOGICAL_PROCESSOR_RELATIONSHIP@@PEAK@Z 000000018002342c f   libconcrt:Platform.obj
 0001:00022578       ?__GetNumaHighestNodeNumber@platform@details@Concurrency@@YAKXZ 0000000180023578 f   libconcrt:Platform.obj
 0001:000225c4       ?__GetThreadGroupAffinity@platform@details@Concurrency@@YAHPEAXPEAU_GROUP_AFFINITY@@@Z 00000001800235c4 f   libconcrt:Platform.obj
 0001:00022640       ?__GetThreadPriority@platform@details@Concurrency@@YAHPEAX@Z 0000000180023640 f   libconcrt:Platform.obj
 0001:00022648       ?__GetTickCount64@platform@details@Concurrency@@YA_KXZ 0000000180023648 f   libconcrt:Platform.obj
 0001:00022650       ?__InitializeCriticalSectionEx@platform@details@Concurrency@@YAHPEAU_RTL_CRITICAL_SECTION@@K@Z 0000000180023650 f   libconcrt:Platform.obj
 0001:00022658       ?__RegisterWaitForSingleObject@platform@details@Concurrency@@YAPEAXPEAXP6AX0E@Z0@Z 0000000180023658 f   libconcrt:Platform.obj
 0001:000226bc       ?__SetThreadGroupAffinity@platform@details@Concurrency@@YAHPEAXPEBU_GROUP_AFFINITY@@@Z 00000001800236bc f   libconcrt:Platform.obj
 0001:00022720       ?__SetThreadPriority@platform@details@Concurrency@@YAXPEAXH@Z 0000000180023720 f   libconcrt:Platform.obj
 0001:00022764       ?__SignalObjectAndWait@platform@details@Concurrency@@YAKPEAX0KH@Z 0000000180023764 f   libconcrt:Platform.obj
 0001:0002276c       ?__Sleep@platform@details@Concurrency@@YAXK@Z 000000018002376c f   libconcrt:Platform.obj
 0001:00022774       ?__SwitchToThread@platform@details@Concurrency@@YAXXZ 0000000180023774 f   libconcrt:Platform.obj
 0001:0002277c       ?__TlsAlloc@platform@details@Concurrency@@YAKXZ 000000018002377c f   libconcrt:Platform.obj
 0001:000227c0       ?__TlsFree@platform@details@Concurrency@@YAXK@Z 00000001800237c0 f   libconcrt:Platform.obj
 0001:000227c8       ?__TlsGetValue@platform@details@Concurrency@@YAPEAXK@Z 00000001800237c8 f   libconcrt:Platform.obj
 0001:000227d0       ?__TlsSetValue@platform@details@Concurrency@@YAXKPEAX@Z 00000001800237d0 f   libconcrt:Platform.obj
 0001:00022814       ?__UnregisterWait@platform@details@Concurrency@@YAXPEAX@Z 0000000180023814 f   libconcrt:Platform.obj
 0001:0002281c       ?__WaitForThread@platform@details@Concurrency@@YAKPEAXK@Z 000000018002381c f   libconcrt:Platform.obj
 0001:00022828       _concrt_static_cleanup     0000000180023828 f   libconcrt:utils.obj
 0001:00022840       ?DeleteAsyncTimerAndUnloadLibrary@details@Concurrency@@YAXPEAU_TP_TIMER@@@Z 0000000180023840 f   libconcrt:utils.obj
 0001:00022888       ?EncodePointer@Security@details@Concurrency@@SAPEAXPEAX@Z 0000000180023888 f   libconcrt:utils.obj
 0001:00022888       ?DecodePointer@Security@details@Concurrency@@SAPEAXPEAX@Z 0000000180023888 f   libconcrt:utils.obj
 0001:00022894       ?FreeLibraryAndDestroyThread@details@Concurrency@@YAXK@Z 0000000180023894 f   libconcrt:utils.obj
 0001:000228cc       ?InitializeCookie@Security@details@Concurrency@@SA_KXZ 00000001800238cc f   libconcrt:utils.obj
 0001:00022930       ?LoadLibraryAndCreateThread@details@Concurrency@@YAPEAXPEAU_SECURITY_ATTRIBUTES@@_KP6AKPEAX@Z2KPEAK@Z 0000000180023930 f   libconcrt:utils.obj
 0001:00022980       ?ReferenceLoadLibrary@details@Concurrency@@YAXXZ 0000000180023980 f   libconcrt:utils.obj
 0001:00022a28       ?RegisterAsyncTimerAndLoadLibrary@details@Concurrency@@YAPEAU_TP_TIMER@@KP6AXPEAU_TP_CALLBACK_INSTANCE@@PEAXPEAU3@@Z1_N@Z 0000000180023a28 f   libconcrt:utils.obj
 0001:00022a9c       ?RegisterAsyncWaitAndLoadLibrary@details@Concurrency@@YAPEAU_TP_WAIT@@PEAXP6AXPEAU_TP_CALLBACK_INSTANCE@@0PEAU3@K@Z0@Z 0000000180023a9c f   libconcrt:utils.obj
 0001:00022af0       ?UnRegisterAsyncTimerAndUnloadLibrary@details@Concurrency@@YAXPEAU_TP_CALLBACK_INSTANCE@@PEAU_TP_TIMER@@@Z 0000000180023af0 f   libconcrt:utils.obj
 0001:00022b3c       ?UnRegisterAsyncWaitAndUnloadLibrary@details@Concurrency@@YAXPEAU_TP_CALLBACK_INSTANCE@@PEAU_TP_WAIT@@@Z 0000000180023b3c f   libconcrt:utils.obj
 0001:00022b88       ?_Acquire@_HyperNonReentrantLock@details@Concurrency@@QEAAXXZ 0000000180023b88 f   libconcrt:utils.obj
 0001:00022b88       ?_Acquire@_CriticalNonReentrantLock@details@Concurrency@@QEAAXXZ 0000000180023b88 f   libconcrt:utils.obj
 0001:00022bd0       ?_Release@_HyperNonReentrantLock@details@Concurrency@@QEAAXXZ 0000000180023bd0 f   libconcrt:utils.obj
 0001:00022bd0       ?_Release@_CriticalNonReentrantLock@details@Concurrency@@QEAAXXZ 0000000180023bd0 f   libconcrt:utils.obj
 0001:00022bdc       ?_Sleep0@details@Concurrency@@YAXXZ 0000000180023bdc f   libconcrt:utils.obj
 0001:00022be4       ?_TryAcquire@_CriticalNonReentrantLock@details@Concurrency@@QEAA_NXZ 0000000180023be4 f   libconcrt:utils.obj
 0001:00022c1c       ?_UnderlyingYield@details@Concurrency@@YAXXZ 0000000180023c1c f   libconcrt:utils.obj
 0001:00022c5c       ??0context_self_unblock@Concurrency@@QEAA@XZ 0000000180023c5c f   libconcrt:Exceptions.obj
 0001:00022c74       ??0context_unblock_unbalanced@Concurrency@@QEAA@XZ 0000000180023c74 f   libconcrt:Exceptions.obj
 0001:00022c8c       ??0improper_lock@Concurrency@@QEAA@PEBD@Z 0000000180023c8c f   libconcrt:Exceptions.obj
 0001:00022cd8       ??0improper_scheduler_attach@Concurrency@@QEAA@XZ 0000000180023cd8 f   libconcrt:Exceptions.obj
 0001:00022cf0       ??0improper_scheduler_reference@Concurrency@@QEAA@XZ 0000000180023cf0 f   libconcrt:Exceptions.obj
 0001:00022d08       ??0invalid_oversubscribe_operation@Concurrency@@QEAA@XZ 0000000180023d08 f   libconcrt:Exceptions.obj
 0001:00022d20       ??0invalid_scheduler_policy_key@Concurrency@@QEAA@PEBD@Z 0000000180023d20 f   libconcrt:Exceptions.obj
 0001:00022d6c       ??0invalid_scheduler_policy_thread_specification@Concurrency@@QEAA@XZ 0000000180023d6c f   libconcrt:Exceptions.obj
 0001:00022d84       ??0invalid_scheduler_policy_value@Concurrency@@QEAA@PEBD@Z 0000000180023d84 f   libconcrt:Exceptions.obj
 0001:00022dd0       ??0missing_wait@Concurrency@@QEAA@XZ 0000000180023dd0 f   libconcrt:Exceptions.obj
 0001:00022de8       ??0nested_scheduler_missing_detach@Concurrency@@QEAA@XZ 0000000180023de8 f   libconcrt:Exceptions.obj
 0001:00022e00       ??0scheduler_resource_allocation_error@Concurrency@@QEAA@J@Z 0000000180023e00 f   libconcrt:Exceptions.obj
 0001:00022e1c       ??0scheduler_worker_creation_error@Concurrency@@QEAA@J@Z 0000000180023e1c f   libconcrt:Exceptions.obj
 0001:00022e38       ??0unsupported_os@Concurrency@@QEAA@XZ 0000000180023e38 f   libconcrt:Exceptions.obj
 0001:00022e50       ??_Escheduler_resource_allocation_error@Concurrency@@UEAAPEAXI@Z 0000000180023e50 f i libconcrt:Platform.obj
 0001:00022e50       ??_Escheduler_worker_creation_error@Concurrency@@UEAAPEAXI@Z 0000000180023e50 f i libconcrt:Exceptions.obj
 0001:00022e50       ??_Gscheduler_worker_creation_error@Concurrency@@UEAAPEAXI@Z 0000000180023e50 f i libconcrt:Exceptions.obj
 0001:00022e50       ??_Gscheduler_resource_allocation_error@Concurrency@@UEAAPEAXI@Z 0000000180023e50 f i libconcrt:Platform.obj
 0001:00022e94       ?Block@Context@Concurrency@@SAXXZ 0000000180023e94 f   libconcrt:Context.obj
 0001:00022ee8       ?CurrentContext@Context@Concurrency@@SAPEAV12@XZ 0000000180023ee8 f   libconcrt:Context.obj
 0001:00022f14       ??0HardwareAffinity@details@Concurrency@@QEAA@PEAX@Z 0000000180023f14 f   libconcrt:ResourceManager.obj
 0001:00022f40       ??0ResourceManager@details@Concurrency@@AEAA@XZ 0000000180023f40 f   libconcrt:ResourceManager.obj
 0001:00023060       ??0invalid_operation@Concurrency@@QEAA@AEBV01@@Z 0000000180024060 f i libconcrt:ResourceManager.obj
 0001:000230a0       ??0invalid_operation@Concurrency@@QEAA@XZ 00000001800240a0 f i libconcrt:ResourceManager.obj
 0001:000230b8       ??0unsupported_os@Concurrency@@QEAA@AEBV01@@Z 00000001800240b8 f i libconcrt:ResourceManager.obj
 0001:000230f8       ??1GlobalNode@details@Concurrency@@QEAA@XZ 00000001800240f8 f i libconcrt:ResourceManager.obj
 0001:00023108       ??1ResourceManager@details@Concurrency@@AEAA@XZ 0000000180024108 f   libconcrt:ResourceManager.obj
 0001:00023240       ??1_Scoped_lock@_NonReentrantBlockingLock@details@Concurrency@@QEAA@XZ 0000000180024240 f i libconcrt:ResourceManager.obj
 0001:0002325c       ??1_Scoped_lock@_NonReentrantLock@details@Concurrency@@QEAA@XZ 000000018002425c f i libconcrt:ResourceManager.obj
 0001:00023268       ?AdjustDynamicAllocation@ResourceManager@details@Concurrency@@AEAAIIII@Z 0000000180024268 f   libconcrt:ResourceManager.obj
 0001:0002333c       ?ApplyAffinityRestrictions@ResourceManager@details@Concurrency@@CAXPEAU_GROUP_AFFINITY@@@Z 000000018002433c f   libconcrt:ResourceManager.obj
 0001:00023404       ?ApplyAffinityRestrictions@ResourceManager@details@Concurrency@@CAXPEA_K@Z 0000000180024404 f   libconcrt:ResourceManager.obj
 0001:0002343c       ?ApplyTo@HardwareAffinity@details@Concurrency@@QEAAXPEAX@Z 000000018002443c f   libconcrt:ResourceManager.obj
 0001:0002344c       ?CaptureProcessAffinity@ResourceManager@details@Concurrency@@CAXXZ 000000018002444c f   libconcrt:ResourceManager.obj
 0001:000235d4       ?CleanupTopologyInformation@ResourceManager@details@Concurrency@@CAXXZ 00000001800245d4 f   libconcrt:ResourceManager.obj
 0001:000235f8       ?CommitStolenCores@ResourceManager@details@Concurrency@@AEAAXPEAVSchedulerProxy@23@@Z 00000001800245f8 f   libconcrt:ResourceManager.obj
 0001:0002371c       ?CreateAllocatedNodeData@ResourceManager@details@Concurrency@@QEAAPEAUSchedulerNode@23@XZ 000000018002471c f   libconcrt:ResourceManager.obj
 0001:0002387c       ?CreateDynamicRMWorker@ResourceManager@details@Concurrency@@AEAAXXZ 000000018002487c f   libconcrt:ResourceManager.obj
 0001:000238f4       ?CreateResourceManager@Concurrency@@YAPEAUIResourceManager@1@XZ 00000001800248f4 f   libconcrt:ResourceManager.obj
 0001:000238fc       ?CreateSchedulerProxy@ResourceManager@details@Concurrency@@AEAAPEAVSchedulerProxy@23@PEAUIScheduler@3@@Z 00000001800248fc f   libconcrt:ResourceManager.obj
 0001:00023980       ?CreateSingleton@ResourceManager@details@Concurrency@@SAPEAV123@XZ 0000000180024980 f   libconcrt:ResourceManager.obj
 0001:00023a6c       ?CurrentSubscriptionLevel@ResourceManager@details@Concurrency@@QEAAIII@Z 0000000180024a6c f   libconcrt:ResourceManager.obj
 0001:00023b18       ?DestroyAllocatedNodeData@ResourceManager@details@Concurrency@@QEAAXPEAUSchedulerNode@23@@Z 0000000180024b18 f   libconcrt:ResourceManager.obj
 0001:00023b64       ?DetermineTopology@ResourceManager@details@Concurrency@@AEAAXXZ 0000000180024b64 f   libconcrt:ResourceManager.obj
 0001:00023f44       ?DiscardExistingSchedulerStatistics@ResourceManager@details@Concurrency@@AEAAXXZ 0000000180024f44 f   libconcrt:ResourceManager.obj
 0001:00023fc8       ?DistributeCoresToSurvivingScheduler@ResourceManager@details@Concurrency@@AEAA_NXZ 0000000180024fc8 f   libconcrt:ResourceManager.obj
 0001:000241bc       ?DistributeExclusiveCores@ResourceManager@details@Concurrency@@AEAAXIIIII@Z 00000001800251bc f   libconcrt:ResourceManager.obj
 0001:00024348       ?DistributeIdleCores@ResourceManager@details@Concurrency@@AEAAXII@Z 0000000180025348 f   libconcrt:ResourceManager.obj
 0001:0002450c       ?DoCoreMigration@ResourceManager@details@Concurrency@@AEAAXXZ 000000018002550c f   libconcrt:ResourceManager.obj
 0001:00024788       ?DynamicAssignCores@ResourceManager@details@Concurrency@@AEAAXPEAVSchedulerProxy@23@II_N@Z 0000000180025788 f   libconcrt:ResourceManager.obj
 0001:0002482c       ?DynamicMigrateCores@ResourceManager@details@Concurrency@@AEAAXPEAUDynamicAllocationData@23@PEAVSchedulerProxy@23@II@Z 000000018002582c f   libconcrt:ResourceManager.obj
 0001:00024a0c       ?DynamicRMThreadProc@ResourceManager@details@Concurrency@@CAKPEAX@Z 0000000180025a0c f   libconcrt:ResourceManager.obj
 0001:00024a24       ?DynamicResourceManager@ResourceManager@details@Concurrency@@AEAAXXZ 0000000180025a24 f   libconcrt:ResourceManager.obj
 0001:00024b40       ?FindBestFitExclusiveAllocation@ResourceManager@details@Concurrency@@AEAAIAEAI0PEAUDynamicAllocationData@23@II@Z 0000000180025b40 f   libconcrt:ResourceManager.obj
 0001:00024ef0       ?FindBestFitIdleAllocation@ResourceManager@details@Concurrency@@AEAAIIPEAUDynamicAllocationData@23@I@Z 0000000180025ef0 f   libconcrt:ResourceManager.obj
 0001:0002500c       ?FindCoreForPartiallyFilledNode@ResourceManager@details@Concurrency@@AEAA_NAEAI0PEAUDynamicAllocationData@23@I@Z 000000018002600c f   libconcrt:ResourceManager.obj
 0001:00025164       ?FlushStoreBuffers@ResourceManager@details@Concurrency@@QEAAXXZ 0000000180026164 f   libconcrt:ResourceManager.obj
 0001:000251a0       ?GetCoreCount@ResourceManager@details@Concurrency@@SAIXZ 00000001800261a0 f   libconcrt:ResourceManager.obj
 0001:00025224       ?GetCurrentNodeAndCore@ResourceManager@details@Concurrency@@QEAAIPEAI@Z 0000000180026224 f   libconcrt:ResourceManager.obj
 0001:00025364       ?GetExecutionResourceCount@TopologyObject@GlobalNode@details@Concurrency@@UEBAIXZ 0000000180026364 f i libconcrt:ResourceManager.obj
 0001:0002536c       ?GetFirstExecutionResource@TopologyObject@GlobalNode@details@Concurrency@@UEBAPEAUITopologyExecutionResource@4@XZ 000000018002636c f i libconcrt:ResourceManager.obj
 0001:0002537c       ?GetFirstNode@ResourceManager@details@Concurrency@@UEBAPEAUITopologyNode@3@XZ 000000018002637c f i libconcrt:ResourceManager.obj
 0001:00025388       ?GetId@TopologyObject@GlobalCore@details@Concurrency@@UEBAIXZ 0000000180026388 f i libconcrt:ResourceManager.obj
 0001:00025390       ?GetId@TopologyObject@GlobalNode@details@Concurrency@@UEBAIXZ 0000000180026390 f i libconcrt:ResourceManager.obj
 0001:00025398       ?GetNext@TopologyObject@GlobalCore@details@Concurrency@@UEBAPEAUITopologyExecutionResource@4@XZ 0000000180026398 f   libconcrt:ResourceManager.obj
 0001:000253ec       ?GetNext@TopologyObject@GlobalNode@details@Concurrency@@UEBAPEAUITopologyNode@4@XZ 00000001800263ec f   libconcrt:ResourceManager.obj
 0001:00025424       ?GetNodeCount@ResourceManager@details@Concurrency@@SAIXZ 0000000180026424 f   libconcrt:ResourceManager.obj
 0001:000254a8       ?GetNumaNode@TopologyObject@GlobalNode@details@Concurrency@@UEBAKXZ 00000001800264a8 f i libconcrt:ResourceManager.obj
 0001:000254b0       ?GetOSVersion@Concurrency@@YA?AW4OSVersion@IResourceManager@1@XZ 00000001800264b0 f   libconcrt:ResourceManager.obj
 0001:000254b8       ?GetProcessorCount@Concurrency@@YAIXZ 00000001800264b8 f   libconcrt:ResourceManager.obj
 0001:000254c0       ?GetProcessorNodeCount@Concurrency@@YAIXZ 00000001800264c0 f   libconcrt:ResourceManager.obj
 0001:000254c8       ?GetSchedulerId@Concurrency@@YAIXZ 00000001800264c8 f   libconcrt:ResourceManager.obj
 0001:000254d8       ?GetTopologyInformation@ResourceManager@details@Concurrency@@CAXW4_LOGICAL_PROCESSOR_RELATIONSHIP@@@Z 00000001800264d8 f   libconcrt:ResourceManager.obj
 0001:0002550c       ?HandleBorrowedCores@ResourceManager@details@Concurrency@@AEAAXPEAVSchedulerProxy@23@PEAUAllocationData@23@@Z 000000018002650c f   libconcrt:ResourceManager.obj
 0001:00025658       ?HandleSharedCores@ResourceManager@details@Concurrency@@AEAAXPEAVSchedulerProxy@23@PEAUDynamicAllocationData@23@@Z 0000000180026658 f   libconcrt:ResourceManager.obj
 0001:000257b0       ?IncreaseFullyLoadedSchedulerAllocations@ResourceManager@details@Concurrency@@AEAAXXZ 00000001800267b0 f   libconcrt:ResourceManager.obj
 0001:00025814       ?Initialize@GlobalNode@details@Concurrency@@QEAAXPEAVResourceManager@23@GG_KII@Z 0000000180026814 f i libconcrt:ResourceManager.obj
 0001:000259fc       ?InitializeRMBuffers@ResourceManager@details@Concurrency@@AEAAXXZ 00000001800269fc f   libconcrt:ResourceManager.obj
 0001:00025afc       ?InitializeSystemInformation@ResourceManager@details@Concurrency@@CAX_N@Z 0000000180026afc f   libconcrt:ResourceManager.obj
 0001:00025db4       ?PerformAllocation@ResourceManager@details@Concurrency@@QEAAPEAVExecutionResource@23@PEAVSchedulerProxy@23@_N1@Z 0000000180026db4 f   libconcrt:ResourceManager.obj
 0001:00025fd0       ?PopulateCommonAllocationData@ResourceManager@details@Concurrency@@AEAAXIPEAVSchedulerProxy@23@PEAUAllocationData@23@@Z 0000000180026fd0 f   libconcrt:ResourceManager.obj
 0001:000260a4       ?PopulateDynamicAllocationData@ResourceManager@details@Concurrency@@AEAAXXZ 00000001800270a4 f   libconcrt:ResourceManager.obj
 0001:00026210       ?PreProcessDynamicAllocationData@ResourceManager@details@Concurrency@@AEAAXXZ 0000000180027210 f   libconcrt:ResourceManager.obj
 0001:00026318       ?PreProcessStaticAllocationData@ResourceManager@details@Concurrency@@AEAAXXZ 0000000180027318 f   libconcrt:ResourceManager.obj
 0001:0002635c       ?PrepareReceiversForCoreTransfer@ResourceManager@details@Concurrency@@AEAAII@Z 000000018002735c f   libconcrt:ResourceManager.obj
 0001:000265dc       ?RedistributeCoresAmongAll@ResourceManager@details@Concurrency@@AEAAIPEAVSchedulerProxy@23@III@Z 00000001800275dc f   libconcrt:ResourceManager.obj
 0001:000269c8       ?Reference@ResourceManager@details@Concurrency@@UEAAIXZ 00000001800279c8 f   libconcrt:ResourceManager.obj
 0001:000269d8       ?RegisterScheduler@ResourceManager@details@Concurrency@@UEAAPEAUISchedulerProxy@3@PEAUIScheduler@3@I@Z 00000001800279d8 f   libconcrt:ResourceManager.obj
 0001:00026a3c       ?Release@ResourceManager@details@Concurrency@@UEAAIXZ 0000000180027a3c f   libconcrt:ResourceManager.obj
 0001:00026b30       ?ReleaseCoresOnExistingSchedulers@ResourceManager@details@Concurrency@@AEAAIPEAVSchedulerProxy@23@II@Z 0000000180027b30 f   libconcrt:ResourceManager.obj
 0001:00026bd4       ?ReleaseSchedulerResources@ResourceManager@details@Concurrency@@AEAA_NPEAVSchedulerProxy@23@0I@Z 0000000180027bd4 f   libconcrt:ResourceManager.obj
 0001:00026d00       ?RemoveExecutionResource@ResourceManager@details@Concurrency@@QEAAXPEAVExecutionResource@23@@Z 0000000180027d00 f   libconcrt:ResourceManager.obj
 0001:00026da8       ?RequestInitialVirtualProcessors@ResourceManager@details@Concurrency@@QEAAPEAUIExecutionResource@3@PEAVSchedulerProxy@23@_N@Z 0000000180027da8 f   libconcrt:ResourceManager.obj
 0001:00026f48       ?ReserveAtHigherUseCounts@ResourceManager@details@Concurrency@@AEAAIPEAVSchedulerProxy@23@I@Z 0000000180027f48 f   libconcrt:ResourceManager.obj
 0001:00026fac       ?ReserveCores@ResourceManager@details@Concurrency@@AEAAIPEAVSchedulerProxy@23@II@Z 0000000180027fac f   libconcrt:ResourceManager.obj
 0001:000271ac       ?ResetGlobalAllocationData@ResourceManager@details@Concurrency@@AEAAXXZ 00000001800281ac f   libconcrt:ResourceManager.obj
 0001:00027200       ?RetrieveSystemVersionInformation@ResourceManager@details@Concurrency@@CAXXZ 0000000180028200 f   libconcrt:ResourceManager.obj
 0001:00027318       ?RoundUpScaledAllocations@ResourceManager@details@Concurrency@@CAXPEAPEAUAllocationData@23@II@Z 0000000180028318 f   libconcrt:ResourceManager.obj
 0001:000274d0       ?SendResourceNotifications@ResourceManager@details@Concurrency@@QEAAXPEAVSchedulerProxy@23@@Z 00000001800284d0 f   libconcrt:ResourceManager.obj
 0001:00027698       ?SetupStaticAllocationData@ResourceManager@details@Concurrency@@AEAAXPEAVSchedulerProxy@23@_N@Z 0000000180028698 f   libconcrt:ResourceManager.obj
 0001:000277b4       ?Shutdown@ResourceManager@details@Concurrency@@QEAAXPEAVSchedulerProxy@23@@Z 00000001800287b4 f   libconcrt:ResourceManager.obj
 0001:000278dc       ?SubscribeCurrentThread@ResourceManager@details@Concurrency@@QEAAPEAVExecutionResource@23@PEAVSchedulerProxy@23@@Z 00000001800288dc f   libconcrt:ResourceManager.obj
 0001:00027954       ?ToggleRMIdleState@ResourceManager@details@Concurrency@@AEAAXPEAUSchedulerNode@23@PEAUSchedulerCore@23@PEAUGlobalNode@23@PEAUGlobalCore@23@PEAUAllocationData@23@@Z 0000000180028954 f   libconcrt:ResourceManager.obj
 0001:000279bc       ?Version@ResourceManager@details@Concurrency@@SA?AW4OSVersion@IResourceManager@3@XZ 00000001800289bc f   libconcrt:ResourceManager.obj
 0001:00027a3c       ??0?$ListArray@VWorkQueue@details@Concurrency@@@details@Concurrency@@QEAA@PEAVSchedulerBase@12@HH@Z 0000000180028a3c f i libconcrt:ScheduleGroupBase.obj
 0001:00027a3c       ??0?$ListArray@U?$ListArrayInlineLink@VWorkQueue@details@Concurrency@@@details@Concurrency@@@details@Concurrency@@QEAA@PEAVSchedulerBase@12@HH@Z 0000000180028a3c f i libconcrt:ScheduleGroupBase.obj
 0001:00027a3c       ??0?$ListArray@VScheduleGroupBase@details@Concurrency@@@details@Concurrency@@QEAA@PEAVSchedulerBase@12@HH@Z 0000000180028a3c f i libconcrt:SchedulerBase.obj
 0001:00027a3c       ??0?$ListArray@VVirtualProcessor@details@Concurrency@@@details@Concurrency@@QEAA@PEAVSchedulerBase@12@HH@Z 0000000180028a3c f i libconcrt:SchedulingNode.obj
 0001:00027a3c       ??0?$ListArray@VScheduleGroupSegmentBase@details@Concurrency@@@details@Concurrency@@QEAA@PEAVSchedulerBase@12@HH@Z 0000000180028a3c f i libconcrt:SchedulingRing.obj
 0001:00027a3c       ??0?$ListArray@VExternalStatistics@details@Concurrency@@@details@Concurrency@@QEAA@PEAVSchedulerBase@12@HH@Z 0000000180028a3c f i libconcrt:SchedulerBase.obj
 0001:00027b6c       ??0NumaInformation@SchedulerBase@details@Concurrency@@QEAA@XZ 0000000180028b6c f i libconcrt:SchedulerBase.obj
 0001:00027b80       ??0SchedulerBase@details@Concurrency@@QEAA@AEBVSchedulerPolicy@2@@Z 0000000180028b80 f   libconcrt:SchedulerBase.obj
 0001:00027f74       ??0improper_scheduler_attach@Concurrency@@QEAA@AEBV01@@Z 0000000180028f74 f i libconcrt:SchedulerBase.obj
 0001:00027fb4       ??0improper_scheduler_reference@Concurrency@@QEAA@AEBV01@@Z 0000000180028fb4 f i libconcrt:SchedulerBase.obj
 0001:00027ff4       ??1?$Hash@II@details@Concurrency@@QEAA@XZ 0000000180028ff4 f i libconcrt:SchedulerBase.obj
 0001:00028010       ??1?$ListArray@VExternalStatistics@details@Concurrency@@@details@Concurrency@@QEAA@XZ 0000000180029010 f i libconcrt:SchedulerBase.obj
 0001:00028104       ??1?$ListArray@VScheduleGroupBase@details@Concurrency@@@details@Concurrency@@QEAA@XZ 0000000180029104 f i libconcrt:SchedulerBase.obj
 0001:00028248       ??1NumaInformation@SchedulerBase@details@Concurrency@@QEAA@XZ 0000000180029248 f i libconcrt:SchedulerBase.obj
 0001:00028268       ??1QuickBitSet@details@Concurrency@@QEAA@XZ 0000000180029268 f i libconcrt:SchedulerBase.obj
 0001:00028274       ??1ReferenceCountedQuickBitSet@details@Concurrency@@QEAA@XZ 0000000180029274 f i libconcrt:SchedulerBase.obj
 0001:00028294       ??1ScheduleGroup@Concurrency@@MEAA@XZ 0000000180029294 f i libconcrt:SchedulerBase.obj
 0001:000282a0       ??1Scheduler@Concurrency@@MEAA@XZ 00000001800292a0 f i libconcrt:SchedulerBase.obj
 0001:000282ac       ??1SchedulerBase@details@Concurrency@@UEAA@XZ 00000001800292ac f   libconcrt:SchedulerBase.obj
 0001:0002839c       ??1_Scoped_lock@_HyperNonReentrantLock@details@Concurrency@@QEAA@XZ 000000018002939c f i libconcrt:SchedulerBase.obj
 0001:000283b8       ??_GFairScheduleGroupSegment@details@Concurrency@@UEAAPEAXI@Z 00000001800293b8 f i libconcrt:SchedulerBase.obj
 0001:000283b8       ??_ECacheLocalScheduleGroupSegment@details@Concurrency@@UEAAPEAXI@Z 00000001800293b8 f i libconcrt:SchedulerBase.obj
 0001:000283b8       ??_GCacheLocalScheduleGroupSegment@details@Concurrency@@UEAAPEAXI@Z 00000001800293b8 f i libconcrt:SchedulerBase.obj
 0001:000283b8       ??_EFairScheduleGroupSegment@details@Concurrency@@UEAAPEAXI@Z 00000001800293b8 f i libconcrt:SchedulerBase.obj
 0001:000283ec       ??_EFairScheduleGroup@details@Concurrency@@UEAAPEAXI@Z 00000001800293ec f i libconcrt:SchedulerBase.obj
 0001:000283ec       ??_GFairScheduleGroup@details@Concurrency@@UEAAPEAXI@Z 00000001800293ec f i libconcrt:SchedulerBase.obj
 0001:00028418       ??_GRealizedChore@details@Concurrency@@UEAAPEAXI@Z 0000000180029418 f i libconcrt:SchedulerBase.obj
 0001:00028418       ??_ERealizedChore@details@Concurrency@@UEAAPEAXI@Z 0000000180029418 f i libconcrt:SchedulerBase.obj
 0001:00028444       ??_EScheduleGroup@Concurrency@@MEAAPEAXI@Z 0000000180029444 f i libconcrt:SchedulerBase.obj
 0001:00028444       ??_GScheduleGroup@Concurrency@@MEAAPEAXI@Z 0000000180029444 f i libconcrt:SchedulerBase.obj
 0001:00028470       ??_GScheduler@Concurrency@@MEAAPEAXI@Z 0000000180029470 f i libconcrt:SchedulerBase.obj
 0001:00028470       ??_EScheduler@Concurrency@@MEAAPEAXI@Z 0000000180029470 f i libconcrt:SchedulerBase.obj
 0001:0002849c       ??_GSchedulerBase@details@Concurrency@@UEAAPEAXI@Z 000000018002949c f i libconcrt:SchedulerBase.obj
 0001:0002849c       ??_ESchedulerBase@details@Concurrency@@UEAAPEAXI@Z 000000018002949c f i libconcrt:SchedulerBase.obj
 0001:000284d0       ??_G_Chore@details@Concurrency@@MEAAPEAXI@Z 00000001800294d0 f i libconcrt:SchedulerBase.obj
 0001:000284d0       ??_E_Chore@details@Concurrency@@MEAAPEAXI@Z 00000001800294d0 f i libconcrt:SchedulerBase.obj
 0001:000284fc       ?Add@?$ListArray@VScheduleGroupBase@details@Concurrency@@@details@Concurrency@@QEAAHPEAVScheduleGroupBase@23@@Z 00000001800294fc f i libconcrt:SchedulerBase.obj
 0001:00028678       ?AddContext@SchedulerBase@details@Concurrency@@QEAAXPEAVInternalContextBase@23@@Z 0000000180029678 f   libconcrt:SchedulerBase.obj
 0001:000286d0       ?AddTail@?$SafeRWList@VWaitNode@SchedulerBase@details@Concurrency@@VNoCount@CollectionTypes@34@V_ReaderWriterLock@34@@details@Concurrency@@QEAAXPEAVWaitNode@SchedulerBase@23@@Z 00000001800296d0 f i libconcrt:SchedulerBase.obj
 0001:00028744       ?AddVirtualProcessors@SchedulerBase@details@Concurrency@@IEAAXPEAPEAUIVirtualProcessorRoot@3@I@Z 0000000180029744 f   libconcrt:SchedulerBase.obj
 0001:00028838       ?AllocateSegment@CacheLocalScheduleGroup@details@Concurrency@@MEAAPEAVScheduleGroupSegmentBase@23@PEAVSchedulingRing@23@PEAVlocation@3@@Z 0000000180029838 f i libconcrt:SchedulerBase.obj
 0001:000288c4       ?AllocateSegment@FairScheduleGroup@details@Concurrency@@MEAAPEAVScheduleGroupSegmentBase@23@PEAVSchedulingRing@23@PEAVlocation@3@@Z 00000001800298c4 f i libconcrt:SchedulerBase.obj
 0001:00028954       ?Attach@SchedulerBase@details@Concurrency@@UEAAXXZ 0000000180029954 f   libconcrt:SchedulerBase.obj
 0001:000289bc       ?AttachExternalContext@SchedulerBase@details@Concurrency@@AEAAPEAVExternalContextBase@23@_N@Z 00000001800299bc f   libconcrt:SchedulerBase.obj
 0001:00028a54       ?AttemptSchedulerSweep@SchedulerBase@details@Concurrency@@IEAAXXZ 0000000180029a54 f   libconcrt:SchedulerBase.obj
 0001:00028a78       ?CancelAllContexts@SchedulerBase@details@Concurrency@@MEAAXXZ 0000000180029a78 f   libconcrt:SchedulerBase.obj
 0001:00028ad8       ?ChangeThrottlingTimer@SchedulerBase@details@Concurrency@@AEAAXK@Z 0000000180029ad8 f   libconcrt:SchedulerBase.obj
 0001:00028b3c       ?CheckForDeletion@?$ListArray@VScheduleGroupBase@details@Concurrency@@@details@Concurrency@@AEAAXXZ 0000000180029b3c f i libconcrt:SchedulerBase.obj
 0001:00028bc4       ?CheckForDeletionBridge@?$ListArray@VExternalStatistics@details@Concurrency@@@details@Concurrency@@CAXPEAV123@@Z 0000000180029bc4 f i libconcrt:SchedulerBase.obj
 0001:00028c20       ?CheckForDeletionBridge@?$ListArray@VScheduleGroupBase@details@Concurrency@@@details@Concurrency@@CAXPEAV123@@Z 0000000180029c20 f i libconcrt:SchedulerBase.obj
 0001:00028c28       ?CheckOneShotStaticDestruction@SchedulerBase@details@Concurrency@@SAXXZ 0000000180029c28 f   libconcrt:SchedulerBase.obj
 0001:00028c68       ?CheckStaticConstruction@SchedulerBase@details@Concurrency@@CAXXZ 0000000180029c68 f   libconcrt:SchedulerBase.obj
 0001:00028d18       ?Cleanup@SchedulerBase@details@Concurrency@@AEAAXXZ 0000000180029d18 f   libconcrt:SchedulerBase.obj
 0001:00028e38       ?CommitSafePoints@SchedulerBase@details@Concurrency@@QEAAXXZ 0000000180029e38 f   libconcrt:SchedulerBase.obj
 0001:00028ea0       ?CommitToVersion@SchedulerBase@details@Concurrency@@AEAAXK@Z 0000000180029ea0 f   libconcrt:SchedulerBase.obj
 0001:00028f78       ?ComputeSafePointCommitVersion@SchedulerBase@details@Concurrency@@AEAAKXZ 0000000180029f78 f   libconcrt:SchedulerBase.obj
 0001:000290a4       ?CopyFrom@QuickBitSet@details@Concurrency@@IEAAXAEBV123@@Z 000000018002a0a4 f i libconcrt:SchedulerBase.obj
 0001:00029128       ?CreateContextFromDefaultScheduler@SchedulerBase@details@Concurrency@@SAPEAVContextBase@23@XZ 000000018002a128 f   libconcrt:SchedulerBase.obj
 0001:00029174       ?CreateScheduleGroup@SchedulerBase@details@Concurrency@@UEAAPEAVScheduleGroup@3@AEAVlocation@3@@Z 000000018002a174 f i libconcrt:SchedulerBase.obj
 0001:0002917c       ?CreateScheduleGroup@SchedulerBase@details@Concurrency@@UEAAPEAVScheduleGroup@3@XZ 000000018002a17c f i libconcrt:SchedulerBase.obj
 0001:000291a4       ?CreateWithoutInitializing@SchedulerBase@details@Concurrency@@SAPEAV123@AEBVSchedulerPolicy@3@@Z 000000018002a1a4 f   libconcrt:SchedulerBase.obj
 0001:000291d4       ?DecrementInternalContextCount@SchedulerBase@details@Concurrency@@QEAAXXZ 000000018002a1d4 f   libconcrt:SchedulerBase.obj
 0001:000291f4       ?DeferredGetInternalContext@SchedulerBase@details@Concurrency@@QEAAXXZ 000000018002a1f4 f   libconcrt:SchedulerBase.obj
 0001:00029220       ?Dequeue@?$SafeSQueue@VInternalContextBase@details@Concurrency@@V_HyperNonReentrantLock@23@@details@Concurrency@@QEAAPEAVInternalContextBase@23@XZ 000000018002a220 f i libconcrt:SchedulerBase.obj
 0001:00029284       ?DestroySchedulerEventHandlers@SchedulerBase@details@Concurrency@@MEAAXXZ 000000018002a284 f   libconcrt:SchedulerBase.obj
 0001:000292f4       ?DetachExternalContext@SchedulerBase@details@Concurrency@@AEAAXPEAVExternalContextBase@23@_N@Z 000000018002a2f4 f   libconcrt:SchedulerBase.obj
 0001:00029358       ?FastCurrentContext@SchedulerBase@details@Concurrency@@SAPEAVContextBase@23@XZ 000000018002a358 f   libconcrt:SchedulerBase.obj
 0001:00029364       ?FastCurrentScheduler@SchedulerBase@details@Concurrency@@SAPEAV123@XZ 000000018002a364 f   libconcrt:SchedulerBase.obj
 0001:00029388       ?Fill@QuickBitSet@details@Concurrency@@QEAAXXZ 000000018002a388 f i libconcrt:SchedulerBase.obj
 0001:00029410       ?Finalize@SchedulerBase@details@Concurrency@@AEAAXXZ 000000018002a410 f   libconcrt:SchedulerBase.obj
 0001:000295d4       ?Find@?$Hash@II@details@Concurrency@@QEAAPEAUListNode@123@AEBIPEAI@Z 000000018002a5d4 f i libconcrt:SchedulerBase.obj
 0001:00029650       ?FindCurrentNode@SchedulerBase@details@Concurrency@@QEAAPEAVSchedulingNode@23@XZ 000000018002a650 f   libconcrt:SchedulerBase.obj
 0001:000296b4       ?FindNodeByLocation@SchedulerBase@details@Concurrency@@QEAAPEAVSchedulingNode@23@PEAVlocation@3@@Z 000000018002a6b4 f   libconcrt:SchedulerBase.obj
 0001:0002971c       ?FindScheduleGroupSegment@SchedulingRing@details@Concurrency@@AEAAPEAVScheduleGroupSegmentBase@23@HHPEAHPEAV?$ListArray@VScheduleGroupSegmentBase@details@Concurrency@@@23@@Z 000000018002a71c f i libconcrt:SchedulerBase.obj
 0001:000297b4       ?FindVirtualProcessor@SchedulingNode@details@Concurrency@@QEAAPEAVVirtualProcessor@23@HHPEAH@Z 000000018002a7b4 f i libconcrt:SchedulerBase.obj
 0001:00029860       ?FoundAvailableVirtualProcessor@SchedulerBase@details@Concurrency@@QEAA_NAEAVClaimTicket@VirtualProcessor@23@Vlocation@3@K@Z 000000018002a860 f   libconcrt:SchedulerBase.obj
 0001:000299cc       ?FoundBlockedContexts@SchedulerBase@details@Concurrency@@AEAA_NXZ 000000018002a9cc f   libconcrt:SchedulerBase.obj
 0001:00029a00       ?FoundUnstartedChores@SchedulerBase@details@Concurrency@@AEAA_NXZ 000000018002aa00 f   libconcrt:SchedulerBase.obj
 0001:00029bd0       ?GetAnonymousScheduleGroupSegment@SchedulerBase@details@Concurrency@@QEAAPEAVScheduleGroupSegmentBase@23@XZ 000000018002abd0 f   libconcrt:SchedulerBase.obj
 0001:00029be4       ?GetBitSet@SchedulerBase@details@Concurrency@@QEAA?AVQuickBitSet@23@PEBVlocation@3@@Z 000000018002abe4 f   libconcrt:SchedulerBase.obj
 0001:00029cec       ?GetDefaultScheduler@SchedulerBase@details@Concurrency@@CAPEAV123@XZ 000000018002acec f   libconcrt:SchedulerBase.obj
 0001:00029dd8       ?GetExternalContext@SchedulerBase@details@Concurrency@@AEAAPEAVExternalContextBase@23@_N@Z 000000018002add8 f   libconcrt:SchedulerBase.obj
 0001:00029e58       ?GetInternalContext@SchedulerBase@details@Concurrency@@QEAAPEAVInternalContextBase@23@_N@Z 000000018002ae58 f   libconcrt:SchedulerBase.obj
 0001:00029fa8       ?GetNewContextId@SchedulerBase@details@Concurrency@@QEAAIXZ 000000018002afa8 f   libconcrt:SchedulerBase.obj
 0001:00029fb8       ?GetNewScheduleGroupId@SchedulerBase@details@Concurrency@@QEAAIXZ 000000018002afb8 f   libconcrt:SchedulerBase.obj
 0001:00029fc8       ?GetNewWorkQueueId@SchedulerBase@details@Concurrency@@SAIXZ 000000018002afc8 f   libconcrt:SchedulerBase.obj
 0001:00029fd8       ?GetNextPriorityObject@SchedulerBase@details@Concurrency@@QEAAPEAUBoostedObject@23@XZ 000000018002afd8 f   libconcrt:SchedulerBase.obj
 0001:0002a05c       ?GetNextScheduleGroupSegment@SchedulingRing@details@Concurrency@@AEAAPEAVScheduleGroupSegmentBase@23@PEAHHPEAV?$ListArray@VScheduleGroupSegmentBase@details@Concurrency@@@23@@Z 000000018002b05c f i libconcrt:SchedulerBase.obj
 0001:0002a0d4       ?GetNextSchedulingRing@SchedulerBase@details@Concurrency@@QEAAPEAVSchedulingRing@23@PEBV423@PEAV423@@Z 000000018002b0d4 f   libconcrt:SchedulerBase.obj
 0001:0002a114       ?GetNextSchedulingRing@SchedulerBase@details@Concurrency@@QEAAPEAVSchedulingRing@23@XZ 000000018002b114 f   libconcrt:SchedulerBase.obj
 0001:0002a150       ?GetAvailableNodeCount@ResourceManager@details@Concurrency@@UEBAIXZ 000000018002b150 f i libconcrt:ResourceManager.obj
 0001:0002a150       ?GetNumberOfVirtualProcessors@SchedulerBase@details@Concurrency@@UEBAIXZ 000000018002b150 f i libconcrt:SchedulerBase.obj
 0001:0002a154       ?GetPolicy@SchedulerBase@details@Concurrency@@UEBA?AVSchedulerPolicy@3@XZ 000000018002b154 f   libconcrt:SchedulerBase.obj
 0001:0002a174       ?GetRealizedChore@SchedulerBase@details@Concurrency@@QEAAPEAVRealizedChore@23@P6AXPEAX@Z0@Z 000000018002b174 f   libconcrt:SchedulerBase.obj
 0001:0002a1d8       ?GetRunnableContext@CacheLocalScheduleGroupSegment@details@Concurrency@@EEAAPEAVInternalContextBase@23@XZ 000000018002b1d8 f i libconcrt:SchedulerBase.obj
 0001:0002a1d8       ?GetRunnableContext@FairScheduleGroupSegment@details@Concurrency@@EEAAPEAVInternalContextBase@23@XZ 000000018002b1d8 f i libconcrt:SchedulerBase.obj
 0001:0002a1f0       ?GetSubAllocator@SchedulerBase@details@Concurrency@@SAPEAVSubAllocator@23@_N@Z 000000018002b1f0 f   libconcrt:SchedulerBase.obj
 0001:0002a294       ?GetValidSchedulingRingIndex@SchedulerBase@details@Concurrency@@AEAAHH@Z 000000018002b294 f   libconcrt:SchedulerBase.obj
 0001:0002a2cc       ?Grow@QuickBitSet@details@Concurrency@@QEAAXI@Z 000000018002b2cc f i libconcrt:SchedulerBase.obj
 0001:0002a374       ?Grow@ReferenceCountedQuickBitSet@details@Concurrency@@QEAAXI@Z 000000018002b374 f i libconcrt:SchedulerBase.obj
 0001:0002a418       ?HasCompletedShutdown@SchedulerBase@details@Concurrency@@QEAA_NXZ 000000018002b418 f   libconcrt:SchedulerBase.obj
 0001:0002a42c       ?Id@SchedulerBase@details@Concurrency@@UEBAIXZ 000000018002b42c f i libconcrt:SchedulerBase.obj
 0001:0002a434       ?Initialize@SchedulerBase@details@Concurrency@@AEAAXXZ 000000018002b434 f   libconcrt:SchedulerBase.obj
 0001:0002aa00       ?InitializeSchedulerEventHandlers@SchedulerBase@details@Concurrency@@MEAAXXZ 000000018002ba00 f   libconcrt:SchedulerBase.obj
 0001:0002aa08       ?Insert@?$Hash@II@details@Concurrency@@QEAAPEAUListNode@123@AEBI0@Z 000000018002ba08 f i libconcrt:SchedulerBase.obj
 0001:0002aae4       ?InternalCreateScheduleGroup@SchedulerBase@details@Concurrency@@AEAAPEAVScheduleGroup@3@PEAVlocation@3@@Z 000000018002bae4 f   libconcrt:SchedulerBase.obj
 0001:0002abf4       ?InternalRelease@ScheduleGroupBase@details@Concurrency@@IEAAJXZ 000000018002bbf4 f i libconcrt:SchedulerBase.obj
 0001:0002ac60       ?InvokeAtNextSafePoint@SafePointInvocation@details@Concurrency@@QEAAXP6AXPEAX@Z0PEAVSchedulerBase@23@@Z 000000018002bc60 f   libconcrt:SchedulerBase.obj
 0001:0002acac       ?InvokeOnSafePoint@SchedulerBase@details@Concurrency@@AEAAXPEAVSafePointInvocation@23@@Z 000000018002bcac f   libconcrt:SchedulerBase.obj
 0001:0002ad24       ?IsAvailableLocation@SchedulerBase@details@Concurrency@@UEBA_NAEBVlocation@3@@Z 000000018002bd24 f   libconcrt:SchedulerBase.obj
 0001:0002ad88       ?MailChore@FairScheduleGroup@details@Concurrency@@UEAA?AVSlot@?$Mailbox@V_UnrealizedChore@details@Concurrency@@@23@PEAV_UnrealizedChore@23@PEAVlocation@3@PEAPEAVScheduleGroupSegmentBase@23@@Z 000000018002bd88 f i libconcrt:SchedulerBase.obj
 0001:0002ad94       ?MarkSafePoint@SchedulerBase@details@Concurrency@@QEAA_NPEAVSafePointMarker@23@@Z 000000018002bd94 f   libconcrt:SchedulerBase.obj
 0001:0002adac       ?NotifyThrottledContext@SchedulerBase@details@Concurrency@@AEAA_NPEAVInternalContextBase@23@@Z 000000018002bdac f   libconcrt:SchedulerBase.obj
 0001:0002ae5c       ?PerformServiceScan@SchedulerBase@details@Concurrency@@AEAAX_K@Z 000000018002be5c f   libconcrt:SchedulerBase.obj
 0001:0002b134       ?PhaseOneShutdown@SchedulerBase@details@Concurrency@@AEAAXXZ 000000018002c134 f   libconcrt:SchedulerBase.obj
 0001:0002b210       ?PhaseTwoShutdown@SchedulerBase@details@Concurrency@@AEAAXXZ 000000018002c210 f   libconcrt:SchedulerBase.obj
 0001:0002b2f8       ?PushRunnableToInactive@SchedulerBase@details@Concurrency@@UEAA_NPEAVInternalContextBase@23@Vlocation@3@@Z 000000018002c2f8 f   libconcrt:SchedulerBase.obj
 0001:0002b3c0       ?Reference@ScheduleGroupBase@details@Concurrency@@UEAAIXZ 000000018002c3c0 f i libconcrt:SchedulerBase.obj
 0001:0002b3d8       ?Reference@SchedulerBase@details@Concurrency@@UEAAIXZ 000000018002c3d8 f   libconcrt:SchedulerBase.obj
 0001:0002b464       ?ReferenceForAttach@SchedulerBase@details@Concurrency@@IEAAXXZ 000000018002c464 f   libconcrt:SchedulerBase.obj
 0001:0002b49c       ?RegisterShutdownEvent@SchedulerBase@details@Concurrency@@UEAAXPEAX@Z 000000018002c49c f   libconcrt:SchedulerBase.obj
 0001:0002b588       ?Release@ScheduleGroupBase@details@Concurrency@@UEAAIXZ 000000018002c588 f i libconcrt:SchedulerBase.obj
 0001:0002b590       ?Release@SchedulerBase@details@Concurrency@@UEAAIXZ 000000018002c590 f   libconcrt:SchedulerBase.obj
 0001:0002b5b4       ?ReleaseExternalContext@SchedulerBase@details@Concurrency@@AEAAXPEAVExternalContextBase@23@@Z 000000018002c5b4 f   libconcrt:SchedulerBase.obj
 0001:0002b62c       ?ReleaseForDetach@SchedulerBase@details@Concurrency@@IEAAXXZ 000000018002c62c f   libconcrt:SchedulerBase.obj
 0001:0002b664       ?ReleaseInternalContext@SchedulerBase@details@Concurrency@@QEAAXPEAVInternalContextBase@23@_N@Z 000000018002c664 f   libconcrt:SchedulerBase.obj
 0001:0002b6d0       ?ReleaseRealizedChore@SchedulerBase@details@Concurrency@@QEAAXPEAVRealizedChore@23@@Z 000000018002c6d0 f   libconcrt:SchedulerBase.obj
 0001:0002b740       ?ReleaseReservedContexts@SchedulerBase@details@Concurrency@@QEAAXXZ 000000018002c740 f   libconcrt:SchedulerBase.obj
 0001:0002b7dc       ?Remove@?$ListArray@VExternalStatistics@details@Concurrency@@@details@Concurrency@@QEAA_NPEAVExternalStatistics@23@H_N@Z 000000018002c7dc f i libconcrt:SchedulerBase.obj
 0001:0002b930       ?Remove@?$ListArray@VScheduleGroupBase@details@Concurrency@@@details@Concurrency@@QEAA_NPEAVScheduleGroupBase@23@H_N@Z 000000018002c930 f i libconcrt:SchedulerBase.obj
 0001:0002ba84       ?RemoveHead@?$SafeRWList@VWaitNode@SchedulerBase@details@Concurrency@@VNoCount@CollectionTypes@34@V_ReaderWriterLock@34@@details@Concurrency@@QEAAPEAVWaitNode@SchedulerBase@23@XZ 000000018002ca84 f i libconcrt:SchedulerBase.obj
 0001:0002baf0       ?RemovePrioritizedObject@SchedulerBase@details@Concurrency@@QEAAXPEAUBoostedObject@23@@Z 000000018002caf0 f   libconcrt:SchedulerBase.obj
 0001:0002bb70       ?RemoveScheduleGroup@SchedulerBase@details@Concurrency@@QEAAXPEAVScheduleGroupBase@23@@Z 000000018002cb70 f   libconcrt:SchedulerBase.obj
 0001:0002bb84       ?RemoveSegments@FairScheduleGroup@details@Concurrency@@MEAAXXZ 000000018002cb84 f i libconcrt:SchedulerBase.obj
 0001:0002bba0       ?RemoveVirtualProcessors@SchedulerBase@details@Concurrency@@IEAAXPEAPEAUIVirtualProcessorRoot@3@I@Z 000000018002cba0 f   libconcrt:SchedulerBase.obj
 0001:0002bcc8       ?Resurrect@SchedulerBase@details@Concurrency@@AEAAXXZ 000000018002ccc8 f   libconcrt:SchedulerBase.obj
 0001:0002bd38       ?ReturnSubAllocator@SchedulerBase@details@Concurrency@@SAXPEAVSubAllocator@23@@Z 000000018002cd38 f   libconcrt:SchedulerBase.obj
 0001:0002bdb0       ?SafeFastCurrentContext@SchedulerBase@details@Concurrency@@SAPEAVContextBase@23@XZ 000000018002cdb0 f   libconcrt:SchedulerBase.obj
 0001:0002bdcc       ?SafeReference@SchedulerBase@details@Concurrency@@AEAA_NXZ 000000018002cdcc f   libconcrt:SchedulerBase.obj
 0001:0002bdf0       ?ScheduleTask@SchedulerBase@details@Concurrency@@UEAAXP6AXPEAX@Z0@Z 000000018002cdf0 f   libconcrt:SchedulerBase.obj
 0001:0002be74       ?ScheduleTask@SchedulerBase@details@Concurrency@@UEAAXP6AXPEAX@Z0AEAVlocation@3@@Z 000000018002ce74 f   libconcrt:SchedulerBase.obj
 0001:0002bef8       ?SetNextSchedulingRing@SchedulerBase@details@Concurrency@@QEAAXPEAVSchedulingRing@23@@Z 000000018002cef8 f   libconcrt:SchedulerBase.obj
 0001:0002bf2c       ?StartupNewVirtualProcessor@SchedulerBase@details@Concurrency@@UEAAXPEAVScheduleGroupSegmentBase@23@Vlocation@3@@Z 000000018002cf2c f i libconcrt:SchedulerBase.obj
 0001:0002bf68       ?StartupVirtualProcessor@SchedulerBase@details@Concurrency@@QEAA_NPEAVScheduleGroupSegmentBase@23@Vlocation@3@K@Z 000000018002cf68 f   libconcrt:SchedulerBase.obj
 0001:0002c024       ?StaticDestruction@SchedulerBase@details@Concurrency@@CAXXZ 000000018002d024 f   libconcrt:SchedulerBase.obj
 0001:0002c0d8       ?Statistics@SchedulerBase@details@Concurrency@@IEAAXPEAI00@Z 000000018002d0d8 f   libconcrt:SchedulerBase.obj
 0001:0002c340       ?SweepSchedulerForFinalize@SchedulerBase@details@Concurrency@@AEAAXXZ 000000018002d340 f   libconcrt:SchedulerBase.obj
 0001:0002c424       ?ThrottlerDispatch@SchedulerBase@details@Concurrency@@AEAAXXZ 000000018002d424 f   libconcrt:SchedulerBase.obj
 0001:0002c578       ?ThrottlerDispatchBridge@SchedulerBase@details@Concurrency@@CAXPEAU_TP_CALLBACK_INSTANCE@@PEAXPEAU_TP_TIMER@@@Z 000000018002d578 f i libconcrt:SchedulerBase.obj
 0001:0002c580       ?ThrottlerDispatchBridgeXP@SchedulerBase@details@Concurrency@@CAXPEAXE@Z 000000018002d580 f i libconcrt:SchedulerBase.obj
 0001:0002c588       ?ThrottlerTrampoline@SchedulerBase@details@Concurrency@@CAXPEAXE@Z 000000018002d588 f   libconcrt:SchedulerBase.obj
 0001:0002c5d0       ?ThrottlingTime@SchedulerBase@details@Concurrency@@QEAAKK@Z 000000018002d5d0 f   libconcrt:SchedulerBase.obj
 0001:0002c6a0       ?ThrowSchedulerEvent@SchedulerBase@details@Concurrency@@CAXW4ConcRT_EventType@3@EI@Z 000000018002d6a0 f   libconcrt:SchedulerBase.obj
 0001:0002c728       ?TriggerCommitSafePoints@SchedulerBase@details@Concurrency@@QEAAXPEAVSafePointMarker@23@@Z 000000018002d728 f   libconcrt:SchedulerBase.obj
 0001:0002c788       ?TypeOfWorkPending@SchedulerBase@details@Concurrency@@MEAA?AW4PendingWorkType@123@XZ 000000018002d788 f   libconcrt:SchedulerBase.obj
 0001:0002c7d0       ?UpdateCommitVersion@SchedulerBase@details@Concurrency@@AEAAKK@Z 000000018002d7d0 f   libconcrt:SchedulerBase.obj
 0001:0002c81c       ?UpdatePendingVersion@SchedulerBase@details@Concurrency@@AEAAKXZ 000000018002d81c f   libconcrt:SchedulerBase.obj
 0001:0002c860       ?VirtualProcessorActive@SchedulerBase@details@Concurrency@@QEAA_N_N@Z 000000018002d860 f   libconcrt:SchedulerBase.obj
 0001:0002c968       ?VirtualProcessorIdle@SchedulerBase@details@Concurrency@@QEAAX_N@Z 000000018002d968 f   libconcrt:SchedulerBase.obj
 0001:0002c9dc       ?Wipe@?$Hash@II@details@Concurrency@@QEAAXXZ 000000018002d9dc f i libconcrt:SchedulerBase.obj
 0001:0002ca5c       ??0MultiWaitBlock@details@Concurrency@@QEAA@_K_N1@Z 000000018002da5c f i libconcrt:event.obj
 0001:0002caf4       ??0MultiWaitBlockHolder@details@Concurrency@@QEAA@_N_K00@Z 000000018002daf4 f   libconcrt:event.obj
 0001:0002cbe8       ??0_Condition_variable@details@Concurrency@@QEAA@XZ 000000018002dbe8 f   libconcrt:event.obj
 0001:0002cc0c       ??0event@Concurrency@@QEAA@XZ 000000018002dc0c f   libconcrt:event.obj
 0001:0002cc34       ??1?$_MallocaArrayHolder@PEAVContext@Concurrency@@@details@Concurrency@@UEAA@XZ 000000018002dc34 f i libconcrt:event.obj
 0001:0002cc64       ??1MultiWaitBlockHolder@details@Concurrency@@QEAA@XZ 000000018002dc64 f   libconcrt:event.obj
 0001:0002cc98       ??1_Condition_variable@details@Concurrency@@QEAA@XZ 000000018002dc98 f   libconcrt:event.obj
 0001:0002ccd8       ??1event@Concurrency@@QEAA@XZ 000000018002dcd8 f   libconcrt:event.obj
 0001:0002cda4       ??_G?$_MallocaArrayHolder@PEAVContext@Concurrency@@@details@Concurrency@@UEAAPEAXI@Z 000000018002dda4 f i libconcrt:event.obj
 0001:0002cda4       ??_E?$_MallocaArrayHolder@PEAVContext@Concurrency@@@details@Concurrency@@UEAAPEAXI@Z 000000018002dda4 f i libconcrt:event.obj
 0001:0002cdf8       ?SweepResetNode@WaitAnyBlock@details@Concurrency@@UEAA_NXZ 000000018002ddf8 f   libconcrt:event.obj
 0001:0002cdf8       ?SweepResetNode@SingleWaitBlock@details@Concurrency@@UEAA_NXZ 000000018002ddf8 f   libconcrt:event.obj
 0001:0002cdf8       ?Reset@WaitAnyBlock@details@Concurrency@@UEAA_NXZ 000000018002ddf8 f   libconcrt:event.obj
 0001:0002cdf8       ?Reset@SingleWaitBlock@details@Concurrency@@UEAA_NXZ 000000018002ddf8 f   libconcrt:event.obj
 0001:0002cdf8       ?Destroy@SingleWaitBlock@details@Concurrency@@UEAAXXZ 000000018002ddf8 f   libconcrt:event.obj
 0001:0002cdfc       ?Destroy@TimedSingleWaitBlock@details@Concurrency@@UEAAXXZ 000000018002ddfc f   libconcrt:event.obj
 0001:0002ce20       ?Destroy@WaitAllBlock@details@Concurrency@@UEAAXXZ 000000018002de20 f   libconcrt:event.obj
 0001:0002ce28       ?DispatchEventTimer@MultiWaitBlock@details@Concurrency@@SAXPEAU_TP_CALLBACK_INSTANCE@@PEAXPEAU_TP_TIMER@@@Z 000000018002de28 f   libconcrt:event.obj
 0001:0002ceb8       ?DispatchEventTimer@TimedSingleWaitBlock@details@Concurrency@@SAXPEAU_TP_CALLBACK_INSTANCE@@PEAXPEAU_TP_TIMER@@@Z 000000018002deb8 f   libconcrt:event.obj
 0001:0002cf14       ?DispatchEventTimerXP@MultiWaitBlock@details@Concurrency@@SAXPEAXE@Z 000000018002df14 f   libconcrt:event.obj
 0001:0002cf88       ?DispatchEventTimerXP@TimedSingleWaitBlock@details@Concurrency@@SAXPEAXE@Z 000000018002df88 f   libconcrt:event.obj
 0001:0002cfbc       ?GetSharedTimerQueue@details@Concurrency@@YAPEAXXZ 000000018002dfbc f   libconcrt:event.obj
 0001:0002d070       ?NotifyCompletedNode@MultiWaitBlock@details@Concurrency@@QEAAXXZ 000000018002e070 f   libconcrt:event.obj
 0001:0002d098       ?Reset@WaitAllBlock@details@Concurrency@@UEAA_NXZ 000000018002e098 f   libconcrt:event.obj
 0001:0002d0d8       ?Satisfy@SingleWaitBlock@details@Concurrency@@UEAA_NPEAPEAVContext@3@PEAVEventWaitNode@23@@Z 000000018002e0d8 f   libconcrt:event.obj
 0001:0002d144       ?Satisfy@TimedSingleWaitBlock@details@Concurrency@@UEAA_NPEAPEAVContext@3@PEAVEventWaitNode@23@@Z 000000018002e144 f   libconcrt:event.obj
 0001:0002d200       ?Satisfy@WaitAllBlock@details@Concurrency@@UEAA_NPEAPEAVContext@3@PEAVEventWaitNode@23@@Z 000000018002e200 f   libconcrt:event.obj
 0001:0002d27c       ?Satisfy@WaitAnyBlock@details@Concurrency@@UEAA_NPEAPEAVContext@3@PEAVEventWaitNode@23@@Z 000000018002e27c f   libconcrt:event.obj
 0001:0002d2f4       ?Set@StructuredEvent@details@Concurrency@@QEAAXXZ 000000018002e2f4 f   libconcrt:event.obj
 0001:0002d360       ?SingleSatisfy@MultiWaitBlock@details@Concurrency@@MEAAXPEAPEAVContext@3@PEAVEventWaitNode@23@@Z 000000018002e360 f   libconcrt:event.obj
 0001:0002d44c       ?Sweep@details@Concurrency@@YAPEAVEventWaitNode@12@PEAV312@_N@Z 000000018002e44c f   libconcrt:event.obj
 0001:0002d4c8       ?SweepResetNode@WaitAllBlock@details@Concurrency@@UEAA_NXZ 000000018002e4c8 f   libconcrt:event.obj
 0001:0002d518       ?SweepWaitNode@TimedSingleWaitBlock@details@Concurrency@@UEAA_NXZ 000000018002e518 f   libconcrt:event.obj
 0001:0002d554       ?SweepWaitNode@WaitAllBlock@details@Concurrency@@UEAA_NXZ 000000018002e554 f   libconcrt:event.obj
 0001:0002d5ac       ?SweepWaitNode@WaitAnyBlock@details@Concurrency@@UEAA_NXZ 000000018002e5ac f   libconcrt:event.obj
 0001:0002d5fc       ?createTimer@TimedSingleWaitBlock@details@Concurrency@@QEAA_NI@Z 000000018002e5fc f i libconcrt:event.obj
 0001:0002d67c       ?notify_all@_Condition_variable@details@Concurrency@@QEAAXXZ 000000018002e67c f   libconcrt:event.obj
 0001:0002d740       ?notify_one@_Condition_variable@details@Concurrency@@QEAAXXZ 000000018002e740 f   libconcrt:event.obj
 0001:0002d840       ?set@event@Concurrency@@QEAAXXZ 000000018002e840 f   libconcrt:event.obj
 0001:0002da40       ?wait@_Condition_variable@details@Concurrency@@QEAAXAEAVcritical_section@3@@Z 000000018002ea40 f   libconcrt:event.obj
 0001:0002db0c       ?wait@event@Concurrency@@QEAA_KI@Z 000000018002eb0c f   libconcrt:event.obj
 0001:0002dc38       ?wait_for@_Condition_variable@details@Concurrency@@QEAA_NAEAVcritical_section@3@I@Z 000000018002ec38 f   libconcrt:event.obj
 0001:0002dd84       ?wait_for_multiple@event@Concurrency@@SA_KPEAPEAV12@_K_NI@Z 000000018002ed84 f   libconcrt:event.obj
 0001:0002e124       ??0ContextBase@details@Concurrency@@QEAA@PEAVSchedulerBase@12@_N@Z 000000018002f124 f   libconcrt:ContextBase.obj
 0001:0002e284       ??1?$Hash@PEAV_TaskCollection@details@Concurrency@@PEAV123@@details@Concurrency@@QEAA@XZ 000000018002f284 f i libconcrt:ContextBase.obj
 0001:0002e2a0       ??1?$StructuredWorkStealingQueue@V_UnrealizedChore@details@Concurrency@@V_CriticalNonReentrantLock@23@@details@Concurrency@@QEAA@XZ 000000018002f2a0 f i libconcrt:ContextBase.obj
 0001:0002e2c0       ??1?$WorkStealingQueue@V_UnrealizedChore@details@Concurrency@@V_CriticalNonReentrantLock@23@@details@Concurrency@@QEAA@XZ 000000018002f2c0 f i libconcrt:ContextBase.obj
 0001:0002e2e0       ??1CancellationBeaconStack@ContextBase@details@Concurrency@@QEAA@XZ 000000018002f2e0 f i libconcrt:ContextBase.obj
 0001:0002e340       ??1Context@Concurrency@@MEAA@XZ 000000018002f340 f i libconcrt:ContextBase.obj
 0001:0002e34c       ??1ContextBase@details@Concurrency@@UEAA@XZ 000000018002f34c f i libconcrt:ContextBase.obj
 0001:0002e3d8       ??1_Scoped_lock@_CriticalNonReentrantLock@details@Concurrency@@QEAA@XZ 000000018002f3d8 f i libconcrt:ContextBase.obj
 0001:0002e3f4       ??1_Scoped_lock_read@?$SafeRWList@UListEntry@details@Concurrency@@VNoCount@CollectionTypes@23@V_ReaderWriterLock@23@@details@Concurrency@@QEAA@XZ 000000018002f3f4 f i libconcrt:ContextBase.obj
 0001:0002e414       ??_GContext@Concurrency@@MEAAPEAXI@Z 000000018002f414 f i libconcrt:ContextBase.obj
 0001:0002e414       ??_EContext@Concurrency@@MEAAPEAXI@Z 000000018002f414 f i libconcrt:ContextBase.obj
 0001:0002e440       ??_EContextBase@details@Concurrency@@UEAAPEAXI@Z 000000018002f440 f i libconcrt:ContextBase.obj
 0001:0002e440       ??_GContextBase@details@Concurrency@@UEAAPEAXI@Z 000000018002f440 f i libconcrt:ContextBase.obj
 0001:0002e474       ?Add@?$ListArray@VWorkQueue@details@Concurrency@@@details@Concurrency@@QEAAHPEAVWorkQueue@23@@Z 000000018002f474 f i libconcrt:ContextBase.obj
 0001:0002e5f4       ?AddStealer@ContextBase@details@Concurrency@@QEAAXPEAV123@_N@Z 000000018002f5f4 f   libconcrt:ContextBase.obj
 0001:0002e644       ?AddTail@?$SafeRWList@UListEntry@details@Concurrency@@VNoCount@CollectionTypes@23@V_ReaderWriterLock@23@@details@Concurrency@@QEAAXPEAUListEntry@23@@Z 000000018002f644 f i libconcrt:ContextBase.obj
 0001:0002e6bc       ?CancelCollection@ContextBase@details@Concurrency@@QEAAXH@Z 000000018002f6bc f   libconcrt:ContextBase.obj
 0001:0002e72c       ?CancelCollectionComplete@ContextBase@details@Concurrency@@QEAA_NH@Z 000000018002f72c f   libconcrt:ContextBase.obj
 0001:0002e768       ?CancelStealers@ContextBase@details@Concurrency@@QEAAXPEAV_TaskCollectionBase@23@@Z 000000018002f768 f   libconcrt:ContextBase.obj
 0001:0002e868       ?CheckForDeletion@?$ListArray@VWorkQueue@details@Concurrency@@@details@Concurrency@@AEAAXXZ 000000018002f868 f i libconcrt:ContextBase.obj
 0001:0002e8f8       ?CheckForDeletionBridge@?$ListArray@VWorkQueue@details@Concurrency@@@details@Concurrency@@CAXPEAV123@@Z 000000018002f8f8 f i libconcrt:ContextBase.obj
 0001:0002e900       ?Claim@Slot@?$Mailbox@V_UnrealizedChore@details@Concurrency@@@details@Concurrency@@QEAA_NPEAPEAV_UnrealizedChore@34@@Z 000000018002f900 f i libconcrt:ContextBase.obj
 0001:0002e970       ?Cleanup@ContextBase@details@Concurrency@@QEAAXXZ 000000018002f970 f   libconcrt:ContextBase.obj
 0001:0002e9dc       ?ClearAliasTable@ContextBase@details@Concurrency@@QEAAXXZ 000000018002f9dc f   libconcrt:ContextBase.obj
 0001:0002eaa4       ?ClearContextTls@ContextBase@details@Concurrency@@AEAAXXZ 000000018002faa4 f   libconcrt:ContextBase.obj
 0001:0002eab4       ?CreateWorkQueue@ContextBase@details@Concurrency@@QEAAXXZ 000000018002fab4 f   libconcrt:ContextBase.obj
 0001:0002eb58       ?DetachStealers@ContextBase@details@Concurrency@@QEAAXXZ 000000018002fb58 f   libconcrt:ContextBase.obj
 0001:0002ed3c       ?EnterCriticalRegionHelper@ContextBase@details@Concurrency@@UEAAHXZ 000000018002fd3c f i libconcrt:ContextBase.obj
 0001:0002ed48       ?EnterHyperCriticalRegionHelper@ContextBase@details@Concurrency@@UEAAHXZ 000000018002fd48 f i libconcrt:ContextBase.obj
 0001:0002ed54       ?ExitCriticalRegionHelper@ContextBase@details@Concurrency@@UEAAHXZ 000000018002fd54 f i libconcrt:ContextBase.obj
 0001:0002ed60       ?ExitHyperCriticalRegionHelper@ContextBase@details@Concurrency@@UEAAHXZ 000000018002fd60 f i libconcrt:ContextBase.obj
 0001:0002ed6c       ?FindAndDelete@?$Hash@PEAV_TaskCollection@details@Concurrency@@PEAV123@@details@Concurrency@@QEAA_NAEBQEAV_TaskCollection@23@PEAPEAV423@@Z 000000018002fd6c f i libconcrt:ContextBase.obj
 0001:0002ee18       ?FlagCancellationBeacons@ContextBase@details@Concurrency@@QEAAXH@Z 000000018002fe18 f   libconcrt:ContextBase.obj
 0001:0002ee94       ?GetCriticalRegionType@ContextBase@details@Concurrency@@UEBA?AW4CriticalRegionType@3@XZ 000000018002fe94 f i libconcrt:ContextBase.obj
 0001:0002eea8       ?GetId@ContextBase@details@Concurrency@@UEBAIXZ 000000018002fea8 f   libconcrt:ContextBase.obj
 0001:0002eeac       ?GetIndirectAlias@ContextBase@details@Concurrency@@QEBAPEAV_TaskCollection@23@XZ 000000018002feac f   libconcrt:ContextBase.obj
 0001:0002eeb4       ?GetScheduleGroup@ContextBase@details@Concurrency@@QEBAPEAVScheduleGroupBase@23@XZ 000000018002feb4 f   libconcrt:ContextBase.obj
 0001:0002eec8       ?GetScheduleGroupId@ContextBase@details@Concurrency@@UEBAIXZ 000000018002fec8 f   libconcrt:ContextBase.obj
 0001:0002ef08       ?GetScheduleGroupSegment@ContextBase@details@Concurrency@@QEBAPEAVScheduleGroupSegmentBase@23@XZ 000000018002ff08 f   libconcrt:ContextBase.obj
 0001:0002ef10       ?GetScheduler@ContextBase@details@Concurrency@@QEBAPEAVSchedulerBase@23@XZ 000000018002ff10 f   libconcrt:ContextBase.obj
 0001:0002ef18       ?IsCanceledAtDepth@ContextBase@details@Concurrency@@AEAA_NPEAV_TaskCollectionBase@23@H@Z 000000018002ff18 f   libconcrt:ContextBase.obj
 0001:0002f034       ?Pop@?$WorkStealingQueue@V_UnrealizedChore@details@Concurrency@@V_CriticalNonReentrantLock@23@@details@Concurrency@@QEAAPEAV_UnrealizedChore@23@XZ 0000000180030034 f i libconcrt:ContextBase.obj
 0001:0002f0e8       ?PopContextFromTls@ContextBase@details@Concurrency@@AEAAPEAV123@XZ 00000001800300e8 f   libconcrt:ContextBase.obj
 0001:0002f11c       ?PushContextToTls@ContextBase@details@Concurrency@@AEAAXPEAV123@@Z 000000018003011c f   libconcrt:ContextBase.obj
 0001:0002f130       ?RecomputeMaximumCancellationDepth@ContextBase@details@Concurrency@@AEAAXXZ 0000000180030130 f   libconcrt:ContextBase.obj
 0001:0002f1d4       ?ReferenceForCancellation@ContextBase@details@Concurrency@@QEAAXXZ 00000001800301d4 f   libconcrt:ContextBase.obj
 0001:0002f1dc       ?ReleaseWorkQueue@ContextBase@details@Concurrency@@IEAAXXZ 00000001800301dc f   libconcrt:ContextBase.obj
 0001:0002f29c       ?Remove@?$ListArray@VWorkQueue@details@Concurrency@@@details@Concurrency@@QEAA_NPEAVWorkQueue@23@H_N@Z 000000018003029c f i libconcrt:ContextBase.obj
 0001:0002f3e0       ?Remove@?$SafeRWList@UListEntry@details@Concurrency@@VNoCount@CollectionTypes@23@V_ReaderWriterLock@23@@details@Concurrency@@QEAAXPEAUListEntry@23@@Z 00000001800303e0 f i libconcrt:ContextBase.obj
 0001:0002f450       ?RemoveStealer@ContextBase@details@Concurrency@@QEAAXPEAV123@@Z 0000000180030450 f   libconcrt:ContextBase.obj
 0001:0002f464       ?SetAsCurrentTls@ContextBase@details@Concurrency@@IEAAXXZ 0000000180030464 f   libconcrt:ContextBase.obj
 0001:0002f474       ?StaticExitCriticalRegion@ContextBase@details@Concurrency@@SAXXZ 0000000180030474 f   libconcrt:ContextBase.obj
 0001:0002f474       ?StaticEnterCriticalRegion@ContextBase@details@Concurrency@@SAXXZ 0000000180030474 f   libconcrt:ContextBase.obj
 0001:0002f474       ?StaticEnterHyperCriticalRegion@ContextBase@details@Concurrency@@SAXXZ 0000000180030474 f   libconcrt:ContextBase.obj
 0001:0002f474       ?StaticExitHyperCriticalRegion@ContextBase@details@Concurrency@@SAXXZ 0000000180030474 f   libconcrt:ContextBase.obj
 0001:0002f47c       ?SweepAliasTable@ContextBase@details@Concurrency@@QEAAXXZ 000000018003047c f   libconcrt:ContextBase.obj
 0001:0002f58c       ?SweepUnstructured@ContextBase@details@Concurrency@@QEAAXP6A_NPEAV_UnrealizedChore@23@PEAX@Z12@Z 000000018003058c f   libconcrt:ContextBase.obj
 0001:0002f598       ?SyncPop@?$WorkStealingQueue@V_UnrealizedChore@details@Concurrency@@V_CriticalNonReentrantLock@23@@details@Concurrency@@AEAAPEAV_UnrealizedChore@23@XZ 0000000180030598 f i libconcrt:ContextBase.obj
 0001:0002f68c       ?ThrowContextEvent@ContextBase@details@Concurrency@@KAXW4ConcRT_EventType@3@EKK@Z 000000018003068c f   libconcrt:ContextBase.obj
 0001:0002f728       ?TryPop@?$WorkStealingQueue@V_UnrealizedChore@details@Concurrency@@V_CriticalNonReentrantLock@23@@details@Concurrency@@QEAAPEAV_UnrealizedChore@23@H@Z 0000000180030728 f i libconcrt:ContextBase.obj
 0001:0002f7ec       ?TryPopUnstructured@ContextBase@details@Concurrency@@QEAAPEAV_UnrealizedChore@23@H@Z 00000001800307ec f   libconcrt:ContextBase.obj
 0001:0002f7fc       ?Wipe@?$Hash@PEAV_TaskCollection@details@Concurrency@@PEAV123@@details@Concurrency@@QEAAXXZ 00000001800307fc f i libconcrt:ContextBase.obj
 0001:0002f87c       ??0CancellationTokenRegistration_TaskProc@details@Concurrency@@QEAA@P6AXPEAX@Z0H@Z 000000018003087c f i libconcrt:TaskCollection.obj
 0001:0002f904       ??0_Interruption_exception@details@Concurrency@@QEAA@AEBV012@@Z 0000000180030904 f i libconcrt:TaskCollection.obj
 0001:0002f944       ??0_Interruption_exception@details@Concurrency@@QEAA@XZ 0000000180030944 f i libconcrt:TaskCollection.obj
 0001:0002f95c       ??0_TaskCollection@details@Concurrency@@AEAA@PEAV012@_N@Z 000000018003095c f   libconcrt:TaskCollection.obj
 0001:0002fad0       ??0missing_wait@Concurrency@@QEAA@AEBV01@@Z 0000000180030ad0 f i libconcrt:TaskCollection.obj
 0001:0002fb10       ??1?$_MallocaArrayHolder@PEAVevent@Concurrency@@@details@Concurrency@@UEAA@XZ 0000000180030b10 f i libconcrt:TaskCollection.obj
 0001:0002fb40       ??1?$lock_guard@Vmutex@std@@@std@@QEAA@XZ 0000000180030b40 f i libconcrt:TaskCollection.obj
 0001:0002fb68       ??1?$unique_lock@Vmutex@std@@@std@@QEAA@XZ 0000000180030b68 f i libconcrt:TaskCollection.obj
 0001:0002fb98       ??1_TaskCollection@details@Concurrency@@QEAA@XZ 0000000180030b98 f   libconcrt:TaskCollection.obj
 0001:0002fcc4       ??1exception_ptr@std@@QEAA@XZ 0000000180030cc4 f i libconcrt:TaskCollection.obj
 0001:0002fccc       ??_G?$_MallocaArrayHolder@PEAVevent@Concurrency@@@details@Concurrency@@UEAAPEAXI@Z 0000000180030ccc f i libconcrt:TaskCollection.obj
 0001:0002fccc       ??_E?$_MallocaArrayHolder@PEAVevent@Concurrency@@@details@Concurrency@@UEAAPEAXI@Z 0000000180030ccc f i libconcrt:TaskCollection.obj
 0001:0002fd20       ??_GCancellationTokenRegistration_TaskProc@details@Concurrency@@UEAAPEAXI@Z 0000000180030d20 f i libconcrt:TaskCollection.obj
 0001:0002fd20       ??_ECancellationTokenRegistration_TaskProc@details@Concurrency@@UEAAPEAXI@Z 0000000180030d20 f i libconcrt:TaskCollection.obj
 0001:0002fd78       ??_E_CancellationTokenRegistration@details@Concurrency@@MEAAPEAXI@Z 0000000180030d78 f i libconcrt:TaskCollection.obj
 0001:0002fd78       ??_G_CancellationTokenRegistration@details@Concurrency@@MEAAPEAXI@Z 0000000180030d78 f i libconcrt:TaskCollection.obj
 0001:0002fdd0       ??_E_RefCounter@details@Concurrency@@UEAAPEAXI@Z 0000000180030dd0 f i libconcrt:TaskCollection.obj
 0001:0002fdd0       ??_G_RefCounter@details@Concurrency@@UEAAPEAXI@Z 0000000180030dd0 f i libconcrt:TaskCollection.obj
 0001:0002fdfc       ?Find@?$Hash@PEAV_TaskCollection@details@Concurrency@@PEAV123@@details@Concurrency@@QEAAPEAUListNode@123@AEBQEAV_TaskCollection@23@PEAPEAV523@@Z 0000000180030dfc f i libconcrt:TaskCollection.obj
 0001:0002fe78       ?GetArbitraryAlias@ContextBase@details@Concurrency@@QEAAPEAV_TaskCollection@23@PEAV423@@Z 0000000180030e78 f i libconcrt:TaskCollection.obj
 0001:0002ff00       ?Insert@?$Hash@PEAV_TaskCollection@details@Concurrency@@PEAV123@@details@Concurrency@@QEAAPEAUListNode@123@AEBQEAV_TaskCollection@23@0@Z 0000000180030f00 f i libconcrt:TaskCollection.obj
 0001:0002ffdc       ?_Abort@_TaskCollection@details@Concurrency@@AEAAX_N@Z 0000000180030fdc f   libconcrt:TaskCollection.obj
 0001:0003019c       ?_AbortiveSweep@_TaskCollection@details@Concurrency@@AEAAXPEAX@Z 000000018003119c f   libconcrt:TaskCollection.obj
 0001:000301f8       ?_Alias@_TaskCollection@details@Concurrency@@AEAAPEAV123@XZ 00000001800311f8 f   libconcrt:TaskCollection.obj
 0001:000302f0       ?_Cancel@_StructuredTaskCollection@details@Concurrency@@QEAAXXZ 00000001800312f0 f   libconcrt:TaskCollection.obj
 0001:00030378       ?_Cancel@_TaskCollection@details@Concurrency@@AEAAX_NPEAV123@@Z 0000000180031378 f   libconcrt:TaskCollection.obj
 0001:0003046c       ?_CancelDirectAliases@_TaskCollection@details@Concurrency@@AEAAX_NPEAV123@@Z 000000018003146c f   libconcrt:TaskCollection.obj
 0001:000304a4       ?_CancelFromArbitraryThread@_TaskCollection@details@Concurrency@@AEAAX_N@Z 00000001800314a4 f   libconcrt:TaskCollection.obj
 0001:00030564       ?_CancelStolenContexts@_TaskCollection@details@Concurrency@@AEAAX_N0@Z 0000000180031564 f   libconcrt:TaskCollection.obj
 0001:00030618       ?_CollectionMatchPredicate@_TaskCollection@details@Concurrency@@CA_NPEAV_UnrealizedChore@23@PEAX@Z 0000000180031618 f   libconcrt:TaskCollection.obj
 0001:00030624       ?_CountUp@_StructuredTaskCollection@details@Concurrency@@AEAAXXZ 0000000180031624 f   libconcrt:TaskCollection.obj
 0001:00030654       ?_DeregisterCallback@_CancellationTokenState@details@Concurrency@@QEAAXPEAV_CancellationTokenRegistration@23@@Z 0000000180031654 f i libconcrt:TaskCollection.obj
 0001:000307d4       ?_Destroy@_RefCounter@details@Concurrency@@MEAAXXZ 00000001800317d4 f i libconcrt:TaskCollection.obj
 0001:0003080c       ?_Exec@CancellationTokenRegistration_TaskProc@details@Concurrency@@MEAAXXZ 000000018003180c f i libconcrt:TaskCollection.obj
 0001:00030840       ?_FullAliasWait@_TaskCollection@details@Concurrency@@AEAAXPEAV123@@Z 0000000180031840 f   libconcrt:TaskCollection.obj
 0001:000309d0       ?_GetStealTrackingList@_TaskCollection@details@Concurrency@@AEBAPEAXXZ 00000001800319d0 f   libconcrt:TaskCollection.obj
 0001:000309d8       ?_Initialize@_StructuredTaskCollection@details@Concurrency@@AEAAXXZ 00000001800319d8 f   libconcrt:TaskCollection.obj
 0001:00030a30       ?_Initialize@_TaskCollection@details@Concurrency@@AEAAXXZ 0000000180031a30 f   libconcrt:TaskCollection.obj
 0001:00030a6c       ?_Invoke@_CancellationTokenRegistration@details@Concurrency@@AEAAXXZ 0000000180031a6c f i libconcrt:TaskCollection.obj
 0001:00030b5c       ?_IsMarkedForAbnormalExit@_TaskCollection@details@Concurrency@@QEBA_NXZ 0000000180031b5c f   libconcrt:TaskCollection.obj
 0001:00030b6c       ?_IsStaleAlias@_TaskCollection@details@Concurrency@@AEBA_NXZ 0000000180031b6c f   libconcrt:TaskCollection.obj
 0001:00030b78       ?_NotifyCompletedChoreAndFree@_TaskCollection@details@Concurrency@@AEAAXPEAV_UnrealizedChore@23@@Z 0000000180031b78 f   libconcrt:TaskCollection.obj
 0001:00030be0       ?_OriginalCollection@_TaskCollection@details@Concurrency@@QEBAPEAV123@XZ 0000000180031be0 f   libconcrt:TaskCollection.obj
 0001:00030be8       ?_RegisterCallback@_CancellationTokenState@details@Concurrency@@QEAAPEAV_CancellationTokenRegistration@23@P6AXPEAX@Z0H@Z 0000000180031be8 f i libconcrt:TaskCollection.obj
 0001:00030c60       ?_RegisterCallback@_CancellationTokenState@details@Concurrency@@QEAAXPEAV_CancellationTokenRegistration@23@@Z 0000000180031c60 f i libconcrt:TaskCollection.obj
 0001:00030d2c       ?_ReleaseAlias@_TaskCollection@details@Concurrency@@AEAAXXZ 0000000180031d2c f   libconcrt:TaskCollection.obj
 0001:00030d68       ?_Reset@_TaskCollection@details@Concurrency@@AEAAXPEAV123@@Z 0000000180031d68 f   libconcrt:TaskCollection.obj
 0001:00030e98       ?_SetCancelState@_TaskCollection@details@Concurrency@@AEAA_NJ@Z 0000000180031e98 f   libconcrt:TaskCollection.obj
 0001:00030ec4       ?_SweepAbortedChore@_TaskCollection@details@Concurrency@@CA_NPEAV_UnrealizedChore@23@PEAX@Z 0000000180031ec4 f   libconcrt:TaskCollection.obj
 0001:00030ee4       ?_TaskCleanup@_TaskCollection@details@Concurrency@@AEAA_N_N@Z 0000000180031ee4 f   libconcrt:TaskCollection.obj
 0001:00030f80       ?compare_exchange_strong@_Atomic_long@std@@QEAA_NAEAJJW4memory_order@2@@Z 0000000180031f80 f i libconcrt:TaskCollection.obj
 0001:00031008       ??0SchedulerPolicy@Concurrency@@QEAA@AEBV01@@Z 0000000180032008 f   libconcrt:SchedulerPolicyBase.obj
 0001:00031050       ??0SchedulerPolicy@Concurrency@@QEAA@_KZZ 0000000180032050 f   libconcrt:SchedulerPolicyBase.obj
 0001:00031084       ??0invalid_scheduler_policy_key@Concurrency@@QEAA@AEBV01@@Z 0000000180032084 f i libconcrt:SchedulerPolicyBase.obj
 0001:000310c4       ??0invalid_scheduler_policy_thread_specification@Concurrency@@QEAA@AEBV01@@Z 00000001800320c4 f i libconcrt:SchedulerPolicyBase.obj
 0001:00031104       ??0invalid_scheduler_policy_value@Concurrency@@QEAA@AEBV01@@Z 0000000180032104 f i libconcrt:SchedulerPolicyBase.obj
 0001:00031144       ??1SchedulerPolicy@Concurrency@@QEAA@XZ 0000000180032144 f   libconcrt:SchedulerPolicyBase.obj
 0001:00031154       ??4SchedulerPolicy@Concurrency@@QEAAAEAV01@AEBV01@@Z 0000000180032154 f   libconcrt:SchedulerPolicyBase.obj
 0001:00031178       ?GetPolicyValue@SchedulerPolicy@Concurrency@@QEBAIW4PolicyElementKey@2@@Z 0000000180032178 f   libconcrt:SchedulerPolicyBase.obj
 0001:000311b8       ?_Initialize@SchedulerPolicy@Concurrency@@AEAAX_KPEAPEAD@Z 00000001800321b8 f   libconcrt:SchedulerPolicyBase.obj
 0001:000312f4       ?_ResolvePolicyValues@SchedulerPolicy@Concurrency@@AEAAXXZ 00000001800322f4 f   libconcrt:SchedulerPolicyBase.obj
 0001:00031358       ?_StringFromPolicyKey@SchedulerPolicy@Concurrency@@CAPEADI@Z 0000000180032358 f   libconcrt:SchedulerPolicyBase.obj
 0001:00031370       ?_ValidPolicyValue@SchedulerPolicy@Concurrency@@CA_NW4PolicyElementKey@2@I@Z 0000000180032370 f   libconcrt:SchedulerPolicyBase.obj
 0001:00031424       ?_ValidateConcRTPolicy@SchedulerPolicy@Concurrency@@QEBAXXZ 0000000180032424 f   libconcrt:SchedulerPolicyBase.obj
 0001:00031490       ??0ExecutionResource@details@Concurrency@@QEAA@PEAVSchedulerProxy@12@PEAUSchedulerNode@12@I@Z 0000000180032490 f   libconcrt:ExecutionResource.obj
 0001:000314f4       ??0ExecutionResource@details@Concurrency@@QEAA@PEAVSchedulerProxy@12@PEAV012@@Z 00000001800324f4 f   libconcrt:ExecutionResource.obj
 0001:00031544       ?CurrentSubscriptionLevel@ExecutionResource@details@Concurrency@@UEBAIXZ 0000000180032544 f   libconcrt:ExecutionResource.obj
 0001:00031558       ?DecrementUseCounts@ExecutionResource@details@Concurrency@@QEAAXXZ 0000000180032558 f   libconcrt:ExecutionResource.obj
 0001:000315e4       ?GetExecutionResourceId@ExecutionResource@details@Concurrency@@UEBAIXZ 00000001800325e4 f i libconcrt:ExecutionResource.obj
 0001:000315e8       ?GetNodeId@ExecutionResource@details@Concurrency@@UEBAIXZ 00000001800325e8 f i libconcrt:ExecutionResource.obj
 0001:000315ec       ?IncrementUseCounts@ExecutionResource@details@Concurrency@@QEAAXXZ 00000001800325ec f   libconcrt:ExecutionResource.obj
 0001:000316e4       ?Remove@ExecutionResource@details@Concurrency@@UEAAXPEAUIScheduler@3@@Z 00000001800326e4 f   libconcrt:ExecutionResource.obj
 0001:00031784       ?ResetCurrent@ExecutionResource@details@Concurrency@@QEAAXXZ 0000000180032784 f   libconcrt:ExecutionResource.obj
 0001:000317b0       ?SetAsCurrent@ExecutionResource@details@Concurrency@@QEAAXXZ 00000001800327b0 f   libconcrt:ExecutionResource.obj
 0001:000317ec       ??$sign@N@details@Concurrency@@YANN@Z 00000001800327ec f i libconcrt:HillClimbing.obj
 0001:00031814       ??0HillClimbing@details@Concurrency@@QEAA@IIPEAVSchedulerProxy@12@@Z 0000000180032814 f   libconcrt:HillClimbing.obj
 0001:00031888       ?CalculateThroughputSlope@HillClimbing@details@Concurrency@@AEAANHH@Z 0000000180032888 f   libconcrt:HillClimbing.obj
 0001:000319f0       ?CoefficientOfVariationMean@MeasuredHistory@HillClimbing@details@Concurrency@@QEAANXZ 00000001800329f0 f   libconcrt:HillClimbing.obj
 0001:00031a40       ?EstablishControlSetting@HillClimbing@details@Concurrency@@AEAAXI@Z 0000000180032a40 f   libconcrt:HillClimbing.obj
 0001:00031aa0       ?FlushHistories@HillClimbing@details@Concurrency@@AEAAXXZ 0000000180032aa0 f   libconcrt:HillClimbing.obj
 0001:00031ae8       ?IsStableHistory@HillClimbing@details@Concurrency@@AEAA_NPEAVMeasuredHistory@123@@Z 0000000180032ae8 f   libconcrt:HillClimbing.obj
 0001:00031b20       ?RecommendControlSetting@HillClimbing@details@Concurrency@@AEAAII@Z 0000000180032b20 f   libconcrt:HillClimbing.obj
 0001:00031c44       ?Update@HillClimbing@details@Concurrency@@QEAAIIIII@Z 0000000180032c44 f   libconcrt:HillClimbing.obj
 0001:00031ea0       ?Variance@MeasuredHistory@HillClimbing@details@Concurrency@@QEAANXZ 0000000180032ea0 f   libconcrt:HillClimbing.obj
 0001:00031ef4       ??0SchedulerProxy@details@Concurrency@@QEAA@PEAUIScheduler@2@PEAVResourceManager@12@AEBVSchedulerPolicy@2@@Z 0000000180032ef4 f   libconcrt:SchedulerProxy.obj
 0001:00032194       ??1SchedulerProxy@details@Concurrency@@IEAA@XZ 0000000180033194 f   libconcrt:SchedulerProxy.obj
 0001:000321e0       ??1_Scoped_lock@_ReentrantBlockingLock@details@Concurrency@@QEAA@XZ 00000001800331e0 f i libconcrt:SchedulerProxy.obj
 0001:000321fc       ?AddCore@SchedulerProxy@details@Concurrency@@QEAAXPEAUSchedulerNode@23@I_N@Z 00000001800331fc f   libconcrt:SchedulerProxy.obj
 0001:0003230c       ?AddExecutionResource@SchedulerProxy@details@Concurrency@@QEAAXPEAVExecutionResource@23@@Z 000000018003330c f   libconcrt:SchedulerProxy.obj
 0001:000323ac       ?AddThreadSubscription@SchedulerProxy@details@Concurrency@@QEAAXPEAVExecutionResource@23@@Z 00000001800333ac f   libconcrt:SchedulerProxy.obj
 0001:00032404       ?AddVirtualProcessorRoots@SchedulerProxy@details@Concurrency@@QEAAXPEAPEAUIVirtualProcessorRoot@3@I@Z 0000000180033404 f   libconcrt:SchedulerProxy.obj
 0001:0003251c       ?AdjustAllocationIncrease@SchedulerProxy@details@Concurrency@@QEBAII@Z 000000018003351c f   libconcrt:SchedulerProxy.obj
 0001:000325a8       ?BindContext@SchedulerProxy@details@Concurrency@@UEAAXPEAUIExecutionContext@3@@Z 00000001800335a8 f   libconcrt:SchedulerProxy.obj
 0001:00032628       ?Cleanup@SchedulerProxy@details@Concurrency@@IEAAXXZ 0000000180033628 f   libconcrt:SchedulerProxy.obj
 0001:000326fc       ?CreateExternalThreadResource@SchedulerProxy@details@Concurrency@@QEAAPEAVExecutionResource@23@PEAUSchedulerNode@23@I@Z 00000001800336fc f   libconcrt:SchedulerProxy.obj
 0001:0003276c       ?CreateOversubscriber@SchedulerProxy@details@Concurrency@@UEAAPEAUIVirtualProcessorRoot@3@PEAUIExecutionResource@3@@Z 000000018003376c f   libconcrt:SchedulerProxy.obj
 0001:00032894       ?CreateVirtualProcessorRoot@SchedulerProxy@details@Concurrency@@UEAAPEAVVirtualProcessorRoot@23@PEAUSchedulerNode@23@I@Z 0000000180033894 f   libconcrt:SchedulerProxy.obj
 0001:000328f0       ?DecrementCoreSubscription@SchedulerProxy@details@Concurrency@@QEAAXPEAVExecutionResource@23@@Z 00000001800338f0 f   libconcrt:SchedulerProxy.obj
 0001:00032948       ?DecrementFixedCoreCount@SchedulerProxy@details@Concurrency@@QEAAXII_N@Z 0000000180033948 f   libconcrt:SchedulerProxy.obj
 0001:000329f4       ?DeleteThis@SchedulerProxy@details@Concurrency@@MEAAXXZ 00000001800339f4 f i libconcrt:SchedulerProxy.obj
 0001:00032a1c       ?DestroyExecutionResource@SchedulerProxy@details@Concurrency@@QEAAXPEAVExecutionResource@23@@Z 0000000180033a1c f   libconcrt:SchedulerProxy.obj
 0001:00032b18       ?DestroyVirtualProcessorRoot@SchedulerProxy@details@Concurrency@@QEAAXPEAVVirtualProcessorRoot@23@@Z 0000000180033b18 f   libconcrt:SchedulerProxy.obj
 0001:00032bf4       ?FinalShutdown@SchedulerProxy@details@Concurrency@@UEAAXXZ 0000000180033bf4 f   libconcrt:SchedulerProxy.obj
 0001:00032c28       ?GetCurrentThreadExecutionResource@SchedulerProxy@details@Concurrency@@QEAAPEAVExecutionResource@23@XZ 0000000180033c28 f   libconcrt:SchedulerProxy.obj
 0001:00032c54       ?GetNewThreadProxy@SchedulerProxy@details@Concurrency@@UEAAPEAUIThreadProxy@3@PEAUIExecutionContext@3@@Z 0000000180033c54 f   libconcrt:SchedulerProxy.obj
 0001:00032ce4       ?GetResourceForNewSubscription@SchedulerProxy@details@Concurrency@@QEAAPEAVExecutionResource@23@PEAV423@@Z 0000000180033ce4 f   libconcrt:SchedulerProxy.obj
 0001:00032d50       ?GrantAllocation@SchedulerProxy@details@Concurrency@@QEAAPEAVExecutionResource@23@I_N0@Z 0000000180033d50 f   libconcrt:SchedulerProxy.obj
 0001:00033134       ?IncrementCoreSubscription@SchedulerProxy@details@Concurrency@@QEAAXPEAVExecutionResource@23@@Z 0000000180034134 f   libconcrt:SchedulerProxy.obj
 0001:00033190       ?IncrementFixedCoreCount@SchedulerProxy@details@Concurrency@@QEAAXII_N@Z 0000000180034190 f   libconcrt:SchedulerProxy.obj
 0001:0003323c       ?ReferenceCurrentThreadExecutionResource@SchedulerProxy@details@Concurrency@@QEAAPEAVExecutionResource@23@XZ 000000018003423c f   libconcrt:SchedulerProxy.obj
 0001:0003331c       ?RemoveCore@SchedulerProxy@details@Concurrency@@QEAAXPEAUSchedulerNode@23@I@Z 000000018003431c f   libconcrt:SchedulerProxy.obj
 0001:00033430       ?RemoveThreadSubscription@SchedulerProxy@details@Concurrency@@QEAAXPEAVExecutionResource@23@@Z 0000000180034430 f   libconcrt:SchedulerProxy.obj
 0001:0003348c       ?RequestInitialVirtualProcessors@SchedulerProxy@details@Concurrency@@UEAAPEAUIExecutionResource@3@_N@Z 000000018003448c f   libconcrt:SchedulerProxy.obj
 0001:0003349c       ?SendCoreNotification@SchedulerProxy@details@Concurrency@@QEAAXPEAUSchedulerCore@23@_N@Z 000000018003449c f   libconcrt:SchedulerProxy.obj
 0001:000335b8       ?Shutdown@SchedulerProxy@details@Concurrency@@UEAAXXZ 00000001800345b8 f   libconcrt:SchedulerProxy.obj
 0001:000335c4       ?SubscribeCurrentThread@SchedulerProxy@details@Concurrency@@UEAAPEAUIExecutionResource@3@XZ 00000001800345c4 f   libconcrt:SchedulerProxy.obj
 0001:000335d0       ?ToggleBorrowedState@SchedulerProxy@details@Concurrency@@QEAAXPEAUSchedulerNode@23@I@Z 00000001800345d0 f   libconcrt:SchedulerProxy.obj
 0001:0003360c       ?UnbindContext@SchedulerProxy@details@Concurrency@@UEAAXPEAUIExecutionContext@3@@Z 000000018003460c f   libconcrt:SchedulerProxy.obj
 0001:00033668       ?Initialize@UMS@details@Concurrency@@SAXXZ 0000000180034668 f   libconcrt:UMSWrapper.obj
 0001:00033d1c       ?Initialize@WinRT@details@Concurrency@@SAXXZ 0000000180034d1c f   libconcrt:WinRTWrapper.obj
 0001:00033e54       ?RoInitialize@WinRT@details@Concurrency@@SAJW4RO_INIT_TYPE@@@Z 0000000180034e54 f   libconcrt:WinRTWrapper.obj
 0001:00033e8c       ?RoUninitialize@WinRT@details@Concurrency@@SAXXZ 0000000180034e8c f   libconcrt:WinRTWrapper.obj
 0001:00033eb4       ??0ThreadProxyFactoryManager@details@Concurrency@@QEAA@XZ 0000000180034eb4 f   libconcrt:ThreadProxyFactoryManager.obj
 0001:00033ef0       ??1ThreadProxyFactoryManager@details@Concurrency@@QEAA@XZ 0000000180034ef0 f   libconcrt:ThreadProxyFactoryManager.obj
 0001:00033f6c       ??_G?$ThreadProxyFactory@VFreeThreadProxy@details@Concurrency@@@details@Concurrency@@UEAAPEAXI@Z 0000000180034f6c f i libconcrt:ThreadProxyFactoryManager.obj
 0001:00033f6c       ??_E?$ThreadProxyFactory@VFreeThreadProxy@details@Concurrency@@@details@Concurrency@@UEAAPEAXI@Z 0000000180034f6c f i libconcrt:ThreadProxyFactoryManager.obj
 0001:00033f98       ??_EFreeThreadProxy@details@Concurrency@@UEAAPEAXI@Z 0000000180034f98 f i libconcrt:ThreadProxyFactoryManager.obj
 0001:00033f98       ??_GFreeThreadProxy@details@Concurrency@@UEAAPEAXI@Z 0000000180034f98 f i libconcrt:ThreadProxyFactoryManager.obj
 0001:00033fd8       ??_GFreeThreadProxyFactory@details@Concurrency@@UEAAPEAXI@Z 0000000180034fd8 f i libconcrt:ThreadProxyFactoryManager.obj
 0001:00033fd8       ??_EFreeThreadProxyFactory@details@Concurrency@@UEAAPEAXI@Z 0000000180034fd8 f i libconcrt:ThreadProxyFactoryManager.obj
 0001:00034004       ??_GIThreadProxyFactory@details@Concurrency@@UEAAPEAXI@Z 0000000180035004 f i libconcrt:ThreadProxyFactoryManager.obj
 0001:00034004       ??_EIThreadProxyFactory@details@Concurrency@@UEAAPEAXI@Z 0000000180035004 f i libconcrt:ThreadProxyFactoryManager.obj
 0001:00034030       ?Create@FreeThreadProxyFactory@details@Concurrency@@EEAAPEAVFreeThreadProxy@23@I@Z 0000000180035030 f i libconcrt:ThreadProxyFactoryManager.obj
 0001:000340b0       ?CreateFactory@FreeThreadProxyFactory@details@Concurrency@@SAPEAV123@PEAVThreadProxyFactoryManager@23@@Z 00000001800350b0 f i libconcrt:ThreadProxyFactoryManager.obj
 0001:00034148       ?GetExecutionResourceTls@?$ThreadProxyFactory@VFreeThreadProxy@details@Concurrency@@@details@Concurrency@@UEAAKXZ 0000000180035148 f i libconcrt:ThreadProxyFactoryManager.obj
 0001:0003414c       ?GetFreeThreadProxyFactory@ThreadProxyFactoryManager@details@Concurrency@@QEAAPEAVFreeThreadProxyFactory@23@XZ 000000018003514c f   libconcrt:ThreadProxyFactoryManager.obj
 0001:000341a4       ?Prepare@?$ThreadProxyFactory@VFreeThreadProxy@details@Concurrency@@@details@Concurrency@@MEAAXPEAVFreeThreadProxy@23@H@Z 00000001800351a4 f i libconcrt:ThreadProxyFactoryManager.obj
 0001:000341c4       ?ReclaimProxy@?$ThreadProxyFactory@VFreeThreadProxy@details@Concurrency@@@details@Concurrency@@UEAAXPEAUIThreadProxy@3@@Z 00000001800351c4 f i libconcrt:ThreadProxyFactoryManager.obj
 0001:0003425c       ?ReclaimProxy@FreeThreadProxyFactory@details@Concurrency@@UEAAXPEAUIThreadProxy@3@@Z 000000018003525c f i libconcrt:ThreadProxyFactoryManager.obj
 0001:00034350       ?Reference@FreeThreadProxyFactory@details@Concurrency@@UEAAJXZ 0000000180035350 f i libconcrt:ThreadProxyFactoryManager.obj
 0001:00034360       ?Release@FreeThreadProxyFactory@details@Concurrency@@UEAAJXZ 0000000180035360 f i libconcrt:ThreadProxyFactoryManager.obj
 0001:000343b0       ?RequestProxy@?$ThreadProxyFactory@VFreeThreadProxy@details@Concurrency@@@details@Concurrency@@UEAAPEAUIThreadProxy@3@IH@Z 00000001800353b0 f i libconcrt:ThreadProxyFactoryManager.obj
 0001:0003446c       ?Retire@FreeThreadProxyFactory@details@Concurrency@@EEAAXPEAVFreeThreadProxy@23@@Z 000000018003546c f i libconcrt:ThreadProxyFactoryManager.obj
 0001:00034474       ?RetireThreadProxies@?$ThreadProxyFactory@VFreeThreadProxy@details@Concurrency@@@details@Concurrency@@QEAAXXZ 0000000180035474 f i libconcrt:ThreadProxyFactoryManager.obj
 0001:00034500       ?ShutdownFactory@FreeThreadProxyFactory@details@Concurrency@@UEAAXXZ 0000000180035500 f i libconcrt:ThreadProxyFactoryManager.obj
 0001:00034538       ?YieldToSystem@FreeThreadProxy@details@Concurrency@@UEAAXXZ 0000000180035538 f i libconcrt:ThreadProxyFactoryManager.obj
 0001:00034540       ??0Etw@details@Concurrency@@AEAA@XZ 0000000180035540 f   libconcrt:Trace.obj
 0001:00034648       ?ControlCallback@details@Concurrency@@YAKW4WMIDPREQUESTCODE@@PEAXPEAK1@Z 0000000180035648 f   libconcrt:Trace.obj
 0001:00034710       ?GetEnableFlags@Etw@details@Concurrency@@QEAAK_K@Z 0000000180035710 f   libconcrt:Trace.obj
 0001:00034760       ?GetEnableLevel@Etw@details@Concurrency@@QEAAE_K@Z 0000000180035760 f   libconcrt:Trace.obj
 0001:000347b0       ?GetLoggerHandle@Etw@details@Concurrency@@QEAA_KPEAX@Z 00000001800357b0 f   libconcrt:Trace.obj
 0001:00034804       ?RegisterGuids@Etw@details@Concurrency@@QEAAKP6AKW4WMIDPREQUESTCODE@@PEAXPEAK1@ZPEBU_GUID@@KPEAU_TRACE_GUID_REGISTRATION@@PEA_K@Z 0000000180035804 f   libconcrt:Trace.obj
 0001:00034890       ?Trace@Etw@details@Concurrency@@QEAAK_KPEAU_EVENT_TRACE_HEADER@@@Z 0000000180035890 f   libconcrt:Trace.obj
 0001:000348e8       ?UnregisterGuids@Etw@details@Concurrency@@QEAAK_K@Z 00000001800358e8 f   libconcrt:Trace.obj
 0001:00034930       ?_RegisterConcRTEventTracing@details@Concurrency@@YAXXZ 0000000180035930 f   libconcrt:Trace.obj
 0001:000349f0       ?_UnregisterConcRTEventTracing@details@Concurrency@@YAXXZ 00000001800359f0 f   libconcrt:Trace.obj
 0001:00034a3c       ??0VirtualProcessor@details@Concurrency@@QEAA@XZ 0000000180035a3c f   libconcrt:VirtualProcessor.obj
 0001:00034ab0       ??1VirtualProcessor@details@Concurrency@@UEAA@XZ 0000000180035ab0 f   libconcrt:VirtualProcessor.obj
 0001:00034b0c       ??_EVirtualProcessor@details@Concurrency@@UEAAPEAXI@Z 0000000180035b0c f i libconcrt:VirtualProcessor.obj
 0001:00034b0c       ??_GVirtualProcessor@details@Concurrency@@UEAAPEAXI@Z 0000000180035b0c f i libconcrt:VirtualProcessor.obj
 0001:00034b40       ?Affinitize@VirtualProcessor@details@Concurrency@@MEAAXPEAVInternalContextBase@23@@Z 0000000180035b40 f   libconcrt:VirtualProcessor.obj
 0001:00034bac       ?CheckAffinityNotification@VirtualProcessor@details@Concurrency@@QEAA_NXZ 0000000180035bac f   libconcrt:VirtualProcessor.obj
 0001:00034c08       ?CheckForDeletion@?$ListArray@VVirtualProcessor@details@Concurrency@@@details@Concurrency@@AEAAXXZ 0000000180035c08 f i libconcrt:VirtualProcessor.obj
 0001:00034c88       ?CheckForDeletionBridge@?$ListArray@VVirtualProcessor@details@Concurrency@@@details@Concurrency@@CAXPEAV123@@Z 0000000180035c88 f i libconcrt:VirtualProcessor.obj
 0001:00034c90       ?ClaimExclusiveOwnership@VirtualProcessor@details@Concurrency@@QEAA_NAEAVClaimTicket@123@K_N@Z 0000000180035c90 f   libconcrt:VirtualProcessor.obj
 0001:00034d28       ?Deactivate@VirtualProcessor@details@Concurrency@@QEAA_NPEAUIExecutionContext@3@@Z 0000000180035d28 f   libconcrt:VirtualProcessor.obj
 0001:00034d6c       ?EnsureAllTasksVisible@VirtualProcessor@details@Concurrency@@QEAAXPEAUIExecutionContext@3@@Z 0000000180035d6c f   libconcrt:VirtualProcessor.obj
 0001:00034db0       ?ExerciseClaim@VirtualProcessor@details@Concurrency@@AEAA_NW4AvailabilityType@123@PEAVScheduleGroupSegmentBase@23@PEAVInternalContextBase@23@@Z 0000000180035db0 f   libconcrt:VirtualProcessor.obj
 0001:00034e8c       ?ExerciseWith@ClaimTicket@VirtualProcessor@details@Concurrency@@QEAA_NPEAVInternalContextBase@34@@Z 0000000180035e8c f   libconcrt:VirtualProcessor.obj
 0001:00034ec0       ?GetCurrentSubAllocator@VirtualProcessor@details@Concurrency@@QEAAPEAVSubAllocator@23@XZ 0000000180035ec0 f   libconcrt:VirtualProcessor.obj
 0001:00034ef0       ?Initialize@VirtualProcessor@details@Concurrency@@MEAAXPEAVSchedulingNode@23@PEAUIVirtualProcessorRoot@3@@Z 0000000180035ef0 f   libconcrt:VirtualProcessor.obj
 0001:00035160       ?InterlockedClear@ReferenceCountedQuickBitSet@details@Concurrency@@QEAAII@Z 0000000180036160 f i libconcrt:VirtualProcessor.obj
 0001:000351fc       ?InterlockedSet@ReferenceCountedQuickBitSet@details@Concurrency@@QEAAII@Z 00000001800361fc f i libconcrt:VirtualProcessor.obj
 0001:00035298       ?MakeAvailable@VirtualProcessor@details@Concurrency@@IEAAXW4AvailabilityType@123@_N@Z 0000000180036298 f   libconcrt:VirtualProcessor.obj
 0001:00035318       ?MarkForRetirement@VirtualProcessor@details@Concurrency@@AEAAXXZ 0000000180036318 f   libconcrt:VirtualProcessor.obj
 0001:0003539c       ?Oversubscribe@VirtualProcessor@details@Concurrency@@EEAAPEAV123@XZ 000000018003639c f   libconcrt:VirtualProcessor.obj
 0001:000353f8       ?Pop@?$StructuredWorkStealingQueue@VInternalContextBase@details@Concurrency@@V_HyperNonReentrantLock@23@@details@Concurrency@@QEAAPEAVInternalContextBase@23@XZ 00000001800363f8 f i libconcrt:VirtualProcessor.obj
 0001:000354a4       ?Remove@?$ListArray@VVirtualProcessor@details@Concurrency@@@details@Concurrency@@QEAA_NPEAVVirtualProcessor@23@H_N@Z 00000001800364a4 f i libconcrt:VirtualProcessor.obj
 0001:000355e8       ?Retire@VirtualProcessor@details@Concurrency@@MEAAXXZ 00000001800365e8 f   libconcrt:VirtualProcessor.obj
 0001:00035824       ?SafePoint@VirtualProcessor@details@Concurrency@@QEAA_NXZ 0000000180036824 f   libconcrt:VirtualProcessor.obj
 0001:00035838       ?StartupWorkerContext@VirtualProcessor@details@Concurrency@@EEAA_NPEAVScheduleGroupSegmentBase@23@PEAVInternalContextBase@23@@Z 0000000180036838 f   libconcrt:VirtualProcessor.obj
 0001:00035930       ?StaticDelete@Segment@?$Mailbox@V_UnrealizedChore@details@Concurrency@@@details@Concurrency@@SAXPEAU1234@@Z 0000000180036930 f i libconcrt:ContextBase.obj
 0001:00035930       ?StaticDelete@Segment@?$Mailbox@VInternalContextBase@details@Concurrency@@@details@Concurrency@@SAXPEAU1234@@Z 0000000180036930 f i libconcrt:VirtualProcessor.obj
 0001:00035964       ?ThrowVirtualProcessorEvent@VirtualProcessor@details@Concurrency@@CAXW4ConcRT_EventType@3@EKK@Z 0000000180036964 f   libconcrt:VirtualProcessor.obj
 0001:00035a00       ?ToInternalContext@VirtualProcessor@details@Concurrency@@MEAAPEAVInternalContextBase@23@PEAUIExecutionContext@3@@Z 0000000180036a00 f   libconcrt:VirtualProcessor.obj
 0001:00035a04       ?UpdateWorkState@VirtualProcessor@details@Concurrency@@QEAAX_N0@Z 0000000180036a04 f   libconcrt:VirtualProcessor.obj
 0001:00035ab8       ?Wipe@QuickBitSet@details@Concurrency@@QEAAXXZ 0000000180036ab8 f i libconcrt:VirtualProcessor.obj
 0001:00035b4c       ??0SchedulingNode@details@Concurrency@@QEAA@AEBVQuickBitSet@12@KPEAVSchedulingRing@12@@Z 0000000180036b4c f   libconcrt:SchedulingNode.obj
 0001:00035c10       ??1?$ListArray@VVirtualProcessor@details@Concurrency@@@details@Concurrency@@QEAA@XZ 0000000180036c10 f i libconcrt:SchedulingNode.obj
 0001:00035d5c       ??1SchedulingNode@details@Concurrency@@QEAA@XZ 0000000180036d5c f   libconcrt:SchedulingNode.obj
 0001:00035d98       ?Add@?$ListArray@VVirtualProcessor@details@Concurrency@@@details@Concurrency@@QEAAHPEAVVirtualProcessor@23@@Z 0000000180036d98 f i libconcrt:SchedulingNode.obj
 0001:00035f18       ?AddVirtualProcessor@SchedulingNode@details@Concurrency@@QEAAPEAVVirtualProcessor@23@PEAUIVirtualProcessorRoot@3@_N@Z 0000000180036f18 f   libconcrt:SchedulingNode.obj
 0001:00036088       ?FindMatchingVirtualProcessor@SchedulingNode@details@Concurrency@@QEAAPEAVVirtualProcessor@23@PEAUIVirtualProcessorRoot@3@@Z 0000000180037088 f   libconcrt:SchedulingNode.obj
 0001:00036140       ?FindVirtualProcessorByLocation@SchedulingNode@details@Concurrency@@QEAAPEAVVirtualProcessor@23@PEBVlocation@3@@Z 0000000180037140 f   libconcrt:SchedulingNode.obj
 0001:00036220       ?FoundAvailableVirtualProcessor@SchedulingNode@details@Concurrency@@AEAA_NAEAVClaimTicket@VirtualProcessor@23@Vlocation@3@K@Z 0000000180037220 f   libconcrt:SchedulingNode.obj
 0001:00036330       ?GetLocation@SchedulingNode@details@Concurrency@@QEAA?AVlocation@3@XZ 0000000180037330 f   libconcrt:SchedulingNode.obj
 0001:00036394       ?UnlockedSteal@?$StructuredWorkStealingQueue@VInternalContextBase@details@Concurrency@@V_HyperNonReentrantLock@23@@details@Concurrency@@QEAAPEAVInternalContextBase@23@_N@Z 0000000180037394 f i libconcrt:SchedulingNode.obj
 0001:00036394       ?UnlockedSteal@?$StructuredWorkStealingQueue@V_UnrealizedChore@details@Concurrency@@V_CriticalNonReentrantLock@23@@details@Concurrency@@QEAAPEAV_UnrealizedChore@23@_N@Z 0000000180037394 f i libconcrt:WorkQueue.obj
 0001:000364a0       ??0AllocatorBucket@details@Concurrency@@QEAA@XZ 00000001800374a0 f   libconcrt:SubAllocator.obj
 0001:000364c0       ??1AllocatorBucket@details@Concurrency@@QEAA@XZ 00000001800374c0 f   libconcrt:SubAllocator.obj
 0001:000364fc       ?Alloc@AllocatorBucket@details@Concurrency@@QEAAPEATAllocationEntry@23@XZ 00000001800374fc f   libconcrt:SubAllocator.obj
 0001:00036524       ?Alloc@SubAllocator@details@Concurrency@@QEAAPEAX_K@Z 0000000180037524 f   libconcrt:SubAllocator.obj
 0001:000365a4       ?Free@AllocatorBucket@details@Concurrency@@QEAA_NPEATAllocationEntry@23@@Z 00000001800375a4 f   libconcrt:SubAllocator.obj
 0001:000365d4       ?Free@SubAllocator@details@Concurrency@@QEAAXPEAX@Z 00000001800375d4 f   libconcrt:SubAllocator.obj
 0001:00036620       ?GetBucketIndex@SubAllocator@details@Concurrency@@SAH_K@Z 0000000180037620 f   libconcrt:SubAllocator.obj
 0001:00036674       ?StaticAlloc@SubAllocator@details@Concurrency@@SAPEAX_K@Z 0000000180037674 f   libconcrt:SubAllocator.obj
 0001:000366c4       ??0InternalContextBase@details@Concurrency@@QEAA@PEAVSchedulerBase@12@@Z 00000001800376c4 f   libconcrt:InternalContextBase.obj
 0001:00036754       ??0context_self_unblock@Concurrency@@QEAA@AEBV01@@Z 0000000180037754 f i libconcrt:InternalContextBase.obj
 0001:00036794       ??0context_unblock_unbalanced@Concurrency@@QEAA@AEBV01@@Z 0000000180037794 f i libconcrt:InternalContextBase.obj
 0001:000367d4       ??0invalid_oversubscribe_operation@Concurrency@@QEAA@AEBV01@@Z 00000001800377d4 f i libconcrt:InternalContextBase.obj
 0001:00036814       ??0nested_scheduler_missing_detach@Concurrency@@QEAA@AEBV01@@Z 0000000180037814 f i libconcrt:InternalContextBase.obj
 0001:00036854       ??1InternalContextBase@details@Concurrency@@UEAA@XZ 0000000180037854 f   libconcrt:InternalContextBase.obj
 0001:00036890       ??1ScopedCriticalRegion@ContextBase@details@Concurrency@@QEAA@XZ 0000000180037890 f i libconcrt:InternalContextBase.obj
 0001:000368ac       ??_EInternalContextBase@details@Concurrency@@WBA@EAAPEAXI@Z 00000001800378ac f i libconcrt:InternalContextBase.obj
 0001:000368b8       ??_EInternalContextBase@details@Concurrency@@UEAAPEAXI@Z 00000001800378b8 f i libconcrt:InternalContextBase.obj
 0001:000368b8       ??_GInternalContextBase@details@Concurrency@@UEAAPEAXI@Z 00000001800378b8 f i libconcrt:InternalContextBase.obj
 0001:000368ec       ?AddToRunnables@InternalContextBase@details@Concurrency@@MEAAXVlocation@3@@Z 00000001800378ec f   libconcrt:InternalContextBase.obj
 0001:00036b94       ?Alloc@InternalContextBase@details@Concurrency@@UEAAPEAX_K@Z 0000000180037b94 f   libconcrt:InternalContextBase.obj
 0001:00036c04       ?Block@InternalContextBase@details@Concurrency@@UEAAXXZ 0000000180037c04 f   libconcrt:InternalContextBase.obj
 0001:00036df8       ?Cancel@InternalContextBase@details@Concurrency@@MEAAXXZ 0000000180037df8 f   libconcrt:InternalContextBase.obj
 0001:00036e8c       ?Cleanup@InternalContextBase@details@Concurrency@@IEAAXXZ 0000000180037e8c f   libconcrt:InternalContextBase.obj
 0001:00036eb0       ?CleanupDispatchedContextOnCancel@InternalContextBase@details@Concurrency@@IEAAXXZ 0000000180037eb0 f   libconcrt:InternalContextBase.obj
 0001:00036ed8       ?Dispatch@InternalContextBase@details@Concurrency@@UEAAXPEAUDispatchState@3@@Z 0000000180037ed8 f   libconcrt:InternalContextBase.obj
 0001:000370a8       ?ExecuteChoreInline@InternalContextBase@details@Concurrency@@IEAAXPEAVWorkItem@23@@Z 00000001800380a8 f   libconcrt:InternalContextBase.obj
 0001:00037100       ?ExecutedAssociatedChore@InternalContextBase@details@Concurrency@@IEAA_NXZ 0000000180038100 f   libconcrt:InternalContextBase.obj
 0001:000371a0       ?FindWorkForBlockingOrNesting@InternalContextBase@details@Concurrency@@AEAAPEAV123@AEA_N0@Z 00000001800381a0 f   libconcrt:InternalContextBase.obj
 0001:00037344       ?Free@InternalContextBase@details@Concurrency@@UEAAXPEAX@Z 0000000180038344 f   libconcrt:InternalContextBase.obj
 0001:00037384       ?GetAndResetOversubscribedVProc@InternalContextBase@details@Concurrency@@QEAAPEAVVirtualProcessor@23@PEAV423@@Z 0000000180038384 f   libconcrt:InternalContextBase.obj
 0001:000373ac       ?GetId@InternalContextBase@details@Concurrency@@UEBAIXZ 00000001800383ac f   libconcrt:InternalContextBase.obj
 0001:000373ac       ?Id@ScheduleGroupBase@details@Concurrency@@UEBAIXZ 00000001800383ac f   libconcrt:SchedulerBase.obj
 0001:000373b0       ?GetId@InternalContextBase@details@Concurrency@@WBA@EBAIXZ 00000001800383b0 f i libconcrt:InternalContextBase.obj
 0001:000373bc       ?GetProxy@InternalContextBase@details@Concurrency@@UEAAPEAUIThreadProxy@3@XZ 00000001800383bc f   libconcrt:InternalContextBase.obj
 0001:000373c4       ?GetScheduler@InternalContextBase@details@Concurrency@@UEAAPEAUIScheduler@3@XZ 00000001800383c4 f   libconcrt:InternalContextBase.obj
 0001:000373f4       ?GetVirtualProcessorId@InternalContextBase@details@Concurrency@@UEBAIXZ 00000001800383f4 f   libconcrt:InternalContextBase.obj
 0001:0003743c       ?GrowAndPush@?$StructuredWorkStealingQueue@VInternalContextBase@details@Concurrency@@V_HyperNonReentrantLock@23@@details@Concurrency@@AEAAXPEAVInternalContextBase@23@VSlot@?$Mailbox@VInternalContextBase@details@Concurrency@@@23@@Z 000000018003843c f i libconcrt:InternalContextBase.obj
 0001:000375fc       ?IsSynchronouslyBlocked@InternalContextBase@details@Concurrency@@UEBA_NXZ 00000001800385fc f i libconcrt:InternalContextBase.obj
 0001:00037608       ?IsVirtualProcessorRetired@InternalContextBase@details@Concurrency@@IEAA_NXZ 0000000180038608 f   libconcrt:InternalContextBase.obj
 0001:00037678       ?LeaveScheduler@InternalContextBase@details@Concurrency@@AEAAXXZ 0000000180038678 f   libconcrt:InternalContextBase.obj
 0001:000377bc       ?Oversubscribe@InternalContextBase@details@Concurrency@@UEAAX_N@Z 00000001800387bc f   libconcrt:InternalContextBase.obj
 0001:00037870       ?PrepareForUse@InternalContextBase@details@Concurrency@@QEAAXPEAVScheduleGroupSegmentBase@23@PEAU_Chore@23@_N@Z 0000000180038870 f   libconcrt:InternalContextBase.obj
 0001:000378c0       ?PrepareToRun@InternalContextBase@details@Concurrency@@MEAAXPEAVVirtualProcessor@23@@Z 00000001800388c0 f i libconcrt:InternalContextBase.obj
 0001:000378d0       ?ReclaimVirtualProcessor@InternalContextBase@details@Concurrency@@IEAAXXZ 00000001800388d0 f   libconcrt:InternalContextBase.obj
 0001:00037944       ?RejoinScheduler@InternalContextBase@details@Concurrency@@AEAAXXZ 0000000180038944 f   libconcrt:InternalContextBase.obj
 0001:0003797c       ?RemoveFromUse@InternalContextBase@details@Concurrency@@QEAAXXZ 000000018003897c f   libconcrt:InternalContextBase.obj
 0001:000379b0       ?SetProxy@InternalContextBase@details@Concurrency@@UEAAXPEAUIThreadProxy@3@@Z 00000001800389b0 f   libconcrt:InternalContextBase.obj
 0001:000379e8       ?SpinUntilBlocked@InternalContextBase@details@Concurrency@@IEAAXXZ 00000001800389e8 f   libconcrt:InternalContextBase.obj
 0001:00037a20       ?SpinYield@InternalContextBase@details@Concurrency@@UEAAXXZ 0000000180038a20 f   libconcrt:InternalContextBase.obj
 0001:00037b4c       ?SwapScheduleGroupSegment@InternalContextBase@details@Concurrency@@QEAAXPEAVScheduleGroupSegmentBase@23@_N@Z 0000000180038b4c f   libconcrt:InternalContextBase.obj
 0001:00037c0c       ?SwitchOut@InternalContextBase@details@Concurrency@@IEAA_NW4ReasonForSwitch@123@@Z 0000000180038c0c f   libconcrt:InternalContextBase.obj
 0001:00037da8       ?SwitchTo@InternalContextBase@details@Concurrency@@IEAAXPEAV123@W4ReasonForSwitch@123@@Z 0000000180038da8 f   libconcrt:InternalContextBase.obj
 0001:00037f9c       ?Unblock@InternalContextBase@details@Concurrency@@UEAAXXZ 0000000180038f9c f   libconcrt:InternalContextBase.obj
 0001:000380f4       ?WaitForWork@InternalContextBase@details@Concurrency@@IEAAXXZ 00000001800390f4 f   libconcrt:InternalContextBase.obj
 0001:00038254       ?WorkWasFound@InternalContextBase@details@Concurrency@@IEAA_NPEAVWorkItem@23@@Z 0000000180039254 f   libconcrt:InternalContextBase.obj
 0001:00038300       ?Yield@InternalContextBase@details@Concurrency@@UEAAXXZ 0000000180039300 f   libconcrt:InternalContextBase.obj
 0001:00038528       ??0SchedulingRing@details@Concurrency@@QEAA@PEAVSchedulerBase@12@H@Z 0000000180039528 f   libconcrt:SchedulingRing.obj
 0001:000385e8       ??1?$ListArray@VScheduleGroupSegmentBase@details@Concurrency@@@details@Concurrency@@QEAA@XZ 00000001800395e8 f i libconcrt:SchedulingRing.obj
 0001:00038734       ??1SchedulingRing@details@Concurrency@@QEAA@XZ 0000000180039734 f   libconcrt:SchedulingRing.obj
 0001:0003875c       ?Activate@SchedulingRing@details@Concurrency@@QEAAXXZ 000000018003975c f   libconcrt:SchedulingRing.obj
 0001:00038768       ?CheckForDeletion@?$ListArray@VScheduleGroupSegmentBase@details@Concurrency@@@details@Concurrency@@AEAAXXZ 0000000180039768 f i libconcrt:SchedulingRing.obj
 0001:000387e8       ?CheckForDeletionBridge@?$ListArray@VScheduleGroupSegmentBase@details@Concurrency@@@details@Concurrency@@CAXPEAV123@@Z 00000001800397e8 f i libconcrt:SchedulingRing.obj
 0001:000387f0       ?Remove@?$ListArray@VScheduleGroupSegmentBase@details@Concurrency@@@details@Concurrency@@QEAA_NPEAVScheduleGroupSegmentBase@23@H_N@Z 00000001800397f0 f i libconcrt:SchedulingRing.obj
 0001:00038934       ?RemoveScheduleGroupSegment@SchedulingRing@details@Concurrency@@AEAAXPEAVScheduleGroupSegmentBase@23@@Z 0000000180039934 f   libconcrt:SchedulingRing.obj
 0001:0003895c       ??0?$Mailbox@V_UnrealizedChore@details@Concurrency@@@details@Concurrency@@QEAA@PEAVSchedulerBase@12@AEBVQuickBitSet@12@_NI@Z 000000018003995c f i libconcrt:ScheduleGroupBase.obj
 0001:00038a20       ??0ScheduleGroupBase@details@Concurrency@@QEAA@PEAVSchedulerBase@12@PEAVlocation@2@@Z 0000000180039a20 f   libconcrt:ScheduleGroupBase.obj
 0001:00038ab4       ??0ScheduleGroupSegmentBase@details@Concurrency@@IEAA@PEAVScheduleGroupBase@12@PEAVSchedulingRing@12@PEAVlocation@2@@Z 0000000180039ab4 f   libconcrt:ScheduleGroupBase.obj
 0001:00038bc0       ??0Segment@?$Mailbox@V_UnrealizedChore@details@Concurrency@@@details@Concurrency@@QEAA@PEAVSchedulerBase@23@AEBVQuickBitSet@23@II@Z 0000000180039bc0 f i libconcrt:ScheduleGroupBase.obj
 0001:00038c48       ??1?$ListArray@U?$ListArrayInlineLink@VWorkQueue@details@Concurrency@@@details@Concurrency@@@details@Concurrency@@QEAA@XZ 0000000180039c48 f i libconcrt:ScheduleGroupBase.obj
 0001:00038d3c       ??1?$ListArray@VWorkQueue@details@Concurrency@@@details@Concurrency@@QEAA@XZ 0000000180039d3c f i libconcrt:ScheduleGroupBase.obj
 0001:00038ef8       ??1?$Mailbox@V_UnrealizedChore@details@Concurrency@@@details@Concurrency@@QEAA@XZ 0000000180039ef8 f i libconcrt:ScheduleGroupBase.obj
 0001:00038f6c       ??1ScheduleGroupSegmentBase@details@Concurrency@@UEAA@XZ 0000000180039f6c f   libconcrt:ScheduleGroupBase.obj
 0001:00038ff0       ??_ECacheLocalScheduleGroup@details@Concurrency@@UEAAPEAXI@Z 0000000180039ff0 f i libconcrt:SchedulerBase.obj
 0001:00038ff0       ??_GCacheLocalScheduleGroup@details@Concurrency@@UEAAPEAXI@Z 0000000180039ff0 f i libconcrt:SchedulerBase.obj
 0001:00038ff0       ??_EScheduleGroupBase@details@Concurrency@@UEAAPEAXI@Z 0000000180039ff0 f i libconcrt:ScheduleGroupBase.obj
 0001:00038ff0       ??_GScheduleGroupBase@details@Concurrency@@UEAAPEAXI@Z 0000000180039ff0 f i libconcrt:ScheduleGroupBase.obj
 0001:0003901c       ??_EScheduleGroupSegmentBase@details@Concurrency@@UEAAPEAXI@Z 000000018003a01c f i libconcrt:ScheduleGroupBase.obj
 0001:0003901c       ??_GScheduleGroupSegmentBase@details@Concurrency@@UEAAPEAXI@Z 000000018003a01c f i libconcrt:ScheduleGroupBase.obj
 0001:00039050       ?Add@?$ListArray@VExternalStatistics@details@Concurrency@@@details@Concurrency@@QEAAHPEAVExternalStatistics@23@@Z 000000018003a050 f i libconcrt:ScheduleGroupBase.obj
 0001:00039050       ?Add@?$ListArray@U?$ListArrayInlineLink@VWorkQueue@details@Concurrency@@@details@Concurrency@@@details@Concurrency@@QEAAHPEAU?$ListArrayInlineLink@VWorkQueue@details@Concurrency@@@23@@Z 000000018003a050 f i libconcrt:ScheduleGroupBase.obj
 0001:000391cc       ?Add@?$ListArray@VScheduleGroupSegmentBase@details@Concurrency@@@details@Concurrency@@QEAAHPEAVScheduleGroupSegmentBase@23@@Z 000000018003a1cc f i libconcrt:ScheduleGroupBase.obj
 0001:0003934c       ?AddRunnableContext@ScheduleGroupSegmentBase@details@Concurrency@@IEAAXPEAVInternalContextBase@23@Vlocation@3@@Z 000000018003a34c f   libconcrt:ScheduleGroupBase.obj
 0001:000394a0       ?CheckForDeletionBridge@?$ListArray@U?$ListArrayInlineLink@VWorkQueue@details@Concurrency@@@details@Concurrency@@@details@Concurrency@@CAXPEAV123@@Z 000000018003a4a0 f i libconcrt:ScheduleGroupBase.obj
 0001:000394f4       ?CreateSegment@ScheduleGroupBase@details@Concurrency@@IEAAPEAVScheduleGroupSegmentBase@23@PEAVlocation@3@PEAVSchedulingRing@23@@Z 000000018003a4f4 f   libconcrt:ScheduleGroupBase.obj
 0001:000395e0       ?DemandInitialize@?$Mailbox@V_UnrealizedChore@details@Concurrency@@@details@Concurrency@@AEAAXXZ 000000018003a5e0 f i libconcrt:ScheduleGroupBase.obj
 0001:00039670       ?Dequeue@?$Mailbox@V_UnrealizedChore@details@Concurrency@@@details@Concurrency@@QEAA_NPEAPEAV_UnrealizedChore@23@@Z 000000018003a670 f i libconcrt:ScheduleGroupBase.obj
 0001:00039760       ?DetachActiveWorkQueue@ScheduleGroupSegmentBase@details@Concurrency@@IEAAXPEAVWorkQueue@23@@Z 000000018003a760 f   libconcrt:ScheduleGroupBase.obj
 0001:000397f0       ?FindSegment@ScheduleGroupBase@details@Concurrency@@MEAAPEAVScheduleGroupSegmentBase@23@PEAVlocation@3@PEAVSchedulingRing@23@@Z 000000018003a7f0 f   libconcrt:ScheduleGroupBase.obj
 0001:00039868       ?GetDetachedWorkQueue@ScheduleGroupSegmentBase@details@Concurrency@@IEAAPEAVWorkQueue@23@XZ 000000018003a868 f   libconcrt:ScheduleGroupBase.obj
 0001:0003997c       ?GetInternalContext@ScheduleGroupSegmentBase@details@Concurrency@@IEAAPEAVInternalContextBase@23@PEAU_Chore@23@_N@Z 000000018003a97c f   libconcrt:ScheduleGroupBase.obj
 0001:000399dc       ?GetRealizedChore@ScheduleGroupSegmentBase@details@Concurrency@@IEAAPEAVRealizedChore@23@XZ 000000018003a9dc f   libconcrt:ScheduleGroupBase.obj
 0001:00039a48       ?HasRealizedChores@ScheduleGroupSegmentBase@details@Concurrency@@IEBA_NXZ 000000018003aa48 f   libconcrt:ScheduleGroupBase.obj
 0001:00039a54       ?HasUnrealizedChores@ScheduleGroupSegmentBase@details@Concurrency@@IEAA_NXZ 000000018003aa54 f   libconcrt:ScheduleGroupBase.obj
 0001:00039a68       ?Initialize@ScheduleGroupBase@details@Concurrency@@QEAAXPEAVlocation@3@@Z 000000018003aa68 f   libconcrt:ScheduleGroupBase.obj
 0001:00039aa4       ?Initialize@ScheduleGroupSegmentBase@details@Concurrency@@IEAAXPEAVScheduleGroupBase@23@PEAVSchedulingRing@23@PEAVlocation@3@@Z 000000018003aaa4 f   libconcrt:ScheduleGroupBase.obj
 0001:00039bc4       ?LocateMailboxSegment@?$Mailbox@V_UnrealizedChore@details@Concurrency@@@details@Concurrency@@AEAAPEAUSegment@123@I_N@Z 000000018003abc4 f i libconcrt:ScheduleGroupBase.obj
 0001:00039c7c       ?LocateSegment@ScheduleGroupBase@details@Concurrency@@UEAAPEAVScheduleGroupSegmentBase@23@PEAVlocation@3@_N@Z 000000018003ac7c f   libconcrt:ScheduleGroupBase.obj
 0001:00039e00       ?LocateUnrealizedChores@ScheduleGroupSegmentBase@details@Concurrency@@IEAAPEAVWorkQueue@23@XZ 000000018003ae00 f   libconcrt:ScheduleGroupBase.obj
 0001:00039f00       ?RedetachQueue@ScheduleGroupSegmentBase@details@Concurrency@@QEAAXPEAVWorkQueue@23@@Z 000000018003af00 f   libconcrt:ScheduleGroupBase.obj
 0001:00039f10       ?ReleaseInternalContext@ScheduleGroupSegmentBase@details@Concurrency@@IEAAXPEAVInternalContextBase@23@@Z 000000018003af10 f   libconcrt:ScheduleGroupBase.obj
 0001:00039f48       ?Remove@?$ListArray@U?$ListArrayInlineLink@VWorkQueue@details@Concurrency@@@details@Concurrency@@@details@Concurrency@@QEAA_NPEAU?$ListArrayInlineLink@VWorkQueue@details@Concurrency@@@23@H_N@Z 000000018003af48 f i libconcrt:ScheduleGroupBase.obj
 0001:0003a08c       ?Remove@ScheduleGroupSegmentBase@details@Concurrency@@IEAAXXZ 000000018003b08c f   libconcrt:ScheduleGroupBase.obj
 0001:0003a0c0       ?RemoveSegments@ScheduleGroupBase@details@Concurrency@@MEAAXXZ 000000018003b0c0 f   libconcrt:ScheduleGroupBase.obj
 0001:0003a11c       ?RetireDetachedQueue@ScheduleGroupSegmentBase@details@Concurrency@@QEAAXPEAVWorkQueue@23@@Z 000000018003b11c f   libconcrt:ScheduleGroupBase.obj
 0001:0003a184       ?SafelyDeleteDetachedWorkQueue@ScheduleGroupSegmentBase@details@Concurrency@@IEAA_NPEAVWorkQueue@23@@Z 000000018003b184 f   libconcrt:ScheduleGroupBase.obj
 0001:0003a1e4       ?ScheduleTask@ScheduleGroupBase@details@Concurrency@@QEAAXP6AXPEAX@Z0AEAVlocation@3@@Z 000000018003b1e4 f   libconcrt:ScheduleGroupBase.obj
 0001:0003a24c       ?ScheduleTask@ScheduleGroupBase@details@Concurrency@@UEAAXP6AXPEAX@Z0@Z 000000018003b24c f   libconcrt:ScheduleGroupBase.obj
 0001:0003a2b4       ?ScheduleTask@ScheduleGroupSegmentBase@details@Concurrency@@QEAAXP6AXPEAX@Z0@Z 000000018003b2b4 f   libconcrt:ScheduleGroupBase.obj
 0001:0003a474       ?StealUnrealizedChore@ScheduleGroupSegmentBase@details@Concurrency@@IEAAPEAV_UnrealizedChore@23@_N@Z 000000018003b474 f   libconcrt:ScheduleGroupBase.obj
 0001:0003a804       ??IQuickBitSet@details@Concurrency@@QEBA?AV012@AEBV012@@Z 000000018003b804 f i libconcrt:CacheLocalScheduleGroup.obj
 0001:0003a8a8       ?AddToRunnablesCollection@CacheLocalScheduleGroupSegment@details@Concurrency@@EEAAXPEAVInternalContextBase@23@@Z 000000018003b8a8 f   libconcrt:CacheLocalScheduleGroup.obj
 0001:0003a90c       ?Enqueue@?$Mailbox@V_UnrealizedChore@details@Concurrency@@@details@Concurrency@@QEAA?AVSlot@123@PEAV_UnrealizedChore@23@@Z 000000018003b90c f i libconcrt:CacheLocalScheduleGroup.obj
 0001:0003a99c       ?MailChore@CacheLocalScheduleGroup@details@Concurrency@@UEAA?AVSlot@?$Mailbox@V_UnrealizedChore@details@Concurrency@@@23@PEAV_UnrealizedChore@23@PEAVlocation@3@PEAPEAVScheduleGroupSegmentBase@23@@Z 000000018003b99c f   libconcrt:CacheLocalScheduleGroup.obj
 0001:0003aa10       ?NotifyAffinitizedWork@CacheLocalScheduleGroupSegment@details@Concurrency@@UEAAXXZ 000000018003ba10 f   libconcrt:CacheLocalScheduleGroup.obj
 0001:0003aa74       ?PostAffinityMessage@SchedulerBase@details@Concurrency@@QEAAXAEBVQuickBitSet@23@@Z 000000018003ba74 f i libconcrt:CacheLocalScheduleGroup.obj
 0001:0003ab1c       ?AddToRunnablesCollection@FairScheduleGroupSegment@details@Concurrency@@EEAAXPEAVInternalContextBase@23@@Z 000000018003bb1c f   libconcrt:FairScheduleGroup.obj
 0001:0003ab80       ?FindSegment@FairScheduleGroup@details@Concurrency@@MEAAPEAVScheduleGroupSegmentBase@23@PEAVlocation@3@PEAVSchedulingRing@23@@Z 000000018003bb80 f   libconcrt:FairScheduleGroup.obj
 0001:0003abb4       ?LocateSegment@FairScheduleGroup@details@Concurrency@@UEAAPEAVScheduleGroupSegmentBase@23@PEAVlocation@3@_N@Z 000000018003bbb4 f   libconcrt:FairScheduleGroup.obj
 0001:0003ac54       ??0ExternalContextBase@details@Concurrency@@QEAA@PEAVSchedulerBase@12@_N@Z 000000018003bc54 f   libconcrt:ExternalContextBase.obj
 0001:0003ad10       ??1ExternalContextBase@details@Concurrency@@UEAA@XZ 000000018003bd10 f   libconcrt:ExternalContextBase.obj
 0001:0003ad40       ??_GExternalContextBase@details@Concurrency@@UEAAPEAXI@Z 000000018003bd40 f i libconcrt:ExternalContextBase.obj
 0001:0003ad40       ??_EExternalContextBase@details@Concurrency@@UEAAPEAXI@Z 000000018003bd40 f i libconcrt:ExternalContextBase.obj
 0001:0003ad74       ?Alloc@ExternalContextBase@details@Concurrency@@UEAAPEAX_K@Z 000000018003bd74 f   libconcrt:ExternalContextBase.obj
 0001:0003adc8       ?Block@ExternalContextBase@details@Concurrency@@UEAAXXZ 000000018003bdc8 f   libconcrt:ExternalContextBase.obj
 0001:0003ae5c       ?Cleanup@ExternalContextBase@details@Concurrency@@AEAAXXZ 000000018003be5c f   libconcrt:ExternalContextBase.obj
 0001:0003aec4       ?Free@ExternalContextBase@details@Concurrency@@UEAAXPEAX@Z 000000018003bec4 f   libconcrt:ExternalContextBase.obj
 0001:0003af18       ?ImplicitDetachHandler@ExternalContextBase@details@Concurrency@@CAXPEAU_TP_CALLBACK_INSTANCE@@PEAXPEAU_TP_WAIT@@K@Z 000000018003bf18 f   libconcrt:ExternalContextBase.obj
 0001:0003af4c       ?ImplicitDetachHandlerXP@ExternalContextBase@details@Concurrency@@CAXPEAXE@Z 000000018003bf4c f   libconcrt:ExternalContextBase.obj
 0001:0003af78       ?IsSynchronouslyBlocked@ExternalContextBase@details@Concurrency@@UEBA_NXZ 000000018003bf78 f i libconcrt:ExternalContextBase.obj
 0001:0003af84       ?Oversubscribe@ExternalContextBase@details@Concurrency@@UEAAX_N@Z 000000018003bf84 f   libconcrt:ExternalContextBase.obj
 0001:0003afc0       ?PrepareForUse@ExternalContextBase@details@Concurrency@@QEAAX_N@Z 000000018003bfc0 f   libconcrt:ExternalContextBase.obj
 0001:0003b0f0       ?RemoveFromUse@ExternalContextBase@details@Concurrency@@QEAAXXZ 000000018003c0f0 f   libconcrt:ExternalContextBase.obj
 0001:0003b120       ?SpinYield@ExternalContextBase@details@Concurrency@@UEAAXXZ 000000018003c120 f i libconcrt:ExternalContextBase.obj
 0001:0003b150       ?Unblock@ExternalContextBase@details@Concurrency@@UEAAXXZ 000000018003c150 f   libconcrt:ExternalContextBase.obj
 0001:0003b230       ?Yield@ExternalContextBase@details@Concurrency@@UEAAXXZ 000000018003c230 f   libconcrt:ExternalContextBase.obj
 0001:0003b298       ??0ThreadScheduler@details@Concurrency@@QEAA@AEBVSchedulerPolicy@2@@Z 000000018003c298 f   libconcrt:ThreadScheduler.obj
 0001:0003b2dc       ??_EThreadInternalContext@details@Concurrency@@WBA@EAAPEAXI@Z 000000018003c2dc f i libconcrt:ThreadScheduler.obj
 0001:0003b2e8       ??_EThreadScheduler@details@Concurrency@@WBA@EAAPEAXI@Z 000000018003c2e8 f i libconcrt:ThreadScheduler.obj
 0001:0003b2f4       ??_GThreadInternalContext@details@Concurrency@@UEAAPEAXI@Z 000000018003c2f4 f i libconcrt:ThreadScheduler.obj
 0001:0003b2f4       ??_EThreadInternalContext@details@Concurrency@@UEAAPEAXI@Z 000000018003c2f4 f i libconcrt:ThreadScheduler.obj
 0001:0003b340       ??_GThreadScheduler@details@Concurrency@@UEAAPEAXI@Z 000000018003c340 f i libconcrt:ThreadScheduler.obj
 0001:0003b340       ??_EThreadScheduler@details@Concurrency@@UEAAPEAXI@Z 000000018003c340 f i libconcrt:ThreadScheduler.obj
 0001:0003b38c       ?AddVirtualProcessors@ThreadScheduler@details@Concurrency@@UEAAXPEAPEAUIVirtualProcessorRoot@3@I@Z 000000018003c38c f i libconcrt:ThreadScheduler.obj
 0001:0003b398       ?Create@ThreadScheduler@details@Concurrency@@SAPEAV123@AEBVSchedulerPolicy@3@@Z 000000018003c398 f   libconcrt:ThreadScheduler.obj
 0001:0003b3d4       ?CreateInternalContext@ThreadScheduler@details@Concurrency@@MEAAPEAVInternalContextBase@23@XZ 000000018003c3d4 f   libconcrt:ThreadScheduler.obj
 0001:0003b440       ?CreateVirtualProcessor@ThreadScheduler@details@Concurrency@@UEAAPEAVVirtualProcessor@23@PEAVSchedulingNode@23@PEAUIVirtualProcessorRoot@3@@Z 000000018003c440 f   libconcrt:ThreadScheduler.obj
 0001:0003b48c       _get_startup_argv_mode     000000018003c48c f i LIBCMT:argv_mode.obj
 0001:0003b48c       ?do_max_length@codecvt_base@std@@MEBAHXZ 000000018003c48c f i libcpmt:cout.obj
 0001:0003b48c       DllMain                    000000018003c48c f i LIBCMT:dll_dllmain_stub.obj
 0001:0003b48c       ?do_encoding@codecvt_base@std@@MEBAHXZ 000000018003c48c f i libcpmt:cout.obj
 0001:0003b48c       ?GetContextKind@ThreadInternalContext@details@Concurrency@@UEBA?AW4ContextKind@ContextBase@23@XZ 000000018003c48c f i libconcrt:ThreadScheduler.obj
 0001:0003b494       ?GetIScheduler@ThreadScheduler@details@Concurrency@@UEAAPEAUIScheduler@3@XZ 000000018003c494 f i libconcrt:ThreadScheduler.obj
 0001:0003b49c       ?GetId@ThreadScheduler@details@Concurrency@@UEBAIXZ 000000018003c49c f i libconcrt:ThreadScheduler.obj
 0001:0003b4cc       ?GetPolicy@ThreadScheduler@details@Concurrency@@UEBA?AVSchedulerPolicy@3@XZ 000000018003c4cc f i libconcrt:ThreadScheduler.obj
 0001:0003b4e8       ?GetPolicy@ThreadScheduler@details@Concurrency@@WBA@EBA?AVSchedulerPolicy@3@XZ 000000018003c4e8 f i libconcrt:ThreadScheduler.obj
 0001:0003b4f4       ?RemoveVirtualProcessors@ThreadScheduler@details@Concurrency@@UEAAXPEAPEAUIVirtualProcessorRoot@3@I@Z 000000018003c4f4 f i libconcrt:ThreadScheduler.obj
 0001:0003b500       ?Statistics@ThreadScheduler@details@Concurrency@@UEAAXPEAI00@Z 000000018003c500 f i libconcrt:ThreadScheduler.obj
 0001:0003b50c       ?OneShotStaticConstruction@UMSThreadScheduler@details@Concurrency@@SAXXZ 000000018003c50c f   libconcrt:UMSThreadScheduler.obj
 0001:0003b558       ?OneShotStaticDestruction@UMSThreadScheduler@details@Concurrency@@SAXXZ 000000018003c558 f   libconcrt:UMSThreadScheduler.obj
 0001:0003b574       ??0exception_ptr@std@@QEAA@AEBV01@@Z 000000018003c574 f i libconcrt:TaskCollectionBase.obj
 0001:0003b58c       ?_FinishCancelState@_TaskCollectionBase@details@Concurrency@@IEAAX_K@Z 000000018003c58c f   libconcrt:TaskCollectionBase.obj
 0001:0003b5c4       ?_GetTokenState@_TaskCollectionBase@details@Concurrency@@QEAAPEAV_CancellationTokenState@23@PEAPEAV_CancellationTokenRegistration@23@@Z 000000018003c5c4 f   libconcrt:TaskCollectionBase.obj
 0001:0003b5f0       ?_MarkCancellation@_TaskCollectionBase@details@Concurrency@@IEAA_NXZ 000000018003c5f0 f   libconcrt:TaskCollectionBase.obj
 0001:0003b610       ?_RaisedException@_TaskCollectionBase@details@Concurrency@@IEAAXXZ 000000018003c610 f   libconcrt:TaskCollectionBase.obj
 0001:0003b6a0       ?_RethrowException@_TaskCollectionBase@details@Concurrency@@IEAAXXZ 000000018003c6a0 f   libconcrt:TaskCollectionBase.obj
 0001:0003b728       ?_RethrowException@exception_ptr@std@@QEBAXXZ 000000018003c728 f i libconcrt:TaskCollectionBase.obj
 0001:0003b734       ?rethrow_exception@std@@YAXVexception_ptr@1@@Z 000000018003c734 f i libconcrt:TaskCollectionBase.obj
 0001:0003b74c       ??0?$StructuredWorkStealingQueue@VInternalContextBase@details@Concurrency@@V_HyperNonReentrantLock@23@@details@Concurrency@@QEAA@PEAV_HyperNonReentrantLock@12@@Z 000000018003c74c f i libconcrt:VirtualProcessor.obj
 0001:0003b74c       ??0?$StructuredWorkStealingQueue@V_UnrealizedChore@details@Concurrency@@V_CriticalNonReentrantLock@23@@details@Concurrency@@QEAA@PEAV_CriticalNonReentrantLock@12@@Z 000000018003c74c f i libconcrt:WorkQueue.obj
 0001:0003b7c8       ??0?$WorkStealingQueue@V_UnrealizedChore@details@Concurrency@@V_CriticalNonReentrantLock@23@@details@Concurrency@@QEAA@PEAV_CriticalNonReentrantLock@12@@Z 000000018003c7c8 f i libconcrt:WorkQueue.obj
 0001:0003b840       ??0WorkQueue@details@Concurrency@@QEAA@XZ 000000018003c840 f   libconcrt:WorkQueue.obj
 0001:0003b8b8       ?DeferToAffineSearchers@Slot@?$Mailbox@VInternalContextBase@details@Concurrency@@@details@Concurrency@@QEBA_NXZ 000000018003c8b8 f i libconcrt:SchedulingNode.obj
 0001:0003b8b8       ?DeferToAffineSearchers@Slot@?$Mailbox@V_UnrealizedChore@details@Concurrency@@@details@Concurrency@@QEBA_NXZ 000000018003c8b8 f i libconcrt:WorkQueue.obj
 0001:0003b958       ?RedetachFromScheduleGroupAtSafePoint@WorkQueue@details@Concurrency@@QEAAXPEAVScheduleGroupSegmentBase@23@@Z 000000018003c958 f   libconcrt:WorkQueue.obj
 0001:0003b980       ?Reinitialize@WorkQueue@details@Concurrency@@AEAAXXZ 000000018003c980 f   libconcrt:WorkQueue.obj
 0001:0003b9ec       ?RetireAtSafePoint@WorkQueue@details@Concurrency@@QEAAXPEAVScheduleGroupSegmentBase@23@@Z 000000018003c9ec f   libconcrt:WorkQueue.obj
 0001:0003ba14       ?StaticRedetachFromScheduleGroup@WorkQueue@details@Concurrency@@CAXPEAV123@@Z 000000018003ca14 f   libconcrt:WorkQueue.obj
 0001:0003ba24       ?StaticRetire@WorkQueue@details@Concurrency@@CAXPEAV123@@Z 000000018003ca24 f   libconcrt:WorkQueue.obj
 0001:0003ba34       ?Steal@WorkQueue@details@Concurrency@@QEAAPEAV_UnrealizedChore@23@_N@Z 000000018003ca34 f   libconcrt:WorkQueue.obj
 0001:0003ba90       ?Sweep@?$WorkStealingQueue@V_UnrealizedChore@details@Concurrency@@V_CriticalNonReentrantLock@23@@details@Concurrency@@QEAAXP6A_NPEAV_UnrealizedChore@23@PEAX@Z12@Z 000000018003ca90 f i libconcrt:WorkQueue.obj
 0001:0003bb68       ?SweepUnstructured@WorkQueue@details@Concurrency@@QEAAXP6A_NPEAV_UnrealizedChore@23@PEAX@Z12@Z 000000018003cb68 f   libconcrt:WorkQueue.obj
 0001:0003bb74       ?TryToSteal@WorkQueue@details@Concurrency@@QEAAPEAV_UnrealizedChore@23@_NAEA_N@Z 000000018003cb74 f   libconcrt:WorkQueue.obj
 0001:0003bbe0       ?UnlockedSteal@?$WorkStealingQueue@V_UnrealizedChore@details@Concurrency@@V_CriticalNonReentrantLock@23@@details@Concurrency@@QEAAPEAV_UnrealizedChore@23@_N0@Z 000000018003cbe0 f i libconcrt:WorkQueue.obj
 0001:0003bd04       ?UnlockedSteal@WorkQueue@details@Concurrency@@AEAAPEAV_UnrealizedChore@23@_N@Z 000000018003cd04 f   libconcrt:WorkQueue.obj
 0001:0003be30       ?_CancelViaToken@_UnrealizedChore@details@Concurrency@@CAXPEAVContextBase@23@@Z 000000018003ce30 f   libconcrt:Chores.obj
 0001:0003be60       ?_InternalFree@_UnrealizedChore@details@Concurrency@@CAXPEAV123@@Z 000000018003ce60 f   libconcrt:Chores.obj
 0001:0003be94       ?_PrepareSteal@_UnrealizedChore@details@Concurrency@@QEAAXPEAVContextBase@23@@Z 000000018003ce94 f   libconcrt:Chores.obj
 0001:0003beac       ?_PrepareStealStructured@_UnrealizedChore@details@Concurrency@@AEAAXPEAVContextBase@23@@Z 000000018003ceac f   libconcrt:Chores.obj
 0001:0003bef0       ?_PrepareStealUnstructured@_UnrealizedChore@details@Concurrency@@AEAAXPEAVContextBase@23@@Z 000000018003cef0 f   libconcrt:Chores.obj
 0001:0003bf84       ?_SetDetached@_UnrealizedChore@details@Concurrency@@QEAAX_N@Z 000000018003cf84 f   libconcrt:Chores.obj
 0001:0003bf88       ?_StructuredChoreWrapper@_UnrealizedChore@details@Concurrency@@CAXPEAV123@@Z 000000018003cf88 f   libconcrt:Chores.obj
 0001:0003c13c       ??0VirtualProcessorRoot@details@Concurrency@@QEAA@PEAVSchedulerProxy@12@PEAUSchedulerNode@12@I@Z 000000018003d13c f   libconcrt:VirtualProcessorRoot.obj
 0001:0003c194       ??_EVirtualProcessorRoot@details@Concurrency@@UEAAPEAXI@Z 000000018003d194 f i libconcrt:VirtualProcessorRoot.obj
 0001:0003c194       ??_GVirtualProcessorRoot@details@Concurrency@@UEAAPEAXI@Z 000000018003d194 f i libconcrt:VirtualProcessorRoot.obj
 0001:0003c1cc       ?CurrentSubscriptionLevel@VirtualProcessorRoot@details@Concurrency@@UEBAIXZ 000000018003d1cc f i libconcrt:VirtualProcessorRoot.obj
 0001:0003c1d8       ?GetExecutionResourceId@VirtualProcessorRoot@details@Concurrency@@UEBAIXZ 000000018003d1d8 f i libconcrt:VirtualProcessorRoot.obj
 0001:0003c1dc       ?GetId@VirtualProcessorRoot@details@Concurrency@@UEBAIXZ 000000018003d1dc f i libconcrt:VirtualProcessorRoot.obj
 0001:0003c1e0       ?GetNodeId@VirtualProcessorRoot@details@Concurrency@@UEBAIXZ 000000018003d1e0 f i libconcrt:VirtualProcessorRoot.obj
 0001:0003c1e4       ?Remove@VirtualProcessorRoot@details@Concurrency@@UEAAXPEAUIScheduler@3@@Z 000000018003d1e4 f   libconcrt:VirtualProcessorRoot.obj
 0001:0003c254       ?ResetSubscriptionLevel@VirtualProcessorRoot@details@Concurrency@@QEAAXXZ 000000018003d254 f   libconcrt:VirtualProcessorRoot.obj
 0001:0003c278       ?Subscribe@VirtualProcessorRoot@details@Concurrency@@QEAAXXZ 000000018003d278 f   libconcrt:VirtualProcessorRoot.obj
 0001:0003c288       ?Unsubscribe@VirtualProcessorRoot@details@Concurrency@@QEAAXXZ 000000018003d288 f   libconcrt:VirtualProcessorRoot.obj
 0001:0003c298       ??0FreeVirtualProcessorRoot@details@Concurrency@@QEAA@PEAVSchedulerProxy@12@PEAUSchedulerNode@12@I@Z 000000018003d298 f   libconcrt:FreeVirtualProcessorRoot.obj
 0001:0003c2d0       ??_EFreeVirtualProcessorRoot@details@Concurrency@@UEAAPEAXI@Z 000000018003d2d0 f i libconcrt:FreeVirtualProcessorRoot.obj
 0001:0003c2d0       ??_GFreeVirtualProcessorRoot@details@Concurrency@@UEAAPEAXI@Z 000000018003d2d0 f i libconcrt:FreeVirtualProcessorRoot.obj
 0001:0003c308       ?Activate@FreeVirtualProcessorRoot@details@Concurrency@@UEAAXPEAUIExecutionContext@3@@Z 000000018003d308 f   libconcrt:FreeVirtualProcessorRoot.obj
 0001:0003c448       ?Affinitize@FreeVirtualProcessorRoot@details@Concurrency@@QEAAXPEAVFreeThreadProxy@23@@Z 000000018003d448 f   libconcrt:FreeVirtualProcessorRoot.obj
 0001:0003c508       ?Deactivate@FreeVirtualProcessorRoot@details@Concurrency@@UEAA_NPEAUIExecutionContext@3@@Z 000000018003d508 f   libconcrt:FreeVirtualProcessorRoot.obj
 0001:0003c634       ?DeleteThis@FreeVirtualProcessorRoot@details@Concurrency@@UEAAXXZ 000000018003d634 f   libconcrt:FreeVirtualProcessorRoot.obj
 0001:0003c6dc       ?EnsureAllTasksVisible@FreeVirtualProcessorRoot@details@Concurrency@@UEAAXPEAUIExecutionContext@3@@Z 000000018003d6dc f   libconcrt:FreeVirtualProcessorRoot.obj
 0001:0003c79c       ?ResetOnIdle@FreeVirtualProcessorRoot@details@Concurrency@@QEAAXW4SwitchingProxyState@3@@Z 000000018003d79c f   libconcrt:FreeVirtualProcessorRoot.obj
 0001:0003c86c       ?AssociateExecutionContext@FreeThreadProxy@details@Concurrency@@QEAAXPEAUIExecutionContext@3@@Z 000000018003d86c f   libconcrt:FreeThreadProxy.obj
 0001:0003c8b0       ?Dispatch@FreeThreadProxy@details@Concurrency@@EEAAXXZ 000000018003d8b0 f   libconcrt:FreeThreadProxy.obj
 0001:0003c990       ?ReturnIdleProxy@FreeThreadProxy@details@Concurrency@@QEAAXXZ 000000018003d990 f   libconcrt:FreeThreadProxy.obj
 0001:0003c9d8       ?SwitchOut@FreeThreadProxy@details@Concurrency@@UEAAXW4SwitchingProxyState@3@@Z 000000018003d9d8 f   libconcrt:FreeThreadProxy.obj
 0001:0003ca30       ?SwitchTo@FreeThreadProxy@details@Concurrency@@UEAAXPEAUIExecutionContext@3@W4SwitchingProxyState@3@@Z 000000018003da30 f   libconcrt:FreeThreadProxy.obj
 0001:0003cb20       ??0ThreadProxy@details@Concurrency@@QEAA@PEAUIThreadProxyFactory@12@I@Z 000000018003db20 f   libconcrt:ThreadProxy.obj
 0001:0003cc28       ??0scheduler_worker_creation_error@Concurrency@@QEAA@AEBV01@@Z 000000018003dc28 f i libconcrt:ThreadProxy.obj
 0001:0003cc80       ??1ThreadProxy@details@Concurrency@@UEAA@XZ 000000018003dc80 f   libconcrt:ThreadProxy.obj
 0001:0003ccdc       ??_GThreadProxy@details@Concurrency@@UEAAPEAXI@Z 000000018003dcdc f i libconcrt:ThreadProxy.obj
 0001:0003ccdc       ??_EThreadProxy@details@Concurrency@@UEAAPEAXI@Z 000000018003dcdc f i libconcrt:ThreadProxy.obj
 0001:0003cd10       ?Cancel@ThreadProxy@details@Concurrency@@QEAAXXZ 000000018003dd10 f   libconcrt:ThreadProxy.obj
 0001:0003cd24       ?GetId@ThreadProxy@details@Concurrency@@UEBAIXZ 000000018003dd24 f   libconcrt:ThreadProxy.obj
 0001:0003cd28       ?ResumeExecution@ThreadProxy@details@Concurrency@@QEAAXXZ 000000018003dd28 f   libconcrt:ThreadProxy.obj
 0001:0003cd34       ?SetPriority@ThreadProxy@details@Concurrency@@QEAAXH@Z 000000018003dd34 f   libconcrt:ThreadProxy.obj
 0001:0003cd40       ?SpinUntilBlocked@ThreadProxy@details@Concurrency@@QEAAXXZ 000000018003dd40 f   libconcrt:ThreadProxy.obj
 0001:0003cd78       ?SuspendExecution@ThreadProxy@details@Concurrency@@QEAAXXZ 000000018003dd78 f   libconcrt:ThreadProxy.obj
 0001:0003cda4       ?ThreadProxyMain@ThreadProxy@details@Concurrency@@CAKPEAX@Z 000000018003dda4 f   libconcrt:ThreadProxy.obj
 0001:0003ce08       ??0location@Concurrency@@QEAA@W4_Type@01@IIPEAX@Z 000000018003de08 f   libconcrt:location.obj
 0001:0003ce2c       ?_FastNodeIntersects@location@Concurrency@@QEBA_NAEBV12@@Z 000000018003de2c f   libconcrt:location.obj
 0001:0003cecc       ?_FastVPIntersects@location@Concurrency@@QEBA_NAEBV12@@Z 000000018003decc f   libconcrt:location.obj
 0001:0003cf14       ??0WorkItem@details@Concurrency@@QEAA@PEAVInternalContextBase@12@@Z 000000018003df14 f   libconcrt:SearchAlgorithms.obj
 0001:0003cf4c       ?Bind@WorkItem@details@Concurrency@@QEAAPEAVInternalContextBase@23@XZ 000000018003df4c f   libconcrt:SearchAlgorithms.obj
 0001:0003cfa8       ?BindTo@WorkItem@details@Concurrency@@QEAAXPEAVInternalContextBase@23@@Z 000000018003dfa8 f   libconcrt:SearchAlgorithms.obj
 0001:0003cff0       ?GetLocalRunnable@WorkSearchContext@details@Concurrency@@AEAA_NPEAVWorkItem@23@PEAVVirtualProcessor@23@_N@Z 000000018003dff0 f   libconcrt:SearchAlgorithms.obj
 0001:0003d0ac       ?GetPseudoRRAffineScheduleGroupSegment@SchedulingRing@details@Concurrency@@QEAAPEAVScheduleGroupSegmentBase@23@PEAH@Z 000000018003e0ac f i libconcrt:SearchAlgorithms.obj
 0001:0003d118       ?GetPseudoRRNonAffineScheduleGroupSegment@SchedulingRing@details@Concurrency@@QEAAPEAVScheduleGroupSegmentBase@23@PEAH@Z 000000018003e118 f i libconcrt:SearchAlgorithms.obj
 0001:0003d188       ?GetRealizedChore@WorkSearchContext@details@Concurrency@@AEAA_NPEAVWorkItem@23@PEAVScheduleGroupSegmentBase@23@_N@Z 000000018003e188 f   libconcrt:SearchAlgorithms.obj
 0001:0003d1f4       ?GetRealizedChoreWithinGroup@WorkSearchContext@details@Concurrency@@AEAA_NPEAVWorkItem@23@PEAVScheduleGroupSegmentBase@23@_NW4SearchAffinity@123@2@Z 000000018003e1f4 f   libconcrt:SearchAlgorithms.obj
 0001:0003d2c4       ?GetRunnableContext@WorkSearchContext@details@Concurrency@@AEAA_NPEAVWorkItem@23@PEAVScheduleGroupSegmentBase@23@@Z 000000018003e2c4 f   libconcrt:SearchAlgorithms.obj
 0001:0003d324       ?GetRunnableContextWithinGroup@WorkSearchContext@details@Concurrency@@AEAA_NPEAVWorkItem@23@PEAVScheduleGroupSegmentBase@23@W4SearchAffinity@123@_N@Z 000000018003e324 f   libconcrt:SearchAlgorithms.obj
 0001:0003d3e0       ?GetUnrealizedChore@WorkSearchContext@details@Concurrency@@AEAA_NPEAVWorkItem@23@PEAVScheduleGroupSegmentBase@23@_N2@Z 000000018003e3e0 f   libconcrt:SearchAlgorithms.obj
 0001:0003d458       ?GetUnrealizedChoreWithinGroup@WorkSearchContext@details@Concurrency@@AEAA_NPEAVWorkItem@23@PEAVScheduleGroupSegmentBase@23@_NW4SearchAffinity@123@2@Z 000000018003e458 f   libconcrt:SearchAlgorithms.obj
 0001:0003d530       ?Invoke@WorkItem@details@Concurrency@@QEAAXXZ 000000018003e530 f   libconcrt:SearchAlgorithms.obj
 0001:0003d58c       ?PreSearch@WorkSearchContext@details@Concurrency@@AEAA_NPEAVWorkItem@23@@Z 000000018003e58c f   libconcrt:SearchAlgorithms.obj
 0001:0003d5ec       ?QuickSearch@WorkSearchContext@details@Concurrency@@AEAA_NPEAVScheduleGroupSegmentBase@23@PEAVWorkItem@23@_NK@Z 000000018003e5ec f   libconcrt:SearchAlgorithms.obj
 0001:0003d690       ?QuickSearchYield@WorkSearchContext@details@Concurrency@@AEAA_NPEAVScheduleGroupSegmentBase@23@PEAVWorkItem@23@_NK@Z 000000018003e690 f   libconcrt:SearchAlgorithms.obj
 0001:0003d720       ?Reset@WorkSearchContext@details@Concurrency@@QEAAXPEAVVirtualProcessor@23@W4Algorithm@123@@Z 000000018003e720 f   libconcrt:SearchAlgorithms.obj
 0001:0003d794       ?ResolveToken@WorkItem@details@Concurrency@@QEAA_NXZ 000000018003e794 f   libconcrt:SearchAlgorithms.obj
 0001:0003d828       ?SearchCacheLocal@WorkSearchContext@details@Concurrency@@AEAA_NPEAVWorkItem@23@PEAVScheduleGroupSegmentBase@23@_NK@Z 000000018003e828 f   libconcrt:SearchAlgorithms.obj
 0001:0003dc24       ?SearchCacheLocalYield@WorkSearchContext@details@Concurrency@@AEAA_NPEAVWorkItem@23@PEAVScheduleGroupSegmentBase@23@_NK@Z 000000018003ec24 f   libconcrt:SearchAlgorithms.obj
 0001:0003df6c       ?SearchCacheLocal_Realized@WorkSearchContext@details@Concurrency@@AEAA_NPEAVWorkItem@23@PEAVSchedulingRing@23@PEAVScheduleGroupSegmentBase@23@_NW4SearchAffinity@123@K3@Z 000000018003ef6c f   libconcrt:SearchAlgorithms.obj
 0001:0003e130       ?SearchCacheLocal_Runnables@WorkSearchContext@details@Concurrency@@AEAA_NPEAVWorkItem@23@PEAVSchedulingRing@23@PEAVScheduleGroupSegmentBase@23@_NW4SearchAffinity@123@K3@Z 000000018003f130 f   libconcrt:SearchAlgorithms.obj
 0001:0003e30c       ?SearchCacheLocal_Unrealized@WorkSearchContext@details@Concurrency@@AEAA_NPEAVWorkItem@23@PEAVSchedulingRing@23@PEAVScheduleGroupSegmentBase@23@_NW4SearchAffinity@123@K3@Z 000000018003f30c f   libconcrt:SearchAlgorithms.obj
 0001:0003e4d4       ?SearchFair@WorkSearchContext@details@Concurrency@@AEAA_NPEAVWorkItem@23@PEAVScheduleGroupSegmentBase@23@_NK@Z 000000018003f4d4 f   libconcrt:SearchAlgorithms.obj
 0001:0003e634       ?SearchFairYield@WorkSearchContext@details@Concurrency@@AEAA_NPEAVWorkItem@23@PEAVScheduleGroupSegmentBase@23@_NK@Z 000000018003f634 f   libconcrt:SearchAlgorithms.obj
 0001:0003e784       ?SearchFair_Realized@WorkSearchContext@details@Concurrency@@AEAA_NPEAVWorkItem@23@PEAVSchedulingRing@23@_N@Z 000000018003f784 f   libconcrt:SearchAlgorithms.obj
 0001:0003e854       ?SearchFair_Runnables@WorkSearchContext@details@Concurrency@@AEAA_NPEAVWorkItem@23@PEAVSchedulingRing@23@@Z 000000018003f854 f   libconcrt:SearchAlgorithms.obj
 0001:0003e908       ?SearchFair_Unrealized@WorkSearchContext@details@Concurrency@@AEAA_NPEAVWorkItem@23@PEAVSchedulingRing@23@_N@Z 000000018003f908 f   libconcrt:SearchAlgorithms.obj
 0001:0003e9dc       ?SkipSegmentSearch@WorkSearchContext@details@Concurrency@@AEAA_NPEAVScheduleGroupSegmentBase@23@0W4SearchAffinity@123@_N@Z 000000018003f9dc f   libconcrt:SearchAlgorithms.obj
 0001:0003eab4       ?StealForeignLocalRunnable@WorkSearchContext@details@Concurrency@@AEAA_NPEAVWorkItem@23@PEAVSchedulingNode@23@@Z 000000018003fab4 f   libconcrt:SearchAlgorithms.obj
 0001:0003eb80       ?StealLocalRunnable@WorkSearchContext@details@Concurrency@@AEAA_NPEAVWorkItem@23@PEAVSchedulingNode@23@PEAVVirtualProcessor@23@@Z 000000018003fb80 f   libconcrt:SearchAlgorithms.obj
 0001:0003ec44       ?StealLocalRunnableContext@VirtualProcessor@details@Concurrency@@AEAAPEAVInternalContextBase@23@XZ 000000018003fc44 f i libconcrt:SearchAlgorithms.obj
 0001:0003eca8       ?TransferReferences@WorkItem@details@Concurrency@@QEAAXPEAVInternalContextBase@23@@Z 000000018003fca8 f   libconcrt:SearchAlgorithms.obj
 0001:0003ed48       ?Invoke@RealizedChore@details@Concurrency@@QEAAXXZ 000000018003fd48 f   libconcrt:RealizedChore.obj
 0001:0003ed78       ??0ThreadVirtualProcessor@details@Concurrency@@QEAA@PEAVSchedulingNode@12@PEAUIVirtualProcessorRoot@2@@Z 000000018003fd78 f   libconcrt:ThreadVirtualProcessor.obj
 0001:0003edd0       ??_EThreadVirtualProcessor@details@Concurrency@@UEAAPEAXI@Z 000000018003fdd0 f i libconcrt:ThreadVirtualProcessor.obj
 0001:0003edd0       ??_GThreadVirtualProcessor@details@Concurrency@@UEAAPEAXI@Z 000000018003fdd0 f i libconcrt:ThreadVirtualProcessor.obj
 0001:0003ee20       memcpy                     000000018003fe20 f   libvcruntime:memcpy.obj
 0001:0003ee20       memmove                    000000018003fe20 f   libvcruntime:memcpy.obj
 0001:0003f268       _purecall                  0000000180040268 f   libvcruntime:purevirt.obj
 0001:0003f2b0       memchr                     00000001800402b0 f   libvcruntime:memchr.obj
 0001:0003f320       __std_exception_copy       0000000180040320 f   libvcruntime:std_exception.obj
 0001:0003f3b0       __std_exception_destroy    00000001800403b0 f   libvcruntime:std_exception.obj
 0001:0003f3d8       _CxxThrowException         00000001800403d8 f   libvcruntime:throw.obj
 0001:0003f4b0       ?_ExecutionInCatch@@YAHPEAU_xDISPATCHER_CONTEXT@@PEBU_s_FuncInfo@@@Z 00000001800404b0 f   libvcruntime:risctrnsctrl.obj
 0001:0003f524       ?_GetEstablisherFrame@@YAPEA_KPEA_KPEAU_xDISPATCHER_CONTEXT@@PEBU_s_FuncInfo@@0@Z 0000000180040524 f   libvcruntime:risctrnsctrl.obj
 0001:0003f5f0       ?_GetRangeOfTrysToCheck@@YAPEBU_s_TryBlockMapEntry@@PEA_KPEBU_s_FuncInfo@@HHPEAI2PEAU_xDISPATCHER_CONTEXT@@@Z 00000001800405f0 f   libvcruntime:risctrnsctrl.obj
 0001:0003f71c       ?__FrameUnwindToEmptyState@@YAXPEA_KPEAU_xDISPATCHER_CONTEXT@@PEBU_s_FuncInfo@@@Z 000000018004071c f   libvcruntime:risctrnsctrl.obj
 0001:0003f7b0       _CallSETranslator          00000001800407b0 f   libvcruntime:risctrnsctrl.obj
 0001:0003f808       _CreateFrameInfo           0000000180040808 f   libvcruntime:risctrnsctrl.obj
 0001:0003f844       _FindAndUnlinkFrame        0000000180040844 f   libvcruntime:risctrnsctrl.obj
 0001:0003f89c       _GetImageBase              000000018004089c f   libvcruntime:risctrnsctrl.obj
 0001:0003f8b0       _GetThrowImageBase         00000001800408b0 f   libvcruntime:risctrnsctrl.obj
 0001:0003f8c4       _SetImageBase              00000001800408c4 f   libvcruntime:risctrnsctrl.obj
 0001:0003f8dc       _SetThrowImageBase         00000001800408dc f   libvcruntime:risctrnsctrl.obj
 0001:0003f8f4       _UnwindNestedFrames        00000001800408f4 f   libvcruntime:risctrnsctrl.obj
 0001:0003fa18       __CxxFrameHandler3         0000000180040a18 f   libvcruntime:risctrnsctrl.obj
 0001:0003fab0       memset                     0000000180040ab0 f   libvcruntime:memset.obj
 0001:0003fc60       __DestructExceptionObject  0000000180040c60 f   libvcruntime:ehhelpers.obj
 0001:0003fce8       ?_CallMemberFunction0@@YAXQEAX0@Z 0000000180040ce8 f i libvcruntime:ehhelpers.obj
 0001:0003fcec       _IsExceptionObjectToBeDestroyed 0000000180040cec f   libvcruntime:ehhelpers.obj
 0001:0003fd1c       __AdjustPointer            0000000180040d1c f   libvcruntime:ehhelpers.obj
 0001:0003fd40       __FrameUnwindFilter        0000000180040d40 f   libvcruntime:ehhelpers.obj
 0001:0003fd8c       __current_exception        0000000180040d8c f   libvcruntime:ehhelpers.obj
 0001:0003fda0       __processing_throw         0000000180040da0 f   libvcruntime:ehhelpers.obj
 0001:0003fdb4       __std_terminate            0000000180040db4 f   libvcruntime:ehhelpers.obj
 0001:0003fdc0       __uncaught_exception       0000000180040dc0 f   libvcruntime:ehhelpers.obj
 0001:0003fdf0       memcmp                     0000000180040df0 f   libvcruntime:memcmp.obj
 0001:0003feb8       __vcrt_initialize          0000000180040eb8 f   libvcruntime:initialization.obj
 0001:0003feec       __vcrt_thread_attach       0000000180040eec f   libvcruntime:initialization.obj
 0001:0003ff00       __vcrt_thread_detach       0000000180040f00 f   libvcruntime:initialization.obj
 0001:0003ff14       __vcrt_uninitialize        0000000180040f14 f   libvcruntime:initialization.obj
 0001:0003ff34       __vcrt_uninitialize_critical 0000000180040f34 f   libvcruntime:initialization.obj
 0001:0003ff44       __C_specific_handler       0000000180040f44 f   libvcruntime:_riscchandler_.obj
 0001:00040318       __vcrt_FlsAlloc            0000000180041318 f   libvcruntime:winapi_downlevel.obj
 0001:0004036c       __vcrt_FlsFree             000000018004136c f   libvcruntime:winapi_downlevel.obj
 0001:000403c0       __vcrt_FlsGetValue         00000001800413c0 f   libvcruntime:winapi_downlevel.obj
 0001:00040414       __vcrt_FlsSetValue         0000000180041414 f   libvcruntime:winapi_downlevel.obj
 0001:0004047c       __vcrt_InitializeCriticalSectionEx 000000018004147c f   libvcruntime:winapi_downlevel.obj
 0001:000404f4       __vcrt_initialize_winapi_thunks 00000001800414f4 f   libvcruntime:winapi_downlevel.obj
 0001:00040538       __vcrt_uninitialize_winapi_thunks 0000000180041538 f   libvcruntime:winapi_downlevel.obj
 0001:00040578       __std_type_info_compare    0000000180041578 f   libvcruntime:std_type_info.obj
 0001:000405a0       __std_type_info_destroy_list 00000001800415a0 f   libvcruntime:std_type_info.obj
 0001:000405cc       ??0__non_rtti_object@std@@QEAA@AEBV01@@Z 00000001800415cc f i libvcruntime:rtti.obj
 0001:0004060c       ??0bad_typeid@std@@QEAA@AEBV01@@Z 000000018004160c f i libvcruntime:rtti.obj
 0001:00040af4       ?__construct_from_string_literal@__non_rtti_object@std@@SA?AV12@QEBD@Z 0000000180041af4 f i libvcruntime:rtti.obj
 0001:00040b0c       ?__construct_from_string_literal@bad_cast@std@@SA?AV12@QEBD@Z 0000000180041b0c f i libvcruntime:rtti.obj
 0001:00040b24       __RTDynamicCast            0000000180041b24 f   libvcruntime:rtti.obj
 0001:00040ca4       __vcrt_initialize_pure_virtual_call_handler 0000000180041ca4 f   libvcruntime:purevirt_data.obj
 0001:00040cc8       __vcrt_freefls             0000000180041cc8 f   libvcruntime:per_thread_data.obj
 0001:00040ce8       __vcrt_freeptd             0000000180041ce8 f   libvcruntime:per_thread_data.obj
 0001:00040d38       __vcrt_getptd              0000000180041d38 f   libvcruntime:per_thread_data.obj
 0001:00040d54       __vcrt_getptd_noexit       0000000180041d54 f   libvcruntime:per_thread_data.obj
 0001:00040e0c       __vcrt_getptd_noinit       0000000180041e0c f   libvcruntime:per_thread_data.obj
 0001:00040e5c       __vcrt_initialize_ptd      0000000180041e5c f   libvcruntime:per_thread_data.obj
 0001:00040e9c       __vcrt_uninitialize_ptd    0000000180041e9c f   libvcruntime:per_thread_data.obj
 0001:00040ec0       ?__GetCurrentState@@YAHPEA_KPEAU_xDISPATCHER_CONTEXT@@PEBU_s_FuncInfo@@@Z 0000000180041ec0 f   libvcruntime:riscehstate.obj
 0001:00040ee8       ?__GetUnwindTryBlock@@YAHPEA_KPEAU_xDISPATCHER_CONTEXT@@PEBU_s_FuncInfo@@@Z 0000000180041ee8 f   libvcruntime:riscehstate.obj
 0001:00040f14       ?__SetState@@YAXPEA_KPEAU_xDISPATCHER_CONTEXT@@PEBU_s_FuncInfo@@H@Z 0000000180041f14 f   libvcruntime:riscehstate.obj
 0001:00040f20       ?__SetUnwindTryBlock@@YAXPEA_KPEAU_xDISPATCHER_CONTEXT@@PEBU_s_FuncInfo@@H@Z 0000000180041f20 f   libvcruntime:riscehstate.obj
 0001:00040f5c       ?__StateFromControlPc@@YAHPEBU_s_FuncInfo@@PEAU_xDISPATCHER_CONTEXT@@@Z 0000000180041f5c f   libvcruntime:riscehstate.obj
 0001:00040f64       ?__StateFromIp@@YAHPEBU_s_FuncInfo@@PEAU_xDISPATCHER_CONTEXT@@_K@Z 0000000180041f64 f   libvcruntime:riscehstate.obj
 0001:00040fd0       ??0bad_exception@std@@QEAA@AEBV01@@Z 0000000180041fd0 f i libvcruntime:frame.obj
 0001:00041010       ??0bad_exception@std@@QEAA@XZ 0000000180042010 f i libvcruntime:frame.obj
 0001:0004198c       ?_CallMemberFunction1@@YAXQEAX00@Z 000000018004298c f i libvcruntime:frame.obj
 0001:00041998       ?_CallMemberFunction2@@YAXQEAX00H@Z 0000000180042998 f i libvcruntime:frame.obj
 0001:000419a8       __BuildCatchObject         00000001800429a8 f   libvcruntime:frame.obj
 0001:00041a6c       __BuildCatchObjectHelper   0000000180042a6c f   libvcruntime:frame.obj
 0001:00041c4c       __CxxCallCatchBlock        0000000180042c4c f   libvcruntime:frame.obj
 0001:00041e38       __FrameUnwindToState       0000000180042e38 f   libvcruntime:frame.obj
 0001:00041fcc       __InternalCxxFrameHandler  0000000180042fcc f   libvcruntime:frame.obj
 0001:00042220       __TypeMatch                0000000180043220 f   libvcruntime:frame.obj
 0001:00042360       __vcrt_initialize_locks    0000000180043360 f   libvcruntime:locks.obj
 0001:000423a8       __vcrt_uninitialize_locks  00000001800433a8 f   libvcruntime:locks.obj
 0001:000423f0       _local_unwind              00000001800433f0 f   libvcruntime:_jmpuwind_.obj
 0001:00042420       _NLG_Notify                0000000180043420 f   libvcruntime:_jmpuwind_.obj
 0001:00042440       __NLG_Dispatch2            0000000180043440 f   libvcruntime:_jmpuwind_.obj
 0001:00042450       __NLG_Return2              0000000180043450 f   libvcruntime:_jmpuwind_.obj
 0001:00042454       __except_validate_context_record 0000000180043454 f   libvcruntime:jbcxrval.obj
 0001:000424a0       _CallSettingFrame          00000001800434a0 f   libvcruntime:handlers.obj
 0001:000424e0       ??0_LocaleUpdate@@QEAA@QEAU__crt_locale_pointers@@@Z 00000001800434e0 f i libucrt:_ctype.obj
 0001:00042570       isalnum                    0000000180043570 f i libucrt:_ctype.obj
 0001:000425ec       isdigit                    00000001800435ec f i libucrt:_ctype.obj
 0001:00042660       islower                    0000000180043660 f i libucrt:_ctype.obj
 0001:000426d4       isupper                    00000001800436d4 f i libucrt:_ctype.obj
 0001:00042748       __acrt_call_reportfault    0000000180043748 f   libucrt:invalid_parameter.obj
 0001:000428a4       __acrt_initialize_invalid_parameter_handler 00000001800438a4 f   libucrt:invalid_parameter.obj
 0001:000428ac       _invalid_parameter         00000001800438ac f   libucrt:invalid_parameter.obj
 0001:0004295c       _invalid_parameter_noinfo  000000018004395c f   libucrt:invalid_parameter.obj
 0001:0004297c       _invalid_parameter_noinfo_noreturn 000000018004397c f   libucrt:invalid_parameter.obj
 0001:000429ac       _invoke_watson             00000001800439ac f   libucrt:invalid_parameter.obj
 0001:000429f4       __acrt_errno_from_os_error 00000001800439f4 f   libucrt:errno.obj
 0001:00042a3c       __acrt_errno_map_os_error  0000000180043a3c f   libucrt:errno.obj
 0001:00042a8c       __doserrno                 0000000180043a8c f   libucrt:errno.obj
 0001:00042aac       _errno                     0000000180043aac f   libucrt:errno.obj
 0001:00042acc       ??$parse_integer@KV?$c_string_character_source@D@__crt_strtox@@@__crt_strtox@@YAKQEAU__crt_locale_pointers@@V?$c_string_character_source@D@0@H_N@Z 0000000180043acc f i libucrt:strtox.obj
 0001:00042de8       ??$parse_integer@KV?$c_string_character_source@_W@__crt_strtox@@@__crt_strtox@@YAKQEAU__crt_locale_pointers@@V?$c_string_character_source@_W@0@H_N@Z 0000000180043de8 f i libucrt:strtox.obj
 0001:000434ac       strtol                     00000001800444ac f   libucrt:strtox.obj
 0001:000434d8       rand                       00000001800444d8 f   libucrt:rand.obj
 0001:00043520       strncmp                    0000000180044520 f   libucrt:strncmp.obj
 0001:000435a0       _wtol                      00000001800445a0 f   libucrt:atox.obj
 0001:000435cc       atoi                       00000001800445cc f   libucrt:atox.obj
 0001:000435f8       abort                      00000001800445f8 f   libucrt:abort.obj
 0001:00043650       calloc                     0000000180044650 f   libucrt:calloc.obj
 0001:00043700       strcspn                    0000000180044700 f   libucrt:strcspn.obj
 0001:00043e5c       ??$ensure_buffer_is_big_enough@D@formatting_buffer@__crt_stdio_output@@QEAA_N_K@Z 0000000180044e5c f i libucrt:output.obj
 0001:00043f04       ??$type_case_integer_parse_into_buffer@I@?$output_processor@DV?$string_output_adapter@D@__crt_stdio_output@@V?$format_validation_base@DV?$string_output_adapter@D@__crt_stdio_output@@@2@@__crt_stdio_output@@AEAAXII_N@Z 0000000180044f04 f i libucrt:output.obj
 0001:00043f04       ??$type_case_integer_parse_into_buffer@I@?$output_processor@DV?$string_output_adapter@D@__crt_stdio_output@@V?$standard_base@DV?$string_output_adapter@D@__crt_stdio_output@@@2@@__crt_stdio_output@@AEAAXII_N@Z 0000000180044f04 f i libucrt:output.obj
 0001:00043f8c       ??$type_case_integer_parse_into_buffer@_K@?$output_processor@DV?$string_output_adapter@D@__crt_stdio_output@@V?$standard_base@DV?$string_output_adapter@D@__crt_stdio_output@@@2@@__crt_stdio_output@@AEAAX_KI_N@Z 0000000180044f8c f i libucrt:output.obj
 0001:00043f8c       ??$type_case_integer_parse_into_buffer@_K@?$output_processor@DV?$string_output_adapter@D@__crt_stdio_output@@V?$format_validation_base@DV?$string_output_adapter@D@__crt_stdio_output@@@2@@__crt_stdio_output@@AEAAX_KI_N@Z 0000000180044f8c f i libucrt:output.obj
 0001:0004401c       ??$write_multiple_characters@V?$string_output_adapter@D@__crt_stdio_output@@D@__crt_stdio_output@@YAXAEBV?$string_output_adapter@D@0@DHQEAH@Z 000000018004501c f i libucrt:output.obj
 0001:00044078       ?force_decimal_point@__crt_stdio_output@@YAXPEADQEAU__crt_locale_pointers@@@Z 0000000180045078 f i libucrt:output.obj
 0001:000440e8       ?parse_int_from_format_string@?$output_processor@DV?$string_output_adapter@D@__crt_stdio_output@@V?$format_validation_base@DV?$string_output_adapter@D@__crt_stdio_output@@@2@@__crt_stdio_output@@AEAA_NQEAH@Z 00000001800450e8 f i libucrt:output.obj
 0001:000440e8       ?parse_int_from_format_string@?$output_processor@DV?$string_output_adapter@D@__crt_stdio_output@@V?$standard_base@DV?$string_output_adapter@D@__crt_stdio_output@@@2@@__crt_stdio_output@@AEAA_NQEAH@Z 00000001800450e8 f i libucrt:output.obj
 0001:0004418c       ?process@?$output_processor@DV?$string_output_adapter@D@__crt_stdio_output@@V?$format_validation_base@DV?$string_output_adapter@D@__crt_stdio_output@@@2@@__crt_stdio_output@@QEAAHXZ 000000018004518c f i libucrt:output.obj
 0001:000443a8       ?process@?$output_processor@DV?$string_output_adapter@D@__crt_stdio_output@@V?$standard_base@DV?$string_output_adapter@D@__crt_stdio_output@@@2@@__crt_stdio_output@@QEAAHXZ 00000001800453a8 f i libucrt:output.obj
 0001:000445b0       ?state_case_normal@?$output_processor@DV?$string_output_adapter@D@__crt_stdio_output@@V?$standard_base@DV?$string_output_adapter@D@__crt_stdio_output@@@2@@__crt_stdio_output@@AEAA_NXZ 00000001800455b0 f i libucrt:output.obj
 0001:000445b0       ?state_case_normal@?$output_processor@DV?$string_output_adapter@D@__crt_stdio_output@@V?$format_validation_base@DV?$string_output_adapter@D@__crt_stdio_output@@@2@@__crt_stdio_output@@AEAA_NXZ 00000001800455b0 f i libucrt:output.obj
 0001:00044624       ?state_case_normal_tchar@?$output_processor@DV?$string_output_adapter@D@__crt_stdio_output@@V?$standard_base@DV?$string_output_adapter@D@__crt_stdio_output@@@2@@__crt_stdio_output@@AEAA_ND@Z 0000000180045624 f i libucrt:output.obj
 0001:00044624       ?state_case_normal_tchar@?$output_processor@DV?$string_output_adapter@D@__crt_stdio_output@@V?$format_validation_base@DV?$string_output_adapter@D@__crt_stdio_output@@@2@@__crt_stdio_output@@AEAA_ND@Z 0000000180045624 f i libucrt:output.obj
 0001:000446bc       ?state_case_size@?$output_processor@DV?$string_output_adapter@D@__crt_stdio_output@@V?$format_validation_base@DV?$string_output_adapter@D@__crt_stdio_output@@@2@@__crt_stdio_output@@AEAA_NXZ 00000001800456bc f i libucrt:output.obj
 0001:000446bc       ?state_case_size@?$output_processor@DV?$string_output_adapter@D@__crt_stdio_output@@V?$standard_base@DV?$string_output_adapter@D@__crt_stdio_output@@@2@@__crt_stdio_output@@AEAA_NXZ 00000001800456bc f i libucrt:output.obj
 0001:00044838       ?state_case_type@?$output_processor@DV?$string_output_adapter@D@__crt_stdio_output@@V?$format_validation_base@DV?$string_output_adapter@D@__crt_stdio_output@@@2@@__crt_stdio_output@@AEAA_NXZ 0000000180045838 f i libucrt:output.obj
 0001:00044838       ?state_case_type@?$output_processor@DV?$string_output_adapter@D@__crt_stdio_output@@V?$standard_base@DV?$string_output_adapter@D@__crt_stdio_output@@@2@@__crt_stdio_output@@AEAA_NXZ 0000000180045838 f i libucrt:output.obj
 0001:00044aac       ?type_case_Z@?$output_processor@DV?$string_output_adapter@D@__crt_stdio_output@@V?$standard_base@DV?$string_output_adapter@D@__crt_stdio_output@@@2@@__crt_stdio_output@@AEAA_NXZ 0000000180045aac f i libucrt:output.obj
 0001:00044aac       ?type_case_Z@?$output_processor@DV?$string_output_adapter@D@__crt_stdio_output@@V?$format_validation_base@DV?$string_output_adapter@D@__crt_stdio_output@@@2@@__crt_stdio_output@@AEAA_NXZ 0000000180045aac f i libucrt:output.obj
 0001:00044b2c       ?type_case_a@?$output_processor@DV?$string_output_adapter@D@__crt_stdio_output@@V?$format_validation_base@DV?$string_output_adapter@D@__crt_stdio_output@@@2@@__crt_stdio_output@@AEAA_NXZ 0000000180045b2c f i libucrt:output.obj
 0001:00044b2c       ?type_case_a@?$output_processor@DV?$string_output_adapter@D@__crt_stdio_output@@V?$standard_base@DV?$string_output_adapter@D@__crt_stdio_output@@@2@@__crt_stdio_output@@AEAA_NXZ 0000000180045b2c f i libucrt:output.obj
 0001:00044d44       ?type_case_c_tchar@?$output_processor@DV?$string_output_adapter@D@__crt_stdio_output@@V?$standard_base@DV?$string_output_adapter@D@__crt_stdio_output@@@2@@__crt_stdio_output@@AEAA_ND@Z 0000000180045d44 f i libucrt:output.obj
 0001:00044d44       ?type_case_c_tchar@?$output_processor@DV?$string_output_adapter@D@__crt_stdio_output@@V?$format_validation_base@DV?$string_output_adapter@D@__crt_stdio_output@@@2@@__crt_stdio_output@@AEAA_ND@Z 0000000180045d44 f i libucrt:output.obj
 0001:00044e10       ?type_case_integer@?$output_processor@DV?$string_output_adapter@D@__crt_stdio_output@@V?$standard_base@DV?$string_output_adapter@D@__crt_stdio_output@@@2@@__crt_stdio_output@@AEAA_NI_N@Z 0000000180045e10 f i libucrt:output.obj
 0001:00044e10       ?type_case_integer@?$output_processor@DV?$string_output_adapter@D@__crt_stdio_output@@V?$format_validation_base@DV?$string_output_adapter@D@__crt_stdio_output@@@2@@__crt_stdio_output@@AEAA_NI_N@Z 0000000180045e10 f i libucrt:output.obj
 0001:00044fd4       ?type_case_n@?$output_processor@DV?$string_output_adapter@D@__crt_stdio_output@@V?$standard_base@DV?$string_output_adapter@D@__crt_stdio_output@@@2@@__crt_stdio_output@@AEAA_NXZ 0000000180045fd4 f i libucrt:output.obj
 0001:00044fd4       ?type_case_n@?$output_processor@DV?$string_output_adapter@D@__crt_stdio_output@@V?$format_validation_base@DV?$string_output_adapter@D@__crt_stdio_output@@@2@@__crt_stdio_output@@AEAA_NXZ 0000000180045fd4 f i libucrt:output.obj
 0001:000450b0       ?type_case_s@?$output_processor@DV?$string_output_adapter@D@__crt_stdio_output@@V?$standard_base@DV?$string_output_adapter@D@__crt_stdio_output@@@2@@__crt_stdio_output@@AEAA_NXZ 00000001800460b0 f i libucrt:output.obj
 0001:000450b0       ?type_case_s@?$output_processor@DV?$string_output_adapter@D@__crt_stdio_output@@V?$format_validation_base@DV?$string_output_adapter@D@__crt_stdio_output@@@2@@__crt_stdio_output@@AEAA_NXZ 00000001800460b0 f i libucrt:output.obj
 0001:0004514c       ?write_stored_string_tchar@?$output_processor@DV?$string_output_adapter@D@__crt_stdio_output@@V?$format_validation_base@DV?$string_output_adapter@D@__crt_stdio_output@@@2@@__crt_stdio_output@@AEAA_ND@Z 000000018004614c f i libucrt:output.obj
 0001:0004514c       ?write_stored_string_tchar@?$output_processor@DV?$string_output_adapter@D@__crt_stdio_output@@V?$standard_base@DV?$string_output_adapter@D@__crt_stdio_output@@@2@@__crt_stdio_output@@AEAA_ND@Z 000000018004614c f i libucrt:output.obj
 0001:00045224       ?write_string@?$string_output_adapter@D@__crt_stdio_output@@QEBAXQEBDHQEAHAEAV__crt_deferred_errno_cache@@@Z 0000000180046224 f i libucrt:output.obj
 0001:000452c8       __stdio_common_vsprintf    00000001800462c8 f   libucrt:output.obj
 0001:000452d0       __stdio_common_vsprintf_s  00000001800462d0 f   libucrt:output.obj
 0001:00045334       localeconv                 0000000180046334 f   libucrt:localeconv.obj
 0001:00045368       free                       0000000180046368 f   libucrt:free.obj
 0001:0004537c       frexp                      000000018004637c f   libucrt:frexp.obj
 0001:00045474       __ascii_stricmp            0000000180046474 f   libucrt:stricmp.obj
 0001:000454b4       _stricmp                   00000001800464b4 f   libucrt:stricmp.obj
 0001:000454fc       _stricmp_l                 00000001800464fc f   libucrt:stricmp.obj
 0001:000455b0       terminate                  00000001800465b0 f   libucrt:terminate.obj
 0001:000455d0       _calloc_base               00000001800465d0 f   libucrt:calloc_base.obj
 0001:00045648       _free_base                 0000000180046648 f   libucrt:free_base.obj
 0001:00045688       __acrt_initialize_locks    0000000180046688 f   libucrt:locks.obj
 0001:000456d0       __acrt_lock                00000001800466d0 f   libucrt:locks.obj
 0001:000456ec       __acrt_uninitialize_locks  00000001800466ec f   libucrt:locks.obj
 0001:00045724       __acrt_unlock              0000000180046724 f   libucrt:locks.obj
 0001:00045740       _lock_locales              0000000180046740 f   libucrt:locks.obj
 0001:0004575c       _unlock_locales            000000018004675c f   libucrt:locks.obj
 0001:0004576c       __acrt_initialize_stdio    000000018004676c f   libucrt:_file.obj
 0001:0004588c       __acrt_iob_func            000000018004688c f   libucrt:_file.obj
 0001:000458a0       __acrt_uninitialize_stdio  00000001800468a0 f   libucrt:_file.obj
 0001:000458fc       _get_stream_buffer_pointers 00000001800468fc f   libucrt:_file.obj
 0001:00045944       _lock_file                 0000000180046944 f   libucrt:_file.obj
 0001:00045950       _unlock_file               0000000180046950 f   libucrt:_file.obj
 0001:0004595c       _fclose_nolock             000000018004695c f   libucrt:fclose.obj
 0001:000459e0       fclose                     00000001800469e0 f   libucrt:fclose.obj
 0001:00045c68       __acrt_stdio_flush_nolock  0000000180046c68 f   libucrt:fflush.obj
 0001:00045ce4       _fflush_nolock             0000000180046ce4 f   libucrt:fflush.obj
 0001:00045d30       _flushall                  0000000180046d30 f   libucrt:fflush.obj
 0001:00045d38       fflush                     0000000180046d38 f   libucrt:fflush.obj
 0001:00045da0       _fgetc_nolock              0000000180046da0 f   libucrt:fgetc.obj
 0001:00045de4       fgetc                      0000000180046de4 f   libucrt:fgetc.obj
 0001:00045ee0       fgetpos                    0000000180046ee0 f   libucrt:fgetpos.obj
 0001:00045f2c       fputc                      0000000180046f2c f   libucrt:fputc.obj
 0001:00046044       fsetpos                    0000000180047044 f   libucrt:fsetpos.obj
 0001:00046294       _fseeki64                  0000000180047294 f   libucrt:fseek.obj
 0001:00046340       _fwrite_nolock             0000000180047340 f   libucrt:fwrite.obj
 0001:000464d8       fwrite                     00000001800474d8 f   libucrt:fwrite.obj
 0001:0004668c       setvbuf                    000000018004768c f   libucrt:setvbuf.obj
 0001:00046728       _ungetc_nolock             0000000180047728 f   libucrt:ungetc.obj
 0001:00046838       ungetc                     0000000180047838 f   libucrt:ungetc.obj
 0001:00046890       malloc                     0000000180047890 f   libucrt:malloc.obj
 0001:00046ba0       setlocale                  0000000180047ba0 f   libucrt:setlocale.obj
 0001:00046bec       __pctype_func              0000000180047bec f   libucrt:ctype.obj
 0001:00046c1c       _wcsdup                    0000000180047c1c f   libucrt:wcsdup.obj
 0001:00046ca0       ___lc_codepage_func        0000000180047ca0 f   libucrt:initctype.obj
 0001:00046cd0       ___lc_locale_name_func     0000000180047cd0 f   libucrt:initctype.obj
 0001:00046d04       ___mb_cur_max_func         0000000180047d04 f   libucrt:initctype.obj
 0001:00046d34       __acrt_locale_initialize_ctype 0000000180047d34 f   libucrt:initctype.obj
 0001:00047398       _ismbblead                 0000000180048398 f   libucrt:ismbbyte.obj
 0001:000473ac       _malloc_base               00000001800483ac f   libucrt:malloc_base.obj
 0001:0004740c       _realloc_base              000000018004840c f   libucrt:realloc_base.obj
 0001:00047490       ?divide@__crt_strtox@@YA_KAEAUbig_integer@1@AEBU21@@Z 0000000180048490 f i libucrt:strtod.obj
 0001:000479b0       pow                        00000001800489b0 f   libucrt:pow.obj
 0001:00049050       powf                       000000018004a050 f   libucrt:powf.obj
 0001:00049f18       __strncnt                  000000018004af18 f   libucrt:strncnt.obj
 0001:00049f74       _tolower_l                 000000018004af74 f   libucrt:tolower_toupper.obj
 0001:0004a0b4       tolower                    000000018004b0b4 f   libucrt:tolower_toupper.obj
 0001:0004a0e0       wcscpy_s                   000000018004b0e0 f   libucrt:wcscpy_s.obj
 0001:0004a148       strnlen                    000000018004b148 f   libucrt:strnlen.obj
 0001:0004a28c       wcsnlen                    000000018004b28c f   libucrt:strnlen.obj
 0001:0004a454       __acrt_initialize_new_handler 000000018004b454 f   libucrt:new_handler.obj
 0001:0004a45c       _callnewh                  000000018004b45c f   libucrt:new_handler.obj
 0001:0004a48c       _query_new_handler         000000018004b48c f   libucrt:new_handler.obj
 0001:0004a4c0       _seh_filter_dll            000000018004b4c0 f   libucrt:exception_filter.obj
 0001:0004a4d4       _seh_filter_exe            000000018004b4d4 f   libucrt:exception_filter.obj
 0001:0004a8e0       __acrt_initialize_thread_local_exit_callback 000000018004b8e0 f   libucrt:exit.obj
 0001:0004a8e8       _cexit                     000000018004b8e8 f   libucrt:exit.obj
 0001:0004a8f8       _exit                      000000018004b8f8 f   libucrt:exit.obj
 0001:0004a904       _is_c_termination_complete 000000018004b904 f   libucrt:exit.obj
 0001:0004aac8       __acrt_allocate_buffer_for_argv 000000018004bac8 f   libucrt:argv_parsing.obj
 0001:0004ab28       _configure_narrow_argv     000000018004bb28 f   libucrt:argv_parsing.obj
 0001:0004aea4       __dcrt_uninitialize_environments_nolock 000000018004bea4 f   libucrt:environment_initialization.obj
 0001:0004aedc       _initialize_narrow_environment 000000018004bedc f   libucrt:environment_initialization.obj
 0001:0004b26c       _crt_atexit                000000018004c26c f   libucrt:onexit.obj
 0001:0004b27c       _execute_onexit_table      000000018004c27c f   libucrt:onexit.obj
 0001:0004b2b8       _initialize_onexit_table   000000018004c2b8 f   libucrt:onexit.obj
 0001:0004b2f8       _register_onexit_function  000000018004c2f8 f   libucrt:onexit.obj
 0001:0004b388       ?SweepWaitNode@SingleWaitBlock@details@Concurrency@@UEAA_NXZ 000000018004c388 f   libconcrt:event.obj
 0001:0004b388       __acrt_uninitialize_command_line 000000018004c388 f   libucrt:argv_data.obj
 0001:0004b388       ?AllowGeneralFetchOfReservedContexts@SchedulerBase@details@Concurrency@@MEAA_NXZ 000000018004c388 f   libconcrt:SchedulerBase.obj
 0001:0004b388       ?do_always_noconv@?$codecvt@DDU_Mbstatet@@@std@@MEBA_NXZ 000000018004c388 f   libcpmt:cout.obj
 0001:0004b484       __acrt_initialize          000000018004c484 f   libucrt:initialization.obj
 0001:0004b498       __acrt_thread_attach       000000018004c498 f   libucrt:initialization.obj
 0001:0004b4ac       __acrt_thread_detach       000000018004c4ac f   libucrt:initialization.obj
 0001:0004b4bc       __acrt_uninitialize        000000018004c4bc f   libucrt:initialization.obj
 0001:0004b4f4       __acrt_uninitialize_critical 000000018004c4f4 f   libucrt:initialization.obj
 0001:0004b504       _initterm                  000000018004c504 f   libucrt:initterm.obj
 0001:0004b568       _initterm_e                000000018004c568 f   libucrt:initterm.obj
 0001:0004b5b0       exp                        000000018004c5b0 f   libucrt:exp.obj
 0001:0004b9a8       wcsncpy_s                  000000018004c9a8 f   libucrt:wcsncpy_s.obj
 0001:0004ba8c       strcpy_s                   000000018004ca8c f   libucrt:strcpy_s.obj
 0001:0004baec       wcsncmp                    000000018004caec f   libucrt:wcsncmp.obj
 0001:0004bb18       _isctype_l                 000000018004cb18 f   libucrt:isctype.obj
 0001:0004bfa0       __acrt_freeptd             000000018004cfa0 f   libucrt:per_thread_data.obj
 0001:0004bfe4       __acrt_getptd              000000018004cfe4 f   libucrt:per_thread_data.obj
 0001:0004c0b0       __acrt_getptd_head         000000018004d0b0 f   libucrt:per_thread_data.obj
 0001:0004c158       __acrt_getptd_noexit       000000018004d158 f   libucrt:per_thread_data.obj
 0001:0004c228       __acrt_initialize_ptd      000000018004d228 f   libucrt:per_thread_data.obj
 0001:0004c264       __acrt_uninitialize_ptd    000000018004d264 f   libucrt:per_thread_data.obj
 0001:0004c288       __acrt_update_locale_info  000000018004d288 f   libucrt:locale_update.obj
 0001:0004c2bc       __acrt_update_multibyte_info 000000018004d2bc f   libucrt:locale_update.obj
 0001:0004c558       __acrt_copy_locale_name    000000018004d558 f   libucrt:wsetlocale.obj
 0001:0004c5dc       __acrt_set_locale_changed  000000018004d5dc f   libucrt:wsetlocale.obj
 0001:0004c5e8       __acrt_uninitialize_locale 000000018004d5e8 f   libucrt:wsetlocale.obj
 0001:0004c618       __lc_lctowcs               000000018004d618 f   libucrt:wsetlocale.obj
 0001:0004c6bc       __lc_wcstolc               000000018004d6bc f   libucrt:wsetlocale.obj
 0001:0004c934       _expandlocale              000000018004d934 f   libucrt:wsetlocale.obj
 0001:0004cd30       _wcscats                   000000018004dd30 f   libucrt:wsetlocale.obj
 0001:0004cd98       _wsetlocale                000000018004dd98 f   libucrt:wsetlocale.obj
 0001:0004d5e8       iswctype                   000000018004e5e8 f   libucrt:iswctype.obj
 0001:0004d6a0       __acrt_get_sigabrt_handler 000000018004e6a0 f   libucrt:signal.obj
 0001:0004d6d0       __acrt_initialize_signal_handlers 000000018004e6d0 f   libucrt:signal.obj
 0001:0004d6f0       raise                      000000018004e6f0 f   libucrt:signal.obj
 0001:0004d964       _mbtowc_l                  000000018004e964 f   libucrt:mbtowc.obj
 0001:0004daac       mbtowc                     000000018004eaac f   libucrt:mbtowc.obj
 0001:0004dab4       _wctomb_s_l                000000018004eab4 f   libucrt:wctomb.obj
 0001:0004dc38       wctomb_s                   000000018004ec38 f   libucrt:wctomb.obj
 0001:0004e608       __acrt_fp_format           000000018004f608 f   libucrt:cvt.obj
 0001:0004e890       _fileno                    000000018004f890 f   libucrt:fileno.obj
 0001:0004e8b8       _get_printf_count_output   000000018004f8b8 f   libucrt:printf_count_output.obj
 0001:0004e8d0       __acrt_stdio_begin_temporary_buffering_nolock 000000018004f8d0 f   libucrt:_sftbuf.obj
 0001:0004e9a0       __acrt_stdio_end_temporary_buffering_nolock 000000018004f9a0 f   libucrt:_sftbuf.obj
 0001:0004ebc4       __acrt_initialize_lowio    000000018004fbc4 f   libucrt:ioinit.obj
 0001:0004ec00       __acrt_uninitialize_lowio  000000018004fc00 f   libucrt:ioinit.obj
 0001:0004ec40       _dsign                     000000018004fc40 f   libucrt:nan.obj
 0001:0004ec58       _errcode                   000000018004fc58 f   libucrt:fpexcept.obj
 0001:0004ec9c       _except1                   000000018004fc9c f   libucrt:fpexcept.obj
 0001:0004ed90       _handle_exc                000000018004fd90 f   libucrt:fpexcept.obj
 0001:0004eff8       _raise_exc                 000000018004fff8 f   libucrt:fpexcept.obj
 0001:0004f020       _raise_exc_ex              0000000180050020 f   libucrt:fpexcept.obj
 0001:0004f328       _raise_excf                0000000180050328 f   libucrt:fpexcept.obj
 0001:0004f354       _set_errno_from_matherr    0000000180050354 f   libucrt:fpexcept.obj
 0001:0004f384       _umatherr                  0000000180050384 f   libucrt:fpexcept.obj
 0001:0004f458       _decomp                    0000000180050458 f   libucrt:util.obj
 0001:0004f588       _sptype                    0000000180050588 f   libucrt:util.obj
 0001:0004f5fc       _clrfp                     00000001800505fc f   libucrt:fpctrl.obj
 0001:0004f61c       _ctrlfp                    000000018005061c f   libucrt:fpctrl.obj
 0001:0004f698       _set_statfp                0000000180050698 f   libucrt:fpctrl.obj
 0001:0004f6b8       _statfp                    00000001800506b8 f   libucrt:fpctrl.obj
 0001:0004f6cc       _query_new_mode            00000001800506cc f   libucrt:new_mode.obj
 0001:0004f6d4       __acrt_initialize_heap     00000001800506d4 f   libucrt:heap_handle.obj
 0001:0004f6f0       __acrt_uninitialize_heap   00000001800506f0 f   libucrt:heap_handle.obj
 0001:0004f994       __acrt_AppPolicyGetProcessTerminationMethodInternal 0000000180050994 f   libucrt:winapi_thunks.obj
 0001:0004f9e4       __acrt_EnumSystemLocalesEx 00000001800509e4 f   libucrt:winapi_thunks.obj
 0001:0004fa7c       __acrt_FlsAlloc            0000000180050a7c f   libucrt:winapi_thunks.obj
 0001:0004fac4       __acrt_FlsFree             0000000180050ac4 f   libucrt:winapi_thunks.obj
 0001:0004fb0c       __acrt_FlsGetValue         0000000180050b0c f   libucrt:winapi_thunks.obj
 0001:0004fb54       __acrt_FlsSetValue         0000000180050b54 f   libucrt:winapi_thunks.obj
 0001:0004fba8       __acrt_GetLocaleInfoEx     0000000180050ba8 f   libucrt:winapi_thunks.obj
 0001:0004fc2c       __acrt_GetUserDefaultLocaleName 0000000180050c2c f   libucrt:winapi_thunks.obj
 0001:0004fc90       __acrt_InitializeCriticalSectionEx 0000000180050c90 f   libucrt:winapi_thunks.obj
 0001:0004fcf4       __acrt_IsValidLocaleName   0000000180050cf4 f   libucrt:winapi_thunks.obj
 0001:0004fd4c       __acrt_LCIDToLocaleName    0000000180050d4c f   libucrt:winapi_thunks.obj
 0001:0004fdbc       __acrt_LCMapStringEx       0000000180050dbc f   libucrt:winapi_thunks.obj
 0001:0004fe98       __acrt_LocaleNameToLCID    0000000180050e98 f   libucrt:winapi_thunks.obj
 0001:0004fee8       __acrt_can_use_vista_locale_apis 0000000180050ee8 f   libucrt:winapi_thunks.obj
 0001:0004ff18       __acrt_eagerly_load_locale_apis 0000000180050f18 f   libucrt:winapi_thunks.obj
 0001:00050074       __acrt_initialize_winapi_thunks 0000000180051074 f   libucrt:winapi_thunks.obj
 0001:000500bc       __acrt_uninitialize_winapi_thunks 00000001800510bc f   libucrt:winapi_thunks.obj
 0001:00050100       _fcloseall                 0000000180051100 f   libucrt:closeall.obj
 0001:000501b4       __acrt_stdio_free_buffer_nolock 00000001800511b4 f   libucrt:_freebuf.obj
 0001:00050268       _close                     0000000180051268 f   libucrt:close.obj
 0001:0005030c       _close_nolock              000000018005130c f   libucrt:close.obj
 0001:000503c8       ?__acrt_stdio_free_stream@@YAXV__crt_stdio_stream@@@Z 00000001800513c8 f   libucrt:stream.obj
 0001:00050470       _commit                    0000000180051470 f   libucrt:commit.obj
 0001:00050abc       _write                     0000000180051abc f   libucrt:write.obj
 0001:00050ba8       _write_nolock              0000000180051ba8 f   libucrt:write.obj
 0001:00050eec       __acrt_stdio_refill_and_read_narrow_nolock 0000000180051eec f   libucrt:_filbuf.obj
 0001:00051530       _ftelli64                  0000000180052530 f   libucrt:ftell.obj
 0001:00051538       _ftelli64_nolock           0000000180052538 f   libucrt:ftell.obj
 0001:00051620       __acrt_stdio_flush_and_write_narrow_nolock 0000000180052620 f   libucrt:_flsbuf.obj
 0001:00051894       _lseeki64                  0000000180052894 f   libucrt:lseek.obj
 0001:0005189c       _lseeki64_nolock           000000018005289c f   libucrt:lseek.obj
 0001:000518a4       __acrt_stdio_allocate_buffer_nolock 00000001800528a4 f   libucrt:_getbuf.obj
 0001:00051ae4       _mbstowcs_s_l              0000000180052ae4 f   libucrt:mbstowcs.obj
 0001:00051c18       mbstowcs_s                 0000000180052c18 f   libucrt:mbstowcs.obj
 0001:00051f68       _wcstombs_s_l              0000000180052f68 f   libucrt:wcstombs.obj
 0001:000521d0       __acrt_GetLocaleInfoA      00000001800531d0 f   libucrt:getlocaleinfoa.obj
 0001:00052398       __acrt_GetStringTypeA      0000000180053398 f   libucrt:getstringtypea.obj
 0001:00052840       __acrt_LCMapStringA        0000000180053840 f   libucrt:lcmapstringa.obj
 0001:000528e0       __acrt_initialize_fma3     00000001800538e0 f   libucrt:fma3_available.obj
 0001:00052950       _pow_special               0000000180053950 f   libucrt:pow_special.obj
 0001:00052a74       _powf_special              0000000180053a74 f   libucrt:pow_special.obj
 0001:00052c00       _wcsicmp                   0000000180053c00 f   libucrt:wcsicmp.obj
 0001:00052c84       _wcsicmp_l                 0000000180053c84 f   libucrt:wcsicmp.obj
 0001:00052d74       __acrt_initialize_timeset  0000000180053d74 f   libucrt:timeset.obj
 0001:00052db8       _isleadbyte_l              0000000180053db8 f i libucrt:_wctype.obj
 0001:00052df8       __acrt_get_process_end_policy 0000000180053df8 f   libucrt:win_policies.obj
 0001:00053398       __acrt_expand_narrow_argv_wildcards 0000000180054398 f   libucrt:argv_wildcards.obj
 0001:00053ae0       __acrt_initialize_multibyte 0000000180054ae0 f   libucrt:mbctype.obj
 0001:00053b40       __acrt_update_thread_multibyte_data 0000000180054b40 f   libucrt:mbctype.obj
 0001:00053b5c       _setmbcp_nolock            0000000180054b5c f   libucrt:mbctype.obj
 0001:00053e1c       __acrt_initialize_command_line 0000000180054e1c f   libucrt:argv_data.obj
 0001:00053e44       __dcrt_get_narrow_environment_from_os 0000000180054e44 f   libucrt:get_environment_from_os.obj
 0001:00053f48       _recalloc                  0000000180054f48 f   libucrt:recalloc.obj
 0001:00053f50       _recalloc_base             0000000180054f50 f   libucrt:recalloc.obj
 0001:00053fe8       __acrt_execute_initializers 0000000180054fe8 f   libucrt:shared_initialization.obj
 0001:00054068       __acrt_execute_uninitializers 0000000180055068 f   libucrt:shared_initialization.obj
 0001:000540a4       __acrt_has_user_matherr    00000001800550a4 f   libucrt:matherr.obj
 0001:000540c4       __acrt_initialize_user_matherr 00000001800550c4 f   libucrt:matherr.obj
 0001:000540cc       __acrt_invoke_user_matherr 00000001800550cc f   libucrt:matherr.obj
 0001:000540fc       _exp_special               00000001800550fc f   libucrt:exp_special.obj
 0001:00054194       __acrt_add_locale_ref      0000000180055194 f   libucrt:locale_refcounting.obj
 0001:00054220       __acrt_free_locale         0000000180055220 f   libucrt:locale_refcounting.obj
 0001:00054398       __acrt_locale_add_lc_time_reference 0000000180055398 f   libucrt:locale_refcounting.obj
 0001:000543c0       __acrt_locale_free_lc_time_if_unreferenced 00000001800553c0 f   libucrt:locale_refcounting.obj
 0001:000543f8       __acrt_locale_release_lc_time_reference 00000001800553f8 f   libucrt:locale_refcounting.obj
 0001:00054420       __acrt_release_locale_ref  0000000180055420 f   libucrt:locale_refcounting.obj
 0001:000544c8       __acrt_update_thread_locale_data 00000001800554c8 f   libucrt:locale_refcounting.obj
 0001:00054538       _updatetlocinfoEx_nolock   0000000180055538 f   libucrt:locale_refcounting.obj
 0001:000545a0       __acrt_locale_free_monetary 00000001800555a0 f   libucrt:initmon.obj
 0001:000546ac       __acrt_locale_initialize_monetary 00000001800556ac f   libucrt:initmon.obj
 0001:00054be0       __acrt_locale_free_numeric 0000000180055be0 f   libucrt:initnum.obj
 0001:00054c4c       __acrt_locale_initialize_numeric 0000000180055c4c f   libucrt:initnum.obj
 0001:000552bc       __acrt_locale_free_time    00000001800562bc f   libucrt:inittime.obj
 0001:000553c4       __acrt_locale_initialize_time 00000001800563c4 f   libucrt:inittime.obj
 0001:00055458       wcscat_s                   0000000180056458 f   libucrt:wcscat_s.obj
 0001:000554d8       wcscspn                    00000001800564d8 f   libucrt:wcscspn.obj
 0001:00055518       wcspbrk                    0000000180056518 f   libucrt:wcspbrk.obj
 0001:00055dbc       __acrt_get_qualified_locale 0000000180056dbc f   libucrt:get_qualified_locale.obj
 0001:000567a8       __acrt_get_qualified_locale_downlevel 00000001800577a8 f   libucrt:getqloc_downlevel.obj
 0001:00056a38       __acrt_GetStringTypeW      0000000180057a38 f   libucrt:getstringtypew.obj
 0001:00056a40       __acrt_MultiByteToWideChar 0000000180057a40 f   libucrt:multibytetowidechar.obj
 0001:00056a48       __acrt_WideCharToMultiByte 0000000180057a48 f   libucrt:widechartomultibyte.obj
 0001:00056a50       __acrt_fp_strflt_to_string 0000000180057a50 f   libucrt:_fptostr.obj
 0001:00056b10       __acrt_fltout              0000000180057b10 f   libucrt:cfout.obj
 0001:00057e64       _isatty                    0000000180058e64 f   libucrt:isatty.obj
 0001:00057ec4       __acrt_lowio_create_handle_array 0000000180058ec4 f   libucrt:osfinfo.obj
 0001:00057f5c       __acrt_lowio_destroy_handle_array 0000000180058f5c f   libucrt:osfinfo.obj
 0001:00057fac       __acrt_lowio_ensure_fh_exists 0000000180058fac f   libucrt:osfinfo.obj
 0001:00058054       __acrt_lowio_lock_fh       0000000180059054 f   libucrt:osfinfo.obj
 0001:00058078       __acrt_lowio_unlock_fh     0000000180059078 f   libucrt:osfinfo.obj
 0001:0005809c       _free_osfhnd               000000018005909c f   libucrt:osfinfo.obj
 0001:00058158       _get_osfhandle             0000000180059158 f   libucrt:osfinfo.obj
 0001:000581e0       _get_fpsr                  00000001800591e0 f   libucrt:fpsr.obj
 0001:000581f0       _set_fpsr                  00000001800591f0 f   libucrt:fpsr.obj
 0001:000581fa       _fclrf                     00000001800591fa f   libucrt:fpsr.obj
 0001:0005820e       _frnd                      000000018005920e f   libucrt:fpsr.obj
 0001:000582fc       __acrt_DownlevelLCIDToLocaleName 00000001800592fc f   libucrt:lcidtoname_downlevel.obj
 0001:000583e0       __acrt_DownlevelLocaleNameToLCID 00000001800593e0 f   libucrt:lcidtoname_downlevel.obj
 0001:00058414       _putwch_nolock             0000000180059414 f   libucrt:putwch.obj
 0001:000589ec       _read                      00000001800599ec f   libucrt:read.obj
 0001:00058b08       _read_nolock               0000000180059b08 f   libucrt:read.obj
 0001:00058f94       strncpy_s                  0000000180059f94 f   libucrt:strncpy_s.obj
 0001:00059068       __acrt_fenv_get_control    000000018005a068 f   libucrt:_fenvutils.obj
 0001:00059168       __acrt_fenv_get_status     000000018005a168 f   libucrt:_fenvutils.obj
 0001:000591c0       __acrt_fenv_set_control    000000018005a1c0 f   libucrt:_fenvutils.obj
 0001:00059308       __acrt_fenv_set_status     000000018005a308 f   libucrt:_fenvutils.obj
 0001:000594b0       _handle_error              000000018005a4b0 f   libucrt:libm_error.obj
 0001:000595d8       _handle_errorf             000000018005a5d8 f   libucrt:libm_error.obj
 0001:0005970c       _handle_nan                000000018005a70c f   libucrt:libm_error.obj
 0001:00059728       _handle_nanf               000000018005a728 f   libucrt:libm_error.obj
 0001:00059738       _towlower_l                000000018005a738 f   libucrt:towlower.obj
 0001:00059800       qsort                      000000018005a800 f   libucrt:qsort.obj
 0001:00059c50       strpbrk                    000000018005ac50 f   libucrt:strpbrk.obj
 0001:0005a030       _mbsdec                    000000018005b030 f   libucrt:mbsdec.obj
 0001:0005a038       _mbsdec_l                  000000018005b038 f   libucrt:mbsdec.obj
 0001:0005a0e0       _msize                     000000018005b0e0 f   libucrt:msize.obj
 0001:0005a0e8       _msize_base                000000018005b0e8 f   libucrt:msize.obj
 0001:0005a238       _itow_s                    000000018005b238 f   libucrt:xtoa.obj
 0001:0005a258       _wcsnicmp                  000000018005b258 f   libucrt:wcsnicmp.obj
 0001:0005a2f0       _wcsnicmp_l                000000018005b2f0 f   libucrt:wcsnicmp.obj
 0001:0005a408       wcscmp                     000000018005b408 f   libucrt:wcscmp.obj
 0001:0005a440       fegetenv                   000000018005b440 f   libucrt:fegetenv.obj
 0001:0005a460       fesetenv                   000000018005b460 f   libucrt:fesetenv.obj
 0001:0005a4b0       feholdexcept               000000018005b4b0 f   libucrt:feholdexcept.obj
 0001:0005a500       ceil                       000000018005b500 f   libucrt:ceil.obj
 0001:0005a5d0       log10                      000000018005b5d0 f   libucrt:log10.obj
 0001:0005ab7c       _query_app_type            000000018005bb7c f   libucrt:report_runtime_error.obj
 0001:0005ab84       __dcrt_lowio_ensure_console_output_initialized 000000018005bb84 f   libucrt:initcon.obj
 0001:0005abd8       __dcrt_terminate_console_output 000000018005bbd8 f   libucrt:initcon.obj
 0001:0005abf4       __dcrt_write_console_w     000000018005bbf4 f   libucrt:initcon.obj
 0001:0005acb4       __acrt_LCMapStringW        000000018005bcb4 f   libucrt:lcmapstringw.obj
 0001:0005ad3c       _clearfp                   000000018005bd3c f   libucrt:ieee.obj
 0001:0005adb0       _log10_special             000000018005bdb0 f   libucrt:log_special.obj
 0001:0005ae66       IsProcessorFeaturePresent  000000018005be66 f   kernel32:KERNEL32.dll
 0001:0005ae6c       RtlUnwindEx                000000018005be6c f   kernel32:KERNEL32.dll
 0001:0005ae74       ?DloadAcquireSectionWriteAccess@@YAXXZ 000000018005be74 f i DelayImp:delayhlp.obj
 0001:0005af30       ?DloadGetSRWLockFunctionPointers@@YAEXZ 000000018005bf30 f i DelayImp:delayhlp.obj
 0001:0005afcc       ?DloadMakePermanentImageCommit@@YAXPEAX_K@Z 000000018005bfcc f i DelayImp:delayhlp.obj
 0001:0005b060       ?DloadObtainSection@@YAPEAXPEAK0@Z 000000018005c060 f i DelayImp:delayhlp.obj
 0001:0005b0f4       ?DloadProtectSection@@YAXKPEAK@Z 000000018005c0f4 f i DelayImp:delayhlp.obj
 0001:0005b184       ?DloadReleaseSectionWriteAccess@@YAXXZ 000000018005c184 f i DelayImp:delayhlp.obj
 0001:0005b228       __delayLoadHelper2         000000018005c228 f   DelayImp:delayhlp.obj
 0001:0005b524       ?GetCurrentThreadId@platform@details@Concurrency@@YAJXZ 000000018005c524 f   libcpmt:ppltasks.obj
 0001:0005b52c       ??$?0AEAPEAUEHExceptionRecord@@_N@?$_Ref_count_obj_alloc@V__ExceptionPtr@@U?$_StaticAllocator@H@@@std@@QEAA@AEBU?$_StaticAllocator@H@@AEAPEAUEHExceptionRecord@@$$QEA_N@Z 000000018005c52c f i libcpmt:excptptr.obj
 0001:0005b5a8       ??$allocate_shared@V__ExceptionPtr@@U?$_StaticAllocator@H@@AEAPEAUEHExceptionRecord@@_N@std@@YA?AV?$shared_ptr@V__ExceptionPtr@@@0@AEBU?$_StaticAllocator@H@@AEAPEAUEHExceptionRecord@@$$QEA_N@Z 000000018005c5a8 f i libcpmt:excptptr.obj
 0001:0005b62c       ??$make_shared@V__ExceptionPtr@@AEAPEAUEHExceptionRecord@@_N@std@@YA?AV?$shared_ptr@V__ExceptionPtr@@@0@AEAPEAUEHExceptionRecord@@$$QEA_N@Z 000000018005c62c f i libcpmt:excptptr.obj
 0001:0005b6c0       ??0__ExceptionPtr@@QEAA@PEBUEHExceptionRecord@@_N@Z 000000018005c6c0 f   libcpmt:excptptr.obj
 0001:0005b844       ??1__ExceptionPtr@@QEAA@XZ 000000018005c844 f   libcpmt:excptptr.obj
 0001:0005b920       ??_G?$_Ref_count_obj_alloc@V__ExceptionPtr@@U?$_StaticAllocator@H@@@std@@UEAAPEAXI@Z 000000018005c920 f i libcpmt:excptptr.obj
 0001:0005b920       ??_G?$_Ref_count_obj@V__ExceptionPtr@@@std@@UEAAPEAXI@Z 000000018005c920 f i libcpmt:excptptr.obj
 0001:0005b920       ??_E?$_Ref_count_obj_alloc@V__ExceptionPtr@@U?$_StaticAllocator@H@@@std@@UEAAPEAXI@Z 000000018005c920 f i libcpmt:excptptr.obj
 0001:0005b920       ??_E?$_Ref_count_obj@V__ExceptionPtr@@@std@@UEAAPEAXI@Z 000000018005c920 f i libcpmt:excptptr.obj
 0001:0005b94c       ??_G?$shared_ptr@V__ExceptionPtr@@@std@@QEAAPEAXI@Z 000000018005c94c f i libcpmt:excptptr.obj
 0001:0005b9dc       ?_CallCopyCtor@__ExceptionPtr@@AEBAXPEAX0_KQEBU_s_CatchableType@@@Z 000000018005c9dc f   libcpmt:excptptr.obj
 0001:0005bac8       ?_CopyException@__ExceptionPtr@@SA?AV?$shared_ptr@V__ExceptionPtr@@@std@@PEBXPEBU_s_ThrowInfo@@_N@Z 000000018005cac8 f   libcpmt:excptptr.obj
 0001:0005bbdc       ?_CurrentException@__ExceptionPtr@@SA?AV?$shared_ptr@V__ExceptionPtr@@@std@@XZ 000000018005cbdc f   libcpmt:excptptr.obj
 0001:0005bc60       ?_Delete_this@?$_Ref_count_obj@V__ExceptionPtr@@@std@@EEAAXXZ 000000018005cc60 f i libcpmt:excptptr.obj
 0001:0005bc98       ?_Delete_this@?$_Ref_count_obj_alloc@V__ExceptionPtr@@U?$_StaticAllocator@H@@@std@@EEAAXXZ 000000018005cc98 f i libcpmt:excptptr.obj
 0001:0005bccc       ?_Destroy@?$_Ref_count_obj@V__ExceptionPtr@@@std@@EEAAXXZ 000000018005cccc f i libcpmt:excptptr.obj
 0001:0005bccc       ?_Destroy@?$_Ref_count_obj_alloc@V__ExceptionPtr@@U?$_StaticAllocator@H@@@std@@EEAAXXZ 000000018005cccc f i libcpmt:excptptr.obj
 0001:0005bcd8       ?_InitBadAllocException@__ExceptionPtr@@CA?AV?$shared_ptr@V__ExceptionPtr@@@std@@XZ 000000018005ccd8 f   libcpmt:excptptr.obj
 0001:0005bd3c       ?_Reset0@?$_Ptr_base@V__ExceptionPtr@@@std@@QEAAXPEAV__ExceptionPtr@@PEAV_Ref_count_base@2@@Z 000000018005cd3c f i libcpmt:excptptr.obj
 0001:0005bdcc       ?_RethrowException@__ExceptionPtr@@QEBAXXZ 000000018005cdcc f   libcpmt:excptptr.obj
 0001:0005c000       ?__ExceptionPtrCopy@@YAXPEAXPEBX@Z 000000018005d000 f   libcpmt:excptptr.obj
 0001:0005c020       ?__ExceptionPtrCreate@@YAXPEAX@Z 000000018005d020 f   libcpmt:excptptr.obj
 0001:0005c02c       ?__ExceptionPtrCurrentException@@YAXPEAX@Z 000000018005d02c f   libcpmt:excptptr.obj
 0001:0005c0cc       ?__ExceptionPtrDestroy@@YAXPEAX@Z 000000018005d0cc f   libcpmt:excptptr.obj
 0001:0005c0d4       ?__ExceptionPtrRethrow@@YAXPEBX@Z 000000018005d0d4 f   libcpmt:excptptr.obj
 0001:0005c0e8       ?create_stl_condition_variable@details@Concurrency@@YAXPEAVstl_condition_variable_interface@12@@Z 000000018005d0e8 f i libcpmt:cond.obj
 0001:0005c16c       ?destroy@stl_condition_variable_concrt@details@Concurrency@@UEAAXXZ 000000018005d16c f i libcpmt:cond.obj
 0001:0005c260       ?notify_all@stl_condition_variable_concrt@details@Concurrency@@UEAAXXZ 000000018005d260 f i libcpmt:cond.obj
 0001:0005c26c       ?notify_all@stl_condition_variable_vista@details@Concurrency@@UEAAXXZ 000000018005d26c f i libcpmt:cond.obj
 0001:0005c26c       ?notify_all@stl_condition_variable_win7@details@Concurrency@@UEAAXXZ 000000018005d26c f i libcpmt:cond.obj
 0001:0005c278       ?notify_one@stl_condition_variable_concrt@details@Concurrency@@UEAAXXZ 000000018005d278 f i libcpmt:cond.obj
 0001:0005c284       ?notify_one@stl_condition_variable_win7@details@Concurrency@@UEAAXXZ 000000018005d284 f i libcpmt:cond.obj
 0001:0005c284       ?notify_one@stl_condition_variable_vista@details@Concurrency@@UEAAXXZ 000000018005d284 f i libcpmt:cond.obj
 0001:0005c290       ?wait@stl_condition_variable_concrt@details@Concurrency@@UEAAXPEAVstl_critical_section_interface@23@@Z 000000018005d290 f i libcpmt:cond.obj
 0001:0005c2a0       ?wait@stl_condition_variable_vista@details@Concurrency@@UEAAXPEAVstl_critical_section_interface@23@@Z 000000018005d2a0 f i libcpmt:cond.obj
 0001:0005c2c4       ?wait@stl_condition_variable_win7@details@Concurrency@@UEAAXPEAVstl_critical_section_interface@23@@Z 000000018005d2c4 f i libcpmt:cond.obj
 0001:0005c2ec       ?wait_for@stl_condition_variable_concrt@details@Concurrency@@UEAA_NPEAVstl_critical_section_interface@23@I@Z 000000018005d2ec f i libcpmt:cond.obj
 0001:0005c2fc       ?wait_for@stl_condition_variable_vista@details@Concurrency@@UEAA_NPEAVstl_critical_section_interface@23@I@Z 000000018005d2fc f i libcpmt:cond.obj
 0001:0005c318       ?wait_for@stl_condition_variable_win7@details@Concurrency@@UEAA_NPEAVstl_critical_section_interface@23@I@Z 000000018005d318 f i libcpmt:cond.obj
 0001:0005c338       _Cnd_broadcast             000000018005d338 f   libcpmt:cond.obj
 0001:0005c368       _Cnd_destroy_in_situ       000000018005d368 f   libcpmt:cond.obj
 0001:0005c398       _Cnd_init_in_situ          000000018005d398 f   libcpmt:cond.obj
 0001:0005c3a0       _Cnd_wait                  000000018005d3a0 f   libcpmt:cond.obj
 0001:0005c3a8       ??_L@YAXPEAX_K1P6AX0@Z2@Z  000000018005d3a8 f   LIBCMT:ehvecctr.obj
 0001:0005c420       _FindPESection             000000018005d420 f   LIBCMT:pesect.obj
 0001:0005c470       _IsNonwritableInCurrentImage 000000018005d470 f   LIBCMT:pesect.obj
 0001:0005c4c0       _ValidateImageBase         000000018005d4c0 f   LIBCMT:pesect.obj
 0001:0005c4f0       strrchr                    000000018005d4f0 f   libvcruntime:strrchr.obj
 0001:0005c630       wcschr                     000000018005d630 f   libvcruntime:wcschr.obj
 0001:0005c6e0       _guard_dispatch_icall_nop  000000018005d6e0 f   LIBCMT:_guard_dispatch_.obj
 0001:0005c700       __guard_ss_verify_failure  000000018005d700 f   LIBCMT:_rfgfailure_.obj
 0001:0005c70b       __guard_ss_verify_failure_rcx 000000018005d70b     LIBCMT:_rfgfailure_.obj
 0001:0005c711       __guard_ss_verify_failure_rdx 000000018005d711     LIBCMT:_rfgfailure_.obj
 0001:0005c717       __guard_ss_verify_failure_r8 000000018005d717     LIBCMT:_rfgfailure_.obj
 0001:0005c71d       __guard_ss_verify_failure_r9 000000018005d71d     LIBCMT:_rfgfailure_.obj
 0001:0005c723       __guard_ss_verify_failure_r10 000000018005d723     LIBCMT:_rfgfailure_.obj
 0001:0005c730       __guard_ss_verify_failure_default 000000018005d730 f   LIBCMT:_rfgfailure_.obj
 0001:0005c790       __guard_ss_verify_sp       000000018005d790 f   LIBCMT:_rfgfailure_.obj
 0001:0005c7a0       __guard_ss_verify_sp_default 000000018005d7a0 f   LIBCMT:_rfgfailure_.obj
 0002:00000000       __imp_GetCurrentThreadId   000000018005f000     kernel32:KERNEL32.dll
 0002:00000008       __imp_GetCurrentProcessId  000000018005f008     kernel32:KERNEL32.dll
 0002:00000010       __imp_GetModuleHandleA     000000018005f010     kernel32:KERNEL32.dll
 0002:00000018       __imp_LoadLibraryExA       000000018005f018     kernel32:KERNEL32.dll
 0002:00000020       __imp_VirtualQuery         000000018005f020     kernel32:KERNEL32.dll
 0002:00000028       __imp_GetSystemInfo        000000018005f028     kernel32:KERNEL32.dll
 0002:00000030       __imp_WriteConsoleW        000000018005f030     kernel32:KERNEL32.dll
 0002:00000038       __imp_CreateFileW          000000018005f038     kernel32:KERNEL32.dll
 0002:00000040       __imp_HeapSize             000000018005f040     kernel32:KERNEL32.dll
 0002:00000048       __imp_ReadConsoleW         000000018005f048     kernel32:KERNEL32.dll
 0002:00000050       __imp_SetStdHandle         000000018005f050     kernel32:KERNEL32.dll
 0002:00000058       __imp_FreeEnvironmentStringsW 000000018005f058     kernel32:KERNEL32.dll
 0002:00000060       __imp_GetEnvironmentStringsW 000000018005f060     kernel32:KERNEL32.dll
 0002:00000068       __imp_GetCommandLineW      000000018005f068     kernel32:KERNEL32.dll
 0002:00000070       __imp_GetCommandLineA      000000018005f070     kernel32:KERNEL32.dll
 0002:00000078       __imp_GetOEMCP             000000018005f078     kernel32:KERNEL32.dll
 0002:00000080       __imp_IsValidCodePage      000000018005f080     kernel32:KERNEL32.dll
 0002:00000088       __imp_FindNextFileA        000000018005f088     kernel32:KERNEL32.dll
 0002:00000090       __imp_FindFirstFileExA     000000018005f090     kernel32:KERNEL32.dll
 0002:00000098       __imp_FindClose            000000018005f098     kernel32:KERNEL32.dll
 0002:000000a0       __imp_SetFilePointerEx     000000018005f0a0     kernel32:KERNEL32.dll
 0002:000000a8       __imp_EnterCriticalSection 000000018005f0a8     kernel32:KERNEL32.dll
 0002:000000b0       __imp_LeaveCriticalSection 000000018005f0b0     kernel32:KERNEL32.dll
 0002:000000b8       __imp_TryEnterCriticalSection 000000018005f0b8     kernel32:KERNEL32.dll
 0002:000000c0       __imp_DeleteCriticalSection 000000018005f0c0     kernel32:KERNEL32.dll
 0002:000000c8       __imp_GetLastError         000000018005f0c8     kernel32:KERNEL32.dll
 0002:000000d0       __imp_WideCharToMultiByte  000000018005f0d0     kernel32:KERNEL32.dll
 0002:000000d8       __imp_QueryPerformanceCounter 000000018005f0d8     kernel32:KERNEL32.dll
 0002:000000e0       __imp_SetLastError         000000018005f0e0     kernel32:KERNEL32.dll
 0002:000000e8       __imp_InitializeCriticalSectionAndSpinCount 000000018005f0e8     kernel32:KERNEL32.dll
 0002:000000f0       __imp_CreateEventW         000000018005f0f0     kernel32:KERNEL32.dll
 0002:000000f8       __imp_Sleep                000000018005f0f8     kernel32:KERNEL32.dll
 0002:00000100       __imp_TlsAlloc             000000018005f100     kernel32:KERNEL32.dll
 0002:00000108       __imp_TlsGetValue          000000018005f108     kernel32:KERNEL32.dll
 0002:00000110       __imp_TlsSetValue          000000018005f110     kernel32:KERNEL32.dll
 0002:00000118       __imp_TlsFree              000000018005f118     kernel32:KERNEL32.dll
 0002:00000120       __imp_GetSystemTimeAsFileTime 000000018005f120     kernel32:KERNEL32.dll
 0002:00000128       __imp_GetTickCount         000000018005f128     kernel32:KERNEL32.dll
 0002:00000130       __imp_GetModuleHandleW     000000018005f130     kernel32:KERNEL32.dll
 0002:00000138       __imp_GetProcAddress       000000018005f138     kernel32:KERNEL32.dll
 0002:00000140       __imp_EncodePointer        000000018005f140     kernel32:KERNEL32.dll
 0002:00000148       __imp_DecodePointer        000000018005f148     kernel32:KERNEL32.dll
 0002:00000150       __imp_MultiByteToWideChar  000000018005f150     kernel32:KERNEL32.dll
 0002:00000158       __imp_LCMapStringW         000000018005f158     kernel32:KERNEL32.dll
 0002:00000160       __imp_GetLocaleInfoW       000000018005f160     kernel32:KERNEL32.dll
 0002:00000168       __imp_GetStringTypeW       000000018005f168     kernel32:KERNEL32.dll
 0002:00000170       __imp_GetCPInfo            000000018005f170     kernel32:KERNEL32.dll
 0002:00000178       __imp_CloseHandle          000000018005f178     kernel32:KERNEL32.dll
 0002:00000180       __imp_SetEvent             000000018005f180     kernel32:KERNEL32.dll
 0002:00000188       __imp_ResetEvent           000000018005f188     kernel32:KERNEL32.dll
 0002:00000190       __imp_WaitForSingleObjectEx 000000018005f190     kernel32:KERNEL32.dll
 0002:00000198       __imp_RtlCaptureContext    000000018005f198     kernel32:KERNEL32.dll
 0002:000001a0       __imp_RtlLookupFunctionEntry 000000018005f1a0     kernel32:KERNEL32.dll
 0002:000001a8       __imp_RtlVirtualUnwind     000000018005f1a8     kernel32:KERNEL32.dll
 0002:000001b0       __imp_UnhandledExceptionFilter 000000018005f1b0     kernel32:KERNEL32.dll
 0002:000001b8       __imp_SetUnhandledExceptionFilter 000000018005f1b8     kernel32:KERNEL32.dll
 0002:000001c0       __imp_GetCurrentProcess    000000018005f1c0     kernel32:KERNEL32.dll
 0002:000001c8       __imp_TerminateProcess     000000018005f1c8     kernel32:KERNEL32.dll
 0002:000001d0       __imp_IsProcessorFeaturePresent 000000018005f1d0     kernel32:KERNEL32.dll
 0002:000001d8       __imp_IsDebuggerPresent    000000018005f1d8     kernel32:KERNEL32.dll
 0002:000001e0       __imp_GetStartupInfoW      000000018005f1e0     kernel32:KERNEL32.dll
 0002:000001e8       __imp_InitializeSListHead  000000018005f1e8     kernel32:KERNEL32.dll
 0002:000001f0       __imp_SignalObjectAndWait  000000018005f1f0     kernel32:KERNEL32.dll
 0002:000001f8       __imp_SwitchToThread       000000018005f1f8     kernel32:KERNEL32.dll
 0002:00000200       __imp_CreateThread         000000018005f200     kernel32:KERNEL32.dll
 0002:00000208       __imp_SetThreadPriority    000000018005f208     kernel32:KERNEL32.dll
 0002:00000210       __imp_GetThreadPriority    000000018005f210     kernel32:KERNEL32.dll
 0002:00000218       __imp_GetLogicalProcessorInformation 000000018005f218     kernel32:KERNEL32.dll
 0002:00000220       __imp_CreateTimerQueueTimer 000000018005f220     kernel32:KERNEL32.dll
 0002:00000228       __imp_ChangeTimerQueueTimer 000000018005f228     kernel32:KERNEL32.dll
 0002:00000230       __imp_DeleteTimerQueueTimer 000000018005f230     kernel32:KERNEL32.dll
 0002:00000238       __imp_GetNumaHighestNodeNumber 000000018005f238     kernel32:KERNEL32.dll
 0002:00000240       __imp_GetProcessAffinityMask 000000018005f240     kernel32:KERNEL32.dll
 0002:00000248       __imp_SetThreadAffinityMask 000000018005f248     kernel32:KERNEL32.dll
 0002:00000250       __imp_RegisterWaitForSingleObject 000000018005f250     kernel32:KERNEL32.dll
 0002:00000258       __imp_UnregisterWait       000000018005f258     kernel32:KERNEL32.dll
 0002:00000260       __imp_GetCurrentThread     000000018005f260     kernel32:KERNEL32.dll
 0002:00000268       __imp_GetThreadTimes       000000018005f268     kernel32:KERNEL32.dll
 0002:00000270       __imp_FreeLibrary          000000018005f270     kernel32:KERNEL32.dll
 0002:00000278       __imp_FreeLibraryAndExitThread 000000018005f278     kernel32:KERNEL32.dll
 0002:00000280       __imp_GetModuleFileNameW   000000018005f280     kernel32:KERNEL32.dll
 0002:00000288       __imp_LoadLibraryExW       000000018005f288     kernel32:KERNEL32.dll
 0002:00000290       __imp_GetVersionExW        000000018005f290     kernel32:KERNEL32.dll
 0002:00000298       __imp_VirtualAlloc         000000018005f298     kernel32:KERNEL32.dll
 0002:000002a0       __imp_VirtualProtect       000000018005f2a0     kernel32:KERNEL32.dll
 0002:000002a8       __imp_VirtualFree          000000018005f2a8     kernel32:KERNEL32.dll
 0002:000002b0       __imp_DuplicateHandle      000000018005f2b0     kernel32:KERNEL32.dll
 0002:000002b8       __imp_ReleaseSemaphore     000000018005f2b8     kernel32:KERNEL32.dll
 0002:000002c0       __imp_InterlockedPopEntrySList 000000018005f2c0     kernel32:KERNEL32.dll
 0002:000002c8       __imp_InterlockedPushEntrySList 000000018005f2c8     kernel32:KERNEL32.dll
 0002:000002d0       __imp_InterlockedFlushSList 000000018005f2d0     kernel32:KERNEL32.dll
 0002:000002d8       __imp_QueryDepthSList      000000018005f2d8     kernel32:KERNEL32.dll
 0002:000002e0       __imp_UnregisterWaitEx     000000018005f2e0     kernel32:KERNEL32.dll
 0002:000002e8       __imp_CreateTimerQueue     000000018005f2e8     kernel32:KERNEL32.dll
 0002:000002f0       __imp_LoadLibraryW         000000018005f2f0     kernel32:KERNEL32.dll
 0002:000002f8       __imp_RtlPcToFileHeader    000000018005f2f8     kernel32:KERNEL32.dll
 0002:00000300       __imp_RaiseException       000000018005f300     kernel32:KERNEL32.dll
 0002:00000308       __imp_RtlUnwindEx          000000018005f308     kernel32:KERNEL32.dll
 0002:00000310       __imp_HeapAlloc            000000018005f310     kernel32:KERNEL32.dll
 0002:00000318       __imp_HeapFree             000000018005f318     kernel32:KERNEL32.dll
 0002:00000320       __imp_HeapReAlloc          000000018005f320     kernel32:KERNEL32.dll
 0002:00000328       __imp_ExitProcess          000000018005f328     kernel32:KERNEL32.dll
 0002:00000330       __imp_GetModuleHandleExW   000000018005f330     kernel32:KERNEL32.dll
 0002:00000338       __imp_GetModuleFileNameA   000000018005f338     kernel32:KERNEL32.dll
 0002:00000340       __imp_GetACP               000000018005f340     kernel32:KERNEL32.dll
 0002:00000348       __imp_GetStdHandle         000000018005f348     kernel32:KERNEL32.dll
 0002:00000350       __imp_GetFileType          000000018005f350     kernel32:KERNEL32.dll
 0002:00000358       __imp_GetProcessHeap       000000018005f358     kernel32:KERNEL32.dll
 0002:00000360       __imp_IsValidLocale        000000018005f360     kernel32:KERNEL32.dll
 0002:00000368       __imp_GetUserDefaultLCID   000000018005f368     kernel32:KERNEL32.dll
 0002:00000370       __imp_EnumSystemLocalesW   000000018005f370     kernel32:KERNEL32.dll
 0002:00000378       __imp_FlushFileBuffers     000000018005f378     kernel32:KERNEL32.dll
 0002:00000380       __imp_WriteFile            000000018005f380     kernel32:KERNEL32.dll
 0002:00000388       __imp_GetConsoleCP         000000018005f388     kernel32:KERNEL32.dll
 0002:00000390       __imp_GetConsoleMode       000000018005f390     kernel32:KERNEL32.dll
 0002:00000398       __imp_ReadFile             000000018005f398     kernel32:KERNEL32.dll
 0002:000003a0       \177KERNEL32_NULL_THUNK_DATA 000000018005f3a0     kernel32:KERNEL32.dll
 0002:000003a8       __imp_WSASocketW           000000018005f3a8     ws2_32:WS2_32.dll
 0002:000003b0       __imp_getpeername          000000018005f3b0     ws2_32:WS2_32.dll
 0002:000003b8       __imp_inet_ntop            000000018005f3b8     ws2_32:WS2_32.dll
 0002:000003c0       __imp_ntohs                000000018005f3c0     ws2_32:WS2_32.dll
 0002:000003c8       __imp_htons                000000018005f3c8     ws2_32:WS2_32.dll
 0002:000003d0       __imp_accept               000000018005f3d0     ws2_32:WS2_32.dll
 0002:000003d8       __imp_bind                 000000018005f3d8     ws2_32:WS2_32.dll
 0002:000003e0       __imp_listen               000000018005f3e0     ws2_32:WS2_32.dll
 0002:000003e8       __imp_getaddrinfo          000000018005f3e8     ws2_32:WS2_32.dll
 0002:000003f0       __imp_WSADuplicateSocketW  000000018005f3f0     ws2_32:WS2_32.dll
 0002:000003f8       __imp_connect              000000018005f3f8     ws2_32:WS2_32.dll
 0002:00000400       __imp_recv                 000000018005f400     ws2_32:WS2_32.dll
 0002:00000408       __imp_freeaddrinfo         000000018005f408     ws2_32:WS2_32.dll
 0002:00000410       __imp_WSACleanup           000000018005f410     ws2_32:WS2_32.dll
 0002:00000418       __imp_WSAStartup           000000018005f418     ws2_32:WS2_32.dll
 0002:00000420       __imp_closesocket          000000018005f420     ws2_32:WS2_32.dll
 0002:00000428       __imp_shutdown             000000018005f428     ws2_32:WS2_32.dll
 0002:00000430       __imp_send                 000000018005f430     ws2_32:WS2_32.dll
 0002:00000438       __imp_setsockopt           000000018005f438     ws2_32:WS2_32.dll
 0002:00000440       __imp_WSAGetLastError      000000018005f440     ws2_32:WS2_32.dll
 0002:00000448       __imp_socket               000000018005f448     ws2_32:WS2_32.dll
 0002:00000450       \177WS2_32_NULL_THUNK_DATA 000000018005f450     ws2_32:WS2_32.dll
 0002:00000458       __guard_check_icall_fptr   000000018005f458     LIBCMT:guard_support.obj
 0002:00000460       __guard_dispatch_icall_fptr 000000018005f460     LIBCMT:guard_support.obj
 0002:00000468       __guard_ss_verify_failure_fptr 000000018005f468     LIBCMT:guard_support.obj
 0002:00000470       __guard_ss_verify_sp_fptr  000000018005f470     LIBCMT:guard_support.obj
 0002:00000478       __xc_a                     000000018005f478     LIBCMT:initializers.obj
 0002:00000510       _register_uws_             000000018005f510     addon.obj
 0002:00000550       __xc_z                     000000018005f550     LIBCMT:initializers.obj
 0002:00000558       __xi_a                     000000018005f558     LIBCMT:initializers.obj
 0002:00000570       __acrt_stdio_initializer   000000018005f570     libucrt:stdio_initializer.obj
 0002:00000578       __acrt_tran_fma3_initializer 000000018005f578     libucrt:fma3_initializer.obj
 0002:00000580       __acrt_timeset_initializer 000000018005f580     libucrt:timeset_initializer.obj
 0002:00000588       __acrt_multibyte_initializer 000000018005f588     libucrt:multibyte_initializer.obj
 0002:00000590       __xi_z                     000000018005f590     LIBCMT:initializers.obj
 0002:00000598       __xl_a                     000000018005f598     LIBCMT:tlssup.obj
 0002:000005a0       __xl_z                     000000018005f5a0     LIBCMT:tlssup.obj
 0002:000005a8       __xp_a                     000000018005f5a8     LIBCMT:initializers.obj
 0002:000005b8       __acrt_locale_terminator   000000018005f5b8     libucrt:locale_initializer.obj
 0002:000005c0       __dcrt_console_output_terminator 000000018005f5c0     libucrt:console_output_initializer.obj
 0002:000005c8       __acrt_stdio_terminator    000000018005f5c8     libucrt:stdio_initializer.obj
 0002:000005d0       __xp_z                     000000018005f5d0     LIBCMT:initializers.obj
 0002:000005d8       __xt_a                     000000018005f5d8     LIBCMT:initializers.obj
 0002:000005e0       __xt_z                     000000018005f5e0     LIBCMT:initializers.obj
 0002:000005f0       __sz_node_exe              000000018005f5f0     node:node.exe
 0002:00000608       ??_7exception@std@@6B@     000000018005f608     libcpmt:xthrow.obj
 0002:00000618       ??_C@_0BC@EOODALEL@Unknown?5exception?$AA@ 000000018005f618     libcpmt:xthrow.obj
 0002:00000638       ??_7bad_alloc@std@@6B@     000000018005f638     libcpmt:xthrow.obj
 0002:00000648       ??_C@_0P@GHFPNOJB@bad?5allocation?$AA@ 000000018005f648     libcpmt:xthrow.obj
 0002:00000660       ??_7logic_error@std@@6B@   000000018005f660     libcpmt:xthrow.obj
 0002:00000678       ??_7invalid_argument@std@@6B@ 000000018005f678     libcpmt:xthrow.obj
 0002:00000690       ??_7length_error@std@@6B@  000000018005f690     libcpmt:xthrow.obj
 0002:000006a8       ??_7out_of_range@std@@6B@  000000018005f6a8     libcpmt:xthrow.obj
 0002:000006c0       ??_7runtime_error@std@@6B@ 000000018005f6c0     libcpmt:xthrow.obj
 0002:000006d8       ??_7bad_function_call@std@@6B@ 000000018005f6d8     libcpmt:xthrow.obj
 0002:000006e8       ??_C@_0BC@DPJNKNAF@bad?5function?5call?$AA@ 000000018005f6e8     libcpmt:xthrow.obj
 0002:00000758       ??_C@_0BI@NGCEHDD@device?5or?5resource?5busy?$AA@ 000000018005f758     libcpmt:thread0.obj
 0002:00000770       ??_C@_0BB@FCMFBGOM@invalid?5argument?$AA@ 000000018005f770     libcpmt:thread0.obj
 0002:00000788       ??_C@_0BA@ENLPPKBN@no?5such?5process?$AA@ 000000018005f788     libcpmt:thread0.obj
 0002:00000798       ??_C@_0BC@ENOOLCNF@not?5enough?5memory?$AA@ 000000018005f798     libcpmt:thread0.obj
 0002:000007b0       ??_C@_0BI@OHIEJAAB@operation?5not?5permitted?$AA@ 000000018005f7b0     libcpmt:thread0.obj
 0002:000007c8       ??_C@_0BO@BJBOMOEJ@resource?5deadlock?5would?5occur?$AA@ 000000018005f7c8     libcpmt:thread0.obj
 0002:000007e8       ??_C@_0BP@LKNGHENJ@resource?5unavailable?5try?5again?$AA@ 000000018005f7e8     libcpmt:thread0.obj
 0002:00000838       ??_7_System_error@std@@6B@ 000000018005f838     libcpmt:thread0.obj
 0002:00000850       ??_7system_error@std@@6B@  000000018005f850     libcpmt:thread0.obj
 0002:00000868       ??_7_Generic_error_category@std@@6B@ 000000018005f868     libcpmt:thread0.obj
 0002:000008c8       ??_7stl_critical_section_vista@details@Concurrency@@6B@ 000000018005f8c8     libcpmt:mutex.obj
 0002:000008f8       ??_7stl_critical_section_win7@details@Concurrency@@6B@ 000000018005f8f8     libcpmt:mutex.obj
 0002:00000928       ??_7stl_critical_section_concrt@details@Concurrency@@6B@ 000000018005f928     libcpmt:mutex.obj
 0002:00000950       ??_C@_0O@BFJCFAAK@unknown?5error?$AA@ 000000018005f950     libcpmt:xonce.obj
 0002:00000bc0       ??_7bad_cast@std@@6B@      000000018005fbc0     libcpmt:cout.obj
 0002:00000bd0       ??_C@_08EPJLHIJG@bad?5cast?$AA@ 000000018005fbd0     libcpmt:cout.obj
 0002:00000be8       ??_7_Facet_base@std@@6B@   000000018005fbe8     libcpmt:cout.obj
 0002:00000c08       ??_7?$ctype@D@std@@6B@     000000018005fc08     libcpmt:cout.obj
 0002:00000c68       ??_7_Iostream_error_category@std@@6B@ 000000018005fc68     libcpmt:cout.obj
 0002:00000ca0       ??_7failure@ios_base@std@@6B@ 000000018005fca0     libcpmt:cout.obj
 0002:00000cb8       ??_7ios_base@std@@6B@      000000018005fcb8     libcpmt:cout.obj
 0002:00000cc8       ??_7?$basic_streambuf@DU?$char_traits@D@std@@@std@@6B@ 000000018005fcc8     libcpmt:cout.obj
 0002:00000d48       ??_7?$basic_filebuf@DU?$char_traits@D@std@@@std@@6B@ 000000018005fd48     libcpmt:cout.obj
 0002:00000dc8       ??_7?$basic_ios@DU?$char_traits@D@std@@@std@@6B@ 000000018005fdc8     libcpmt:cout.obj
 0002:00000dd8       ??_7?$basic_ostream@DU?$char_traits@D@std@@@std@@6B@ 000000018005fdd8     libcpmt:cout.obj
 0002:00000de0       ??_8?$basic_ostream@DU?$char_traits@D@std@@@std@@7B@ 000000018005fde0     libcpmt:cout.obj
 0002:00000df0       ??_7?$codecvt@DDU_Mbstatet@@@std@@6B@ 000000018005fdf0     libcpmt:cout.obj
 0002:00000f10       ??_7_Locimp@locale@std@@6B@ 000000018005ff10     libcpmt:locale0.obj
 0002:00000f28       ??_C@_01NBENCBCI@?$CK?$AA@ 000000018005ff28     libcpmt:locale0.obj
 0002:00000f2c       ??_C@_01GFHCPBMG@C?$AA@    000000018005ff2c     libcpmt:locale0.obj
 0002:00001690       ??_C@_0BN@LKKBCCDB@address?5family?5not?5supported?$AA@ 0000000180060690     libcpmt:syserror.obj
 0002:000016b0       ??_C@_0P@LDMLAFHI@address?5in?5use?$AA@ 00000001800606b0     libcpmt:syserror.obj
 0002:000016c0       ??_C@_0BG@DHPCNBJB@address?5not?5available?$AA@ 00000001800606c0     libcpmt:syserror.obj
 0002:000016d8       ??_C@_0BC@DFIBIBIL@already?5connected?$AA@ 00000001800606d8     libcpmt:syserror.obj
 0002:000016f0       ??_C@_0BH@CAKOHOMI@argument?5list?5too?5long?$AA@ 00000001800606f0     libcpmt:syserror.obj
 0002:00001708       ??_C@_0BH@CGIMPKIM@argument?5out?5of?5domain?$AA@ 0000000180060708     libcpmt:syserror.obj
 0002:00001720       ??_C@_0M@KGHGGJGL@bad?5address?$AA@ 0000000180060720     libcpmt:syserror.obj
 0002:00001730       ??_C@_0BE@MPJPGCEO@bad?5file?5descriptor?$AA@ 0000000180060730     libcpmt:syserror.obj
 0002:00001748       ??_C@_0M@PMMIEFCP@bad?5message?$AA@ 0000000180060748     libcpmt:syserror.obj
 0002:00001758       ??_C@_0M@KPHOFDBE@broken?5pipe?$AA@ 0000000180060758     libcpmt:syserror.obj
 0002:00001768       ??_C@_0BD@MGNDDEGM@connection?5aborted?$AA@ 0000000180060768     libcpmt:syserror.obj
 0002:00001780       ??_C@_0BP@KAIHPOGN@connection?5already?5in?5progress?$AA@ 0000000180060780     libcpmt:syserror.obj
 0002:000017a0       ??_C@_0BD@PJLIIJEL@connection?5refused?$AA@ 00000001800607a0     libcpmt:syserror.obj
 0002:000017b8       ??_C@_0BB@IECNJNOI@connection?5reset?$AA@ 00000001800607b8     libcpmt:syserror.obj
 0002:000017d0       ??_C@_0BC@PPHBOELF@cross?5device?5link?$AA@ 00000001800607d0     libcpmt:syserror.obj
 0002:000017e8       ??_C@_0BN@KDMIFEIP@destination?5address?5required?$AA@ 00000001800607e8     libcpmt:syserror.obj
 0002:00001808       ??_C@_0BE@JIDOCPHM@directory?5not?5empty?$AA@ 0000000180060808     libcpmt:syserror.obj
 0002:00001820       ??_C@_0BI@BNCLIGPB@executable?5format?5error?$AA@ 0000000180060820     libcpmt:syserror.obj
 0002:00001838       ??_C@_0M@MIDIAGJP@file?5exists?$AA@ 0000000180060838     libcpmt:syserror.obj
 0002:00001848       ??_C@_0P@DNAJLBJK@file?5too?5large?$AA@ 0000000180060848     libcpmt:syserror.obj
 0002:00001858       ??_C@_0BC@EJHOMAAK@filename?5too?5long?$AA@ 0000000180060858     libcpmt:syserror.obj
 0002:00001870       ??_C@_0BH@KEFGLDAF@function?5not?5supported?$AA@ 0000000180060870     libcpmt:syserror.obj
 0002:00001888       ??_C@_0BB@DHFDFGDM@host?5unreachable?$AA@ 0000000180060888     libcpmt:syserror.obj
 0002:000018a0       ??_C@_0BD@JPHBMONG@identifier?5removed?$AA@ 00000001800608a0     libcpmt:syserror.obj
 0002:000018b8       ??_C@_0BG@CDNPAGJK@illegal?5byte?5sequence?$AA@ 00000001800608b8     libcpmt:syserror.obj
 0002:000018d0       ??_C@_0CD@BNPLBMNA@inappropriate?5io?5control?5operati@ 00000001800608d0     libcpmt:syserror.obj
 0002:000018f8       ??_C@_0M@EGEKIIMP@interrupted?$AA@ 00000001800608f8     libcpmt:syserror.obj
 0002:00001908       ??_C@_0N@OHAFKDEK@invalid?5seek?$AA@ 0000000180060908     libcpmt:syserror.obj
 0002:00001918       ??_C@_08GLNPIFBN@io?5error?$AA@ 0000000180060918     libcpmt:syserror.obj
 0002:00001928       ??_C@_0P@FLLDBIDK@is?5a?5directory?$AA@ 0000000180060928     libcpmt:syserror.obj
 0002:00001938       ??_C@_0N@IFLPBIOP@message?5size?$AA@ 0000000180060938     libcpmt:syserror.obj
 0002:00001948       ??_C@_0N@KIIEAAIO@network?5down?$AA@ 0000000180060948     libcpmt:syserror.obj
 0002:00001958       ??_C@_0O@FNPDBHEE@network?5reset?$AA@ 0000000180060958     libcpmt:syserror.obj
 0002:00001968       ??_C@_0BE@IFNCKGE@network?5unreachable?$AA@ 0000000180060968     libcpmt:syserror.obj
 0002:00001980       ??_C@_0BA@PFFCAOFK@no?5buffer?5space?$AA@ 0000000180060980     libcpmt:syserror.obj
 0002:00001990       ??_C@_0BB@IEPBLJHK@no?5child?5process?$AA@ 0000000180060990     libcpmt:syserror.obj
 0002:000019a8       ??_C@_07PLECNNKG@no?5link?$AA@ 00000001800609a8     libcpmt:syserror.obj
 0002:000019b0       ??_C@_0BC@NJECKMKE@no?5lock?5available?$AA@ 00000001800609b0     libcpmt:syserror.obj
 0002:000019c8       ??_C@_0BF@PBGGPKKE@no?5message?5available?$AA@ 00000001800609c8     libcpmt:syserror.obj
 0002:000019e0       ??_C@_0L@EDOLMPAK@no?5message?$AA@ 00000001800609e0     libcpmt:syserror.obj
 0002:000019f0       ??_C@_0BD@EAMBFIDF@no?5protocol?5option?$AA@ 00000001800609f0     libcpmt:syserror.obj
 0002:00001a08       ??_C@_0BD@IJDJKDEA@no?5space?5on?5device?$AA@ 0000000180060a08     libcpmt:syserror.obj
 0002:00001a20       ??_C@_0BE@MKFDAFMP@no?5stream?5resources?$AA@ 0000000180060a20     libcpmt:syserror.obj
 0002:00001a38       ??_C@_0BK@IMCPHCBI@no?5such?5device?5or?5address?$AA@ 0000000180060a38     libcpmt:syserror.obj
 0002:00001a58       ??_C@_0P@FDINDDOK@no?5such?5device?$AA@ 0000000180060a58     libcpmt:syserror.obj
 0002:00001a68       ??_C@_0BK@NDOCBPGE@no?5such?5file?5or?5directory?$AA@ 0000000180060a68     libcpmt:syserror.obj
 0002:00001a88       ??_C@_0BA@DOCPFFJG@not?5a?5directory?$AA@ 0000000180060a88     libcpmt:syserror.obj
 0002:00001a98       ??_C@_0N@POEIPGGF@not?5a?5socket?$AA@ 0000000180060a98     libcpmt:syserror.obj
 0002:00001aa8       ??_C@_0N@LGAPMMPI@not?5a?5stream?$AA@ 0000000180060aa8     libcpmt:syserror.obj
 0002:00001ab8       ??_C@_0O@GLMIBBEG@not?5connected?$AA@ 0000000180060ab8     libcpmt:syserror.obj
 0002:00001ac8       ??_C@_0O@NHEDABJP@not?5supported?$AA@ 0000000180060ac8     libcpmt:syserror.obj
 0002:00001ad8       ??_C@_0BD@MOLBPMEA@operation?5canceled?$AA@ 0000000180060ad8     libcpmt:syserror.obj
 0002:00001af0       ??_C@_0BG@KDKHOPCO@operation?5in?5progress?$AA@ 0000000180060af0     libcpmt:syserror.obj
 0002:00001b08       ??_C@_0BI@LNEGIFLN@operation?5not?5supported?$AA@ 0000000180060b08     libcpmt:syserror.obj
 0002:00001b20       ??_C@_0BG@OEMDKMEE@operation?5would?5block?$AA@ 0000000180060b20     libcpmt:syserror.obj
 0002:00001b38       ??_C@_0L@BLPOFLNJ@owner?5dead?$AA@ 0000000180060b38     libcpmt:syserror.obj
 0002:00001b48       ??_C@_0BC@CIJDGCDI@permission?5denied?$AA@ 0000000180060b48     libcpmt:syserror.obj
 0002:00001b60       ??_C@_0P@FNPOCJBE@protocol?5error?$AA@ 0000000180060b60     libcpmt:syserror.obj
 0002:00001b70       ??_C@_0BH@JPPPLHJB@protocol?5not?5supported?$AA@ 0000000180060b70     libcpmt:syserror.obj
 0002:00001b88       ??_C@_0BG@EICBIHDP@read?5only?5file?5system?$AA@ 0000000180060b88     libcpmt:syserror.obj
 0002:00001ba0       ??_C@_0BE@GOIPJJHG@result?5out?5of?5range?$AA@ 0000000180060ba0     libcpmt:syserror.obj
 0002:00001bb8       ??_C@_0BG@MPLKFPAE@state?5not?5recoverable?$AA@ 0000000180060bb8     libcpmt:syserror.obj
 0002:00001bd0       ??_C@_0P@DIIFGFCG@stream?5timeout?$AA@ 0000000180060bd0     libcpmt:syserror.obj
 0002:00001be0       ??_C@_0P@IPFDMIFL@text?5file?5busy?$AA@ 0000000180060be0     libcpmt:syserror.obj
 0002:00001bf0       ??_C@_09KJPPMAOI@timed?5out?$AA@ 0000000180060bf0     libcpmt:syserror.obj
 0002:00001c00       ??_C@_0BO@HACHBEKI@too?5many?5files?5open?5in?5system?$AA@ 0000000180060c00     libcpmt:syserror.obj
 0002:00001c20       ??_C@_0BE@GHAFMPAH@too?5many?5files?5open?$AA@ 0000000180060c20     libcpmt:syserror.obj
 0002:00001c38       ??_C@_0P@HCOMKFCC@too?5many?5links?$AA@ 0000000180060c38     libcpmt:syserror.obj
 0002:00001c48       ??_C@_0BO@EFGOJEF@too?5many?5symbolic?5link?5levels?$AA@ 0000000180060c48     libcpmt:syserror.obj
 0002:00001c68       ??_C@_0BA@KGKGOOJA@value?5too?5large?$AA@ 0000000180060c68     libcpmt:syserror.obj
 0002:00001c78       ??_C@_0BE@MIEJDDNH@wrong?5protocol?5type?$AA@ 0000000180060c78     libcpmt:syserror.obj
 0002:00001c90       ??_C@_1BK@MGMFAEKH@?$AAk?$AAe?$AAr?$AAn?$AAe?$AAl?$AA3?$AA2?$AA?4?$AAd?$AAl?$AAl?$AA?$AA@ 0000000180060c90     libcpmt:winapisupp.obj
 0002:00001cb0       ??_C@_08KNHFBNJ@FlsAlloc?$AA@ 0000000180060cb0     libcpmt:winapisupp.obj
 0002:00001cc0       ??_C@_07PEJMOBNF@FlsFree?$AA@ 0000000180060cc0     libcpmt:winapisupp.obj
 0002:00001cc8       ??_C@_0M@GDNOONDI@FlsGetValue?$AA@ 0000000180060cc8     libcpmt:winapisupp.obj
 0002:00001cd8       ??_C@_0M@JCPCPOEF@FlsSetValue?$AA@ 0000000180060cd8     libcpmt:winapisupp.obj
 0002:00001ce8       ??_C@_0BM@HCFOFFN@InitializeCriticalSectionEx?$AA@ 0000000180060ce8     libcpmt:winapisupp.obj
 0002:00001d08       ??_C@_0BE@GPLMMCMH@InitOnceExecuteOnce?$AA@ 0000000180060d08     libcpmt:winapisupp.obj
 0002:00001d20       ??_C@_0P@DLHPPCNH@CreateEventExW?$AA@ 0000000180060d20     libcpmt:winapisupp.obj
 0002:00001d30       ??_C@_0BB@MEFPJLHN@CreateSemaphoreW?$AA@ 0000000180060d30     libcpmt:winapisupp.obj
 0002:00001d48       ??_C@_0BD@KIEEOEEH@CreateSemaphoreExW?$AA@ 0000000180060d48     libcpmt:winapisupp.obj
 0002:00001d60       ??_C@_0BG@OGFAJCKC@CreateThreadpoolTimer?$AA@ 0000000180060d60     libcpmt:winapisupp.obj
 0002:00001d78       ??_C@_0BD@LPLEMMDI@SetThreadpoolTimer?$AA@ 0000000180060d78     libcpmt:winapisupp.obj
 0002:00001d90       ??_C@_0CA@FMNJENH@WaitForThreadpoolTimerCallbacks?$AA@ 0000000180060d90     libcpmt:winapisupp.obj
 0002:00001db0       ??_C@_0BF@DCFCCNOC@CloseThreadpoolTimer?$AA@ 0000000180060db0     libcpmt:winapisupp.obj
 0002:00001dc8       ??_C@_0BF@FLABGKKM@CreateThreadpoolWait?$AA@ 0000000180060dc8     libcpmt:winapisupp.obj
 0002:00001de0       ??_C@_0BC@MGCOHNA@SetThreadpoolWait?$AA@ 0000000180060de0     libcpmt:winapisupp.obj
 0002:00001df8       ??_C@_0BE@OCIOMIMP@CloseThreadpoolWait?$AA@ 0000000180060df8     libcpmt:winapisupp.obj
 0002:00001e10       ??_C@_0BJ@LKGHFHBO@FlushProcessWriteBuffers?$AA@ 0000000180060e10     libcpmt:winapisupp.obj
 0002:00001e30       ??_C@_0BP@KALKKPMO@FreeLibraryWhenCallbackReturns?$AA@ 0000000180060e30     libcpmt:winapisupp.obj
 0002:00001e50       ??_C@_0BK@DFNBACLA@GetCurrentProcessorNumber?$AA@ 0000000180060e50     libcpmt:winapisupp.obj
 0002:00001e70       ??_C@_0BE@FKKLLFLM@CreateSymbolicLinkW?$AA@ 0000000180060e70     libcpmt:winapisupp.obj
 0002:00001e88       ??_C@_0BE@JOGNEJCI@GetCurrentPackageId?$AA@ 0000000180060e88     libcpmt:winapisupp.obj
 0002:00001ea0       ??_C@_0P@CDHHOHKP@GetTickCount64?$AA@ 0000000180060ea0     libcpmt:winapisupp.obj
 0002:00001eb0       ??_C@_0BN@NEEHBBPO@GetFileInformationByHandleEx?$AA@ 0000000180060eb0     libcpmt:winapisupp.obj
 0002:00001ed0       ??_C@_0BL@KBBHGKCM@SetFileInformationByHandle?$AA@ 0000000180060ed0     libcpmt:winapisupp.obj
 0002:00001ef0       ??_C@_0BP@FPNJPEJC@GetSystemTimePreciseAsFileTime?$AA@ 0000000180060ef0     libcpmt:winapisupp.obj
 0002:00001f10       ??_C@_0BM@HLJJNPAH@InitializeConditionVariable?$AA@ 0000000180060f10     libcpmt:winapisupp.obj
 0002:00001f30       ??_C@_0BG@BFNILBLN@WakeConditionVariable?$AA@ 0000000180060f30     libcpmt:winapisupp.obj
 0002:00001f48       ??_C@_0BJ@PGPPEPCC@WakeAllConditionVariable?$AA@ 0000000180060f48     libcpmt:winapisupp.obj
 0002:00001f68       ??_C@_0BJ@JEBJOJFJ@SleepConditionVariableCS?$AA@ 0000000180060f68     libcpmt:winapisupp.obj
 0002:00001f88       ??_C@_0BC@MMLHEBPB@InitializeSRWLock?$AA@ 0000000180060f88     libcpmt:winapisupp.obj
 0002:00001fa0       ??_C@_0BI@OMNLIJDB@AcquireSRWLockExclusive?$AA@ 0000000180060fa0     libcpmt:winapisupp.obj
 0002:00001fb8       ??_C@_0BL@OGHFEMNA@TryAcquireSRWLockExclusive?$AA@ 0000000180060fb8     libcpmt:winapisupp.obj
 0002:00001fd8       ??_C@_0BI@HMIEPCNJ@ReleaseSRWLockExclusive?$AA@ 0000000180060fd8     libcpmt:winapisupp.obj
 0002:00001ff0       ??_C@_0BK@LGACAGIC@SleepConditionVariableSRW?$AA@ 0000000180060ff0     libcpmt:winapisupp.obj
 0002:00002010       ??_C@_0BF@GGPHFPJA@CreateThreadpoolWork?$AA@ 0000000180061010     libcpmt:winapisupp.obj
 0002:00002028       ??_C@_0BF@NHDAIMMO@SubmitThreadpoolWork?$AA@ 0000000180061028     libcpmt:winapisupp.obj
 0002:00002040       ??_C@_0BE@NPHIPNPD@CloseThreadpoolWork?$AA@ 0000000180061040     libcpmt:winapisupp.obj
 0002:00002058       ??_C@_0BA@IHGNDAEB@CompareStringEx?$AA@ 0000000180061058     libcpmt:winapisupp.obj
 0002:00002068       ??_C@_0BA@ONOKGCMP@GetLocaleInfoEx?$AA@ 0000000180061068     libcpmt:winapisupp.obj
 0002:00002078       ??_C@_0O@KKBNKAPF@LCMapStringEx?$AA@ 0000000180061078     libcpmt:winapisupp.obj
 0002:00002088       ?_BADOFF@std@@3_JB         0000000180061088     libcpmt:ios.obj
 0002:000020c0       ??_7?$num_put@DV?$ostreambuf_iterator@DU?$char_traits@D@std@@@std@@@std@@6B@ 00000001800610c0     libcpmt:locale.obj
 0002:00002120       ??_7?$numpunct@D@std@@6B@  0000000180061120     libcpmt:locale.obj
 0002:00002160       __real@4024000000000000    0000000180061160     libcpmt:locale.obj
 0002:00002168       ??_C@_11LOCGONAA@?$AA?$AA@ 0000000180061168     libcpmt:wlocale.obj
 0002:0000216c       ??_C@_01JOAMLHOP@?9?$AA@   000000018006116c     libcpmt:wlocale.obj
 0002:00002170       __xmm@80000000000000008000000000000000 0000000180061170     libcpmt:wlocale.obj
 0002:00003ea0       ??_C@_15EMKDOKLE@?$AAa?$AAr?$AA?$AA@ 0000000180062ea0     libcpmt:winapinls.obj
 0002:00003ea8       ??_C@_15KNPADPLH@?$AAb?$AAg?$AA?$AA@ 0000000180062ea8     libcpmt:winapinls.obj
 0002:00003eb0       ??_C@_15EDMHLDMO@?$AAc?$AAa?$AA?$AA@ 0000000180062eb0     libcpmt:winapinls.obj
 0002:00003eb8       ??_C@_1O@BPEAJADD@?$AAz?$AAh?$AA?9?$AAC?$AAH?$AAS?$AA?$AA@ 0000000180062eb8     libcpmt:winapinls.obj
 0002:00003ec8       ??_C@_15LJNHCMNK@?$AAc?$AAs?$AA?$AA@ 0000000180062ec8     libcpmt:winapinls.obj
 0002:00003ed0       ??_C@_15FOMCIDHG@?$AAd?$AAa?$AA?$AA@ 0000000180062ed0     libcpmt:winapinls.obj
 0002:00003ed8       ??_C@_15NBKABECB@?$AAd?$AAe?$AA?$AA@ 0000000180062ed8     libcpmt:winapinls.obj
 0002:00003ee0       ??_C@_15GHPEIIAO@?$AAe?$AAl?$AA?$AA@ 0000000180062ee0     libcpmt:winapinls.obj
 0002:00003ee8       ??_C@_15MNPNEAIF@?$AAe?$AAn?$AA?$AA@ 0000000180062ee8     libcpmt:winapinls.obj
 0002:00003ef0       ??_C@_15GPIOMPMH@?$AAe?$AAs?$AA?$AA@ 0000000180062ef0     libcpmt:winapinls.obj
 0002:00003ef8       ??_C@_15NGLOAKJC@?$AAf?$AAi?$AA?$AA@ 0000000180062ef8     libcpmt:winapinls.obj
 0002:00003f00       ??_C@_15FBKGNKAM@?$AAf?$AAr?$AA?$AA@ 0000000180062f00     libcpmt:winapinls.obj
 0002:00003f08       ??_C@_15KGGCNEFK@?$AAh?$AAe?$AA?$AA@ 0000000180062f08     libcpmt:winapinls.obj
 0002:00003f10       ??_C@_15PGHLIDMF@?$AAh?$AAu?$AA?$AA@ 0000000180062f10     libcpmt:winapinls.obj
 0002:00003f18       ??_C@_15BIEMAPLM@?$AAi?$AAs?$AA?$AA@ 0000000180062f18     libcpmt:winapinls.obj
 0002:00003f20       ??_C@_15IFJLDHAF@?$AAi?$AAt?$AA?$AA@ 0000000180062f20     libcpmt:winapinls.obj
 0002:00003f28       ??_C@_15GEMIOCAG@?$AAj?$AAa?$AA?$AA@ 0000000180062f28     libcpmt:winapinls.obj
 0002:00003f30       ??_C@_15EPELEGJA@?$AAk?$AAo?$AA?$AA@ 0000000180062f30     libcpmt:winapinls.obj
 0002:00003f38       ??_C@_15NDDHIMN@?$AAn?$AAl?$AA?$AA@ 0000000180062f38     libcpmt:winapinls.obj
 0002:00003f40       ??_C@_15BPIGNHCD@?$AAn?$AAo?$AA?$AA@ 0000000180062f40     libcpmt:winapinls.obj
 0002:00003f48       ??_C@_15DEOPBLCG@?$AAp?$AAl?$AA?$AA@ 0000000180062f48     libcpmt:winapinls.obj
 0002:00003f50       ??_C@_15KBECGEFG@?$AAp?$AAt?$AA?$AA@ 0000000180062f50     libcpmt:winapinls.obj
 0002:00003f58       ??_C@_15GLJCBFMD@?$AAr?$AAo?$AA?$AA@ 0000000180062f58     libcpmt:winapinls.obj
 0002:00003f60       ??_C@_15FEDGKCDI@?$AAr?$AAu?$AA?$AA@ 0000000180062f60     libcpmt:winapinls.obj
 0002:00003f68       ??_C@_15GLKMLLHM@?$AAh?$AAr?$AA?$AA@ 0000000180062f68     libcpmt:winapinls.obj
 0002:00003f70       ??_C@_15CPKMFBDB@?$AAs?$AAk?$AA?$AA@ 0000000180062f70     libcpmt:winapinls.obj
 0002:00003f78       ??_C@_15BAAIOGMK@?$AAs?$AAq?$AA?$AA@ 0000000180062f78     libcpmt:winapinls.obj
 0002:00003f80       ??_C@_15INNPNOHD@?$AAs?$AAv?$AA?$AA@ 0000000180062f80     libcpmt:winapinls.obj
 0002:00003f88       ??_C@_15CABMMOGH@?$AAt?$AAh?$AA?$AA@ 0000000180062f88     libcpmt:winapinls.obj
 0002:00003f90       ??_C@_15BPLIHJJM@?$AAt?$AAr?$AA?$AA@ 0000000180062f90     libcpmt:winapinls.obj
 0002:00003f98       ??_C@_15NEOEKKDJ@?$AAu?$AAr?$AA?$AA@ 0000000180062f98     libcpmt:winapinls.obj
 0002:00003fa0       ??_C@_15NFICGAJK@?$AAi?$AAd?$AA?$AA@ 0000000180062fa0     libcpmt:winapinls.obj
 0002:00003fa8       ??_C@_15PJPFLCCM@?$AAu?$AAk?$AA?$AA@ 0000000180062fa8     libcpmt:winapinls.obj
 0002:00003fb0       ??_C@_15HPJPHDM@?$AAb?$AAe?$AA?$AA@ 0000000180062fb0     libcpmt:winapinls.obj
 0002:00003fb8       ??_C@_15LCHLGJII@?$AAs?$AAl?$AA?$AA@ 0000000180062fb8     libcpmt:winapinls.obj
 0002:00003fc0       ??_C@_15PCFJPHHO@?$AAe?$AAt?$AA?$AA@ 0000000180062fc0     libcpmt:winapinls.obj
 0002:00003fc8       ??_C@_15HPFPGODN@?$AAl?$AAv?$AA?$AA@ 0000000180062fc8     libcpmt:winapinls.obj
 0002:00003fd0       ??_C@_15NFFGKGLG@?$AAl?$AAt?$AA?$AA@ 0000000180062fd0     libcpmt:winapinls.obj
 0002:00003fd8       ??_C@_15BDAKCCHN@?$AAf?$AAa?$AA?$AA@ 0000000180062fd8     libcpmt:winapinls.obj
 0002:00003fe0       ??_C@_15NFGIAIAJ@?$AAv?$AAi?$AA?$AA@ 0000000180062fe0     libcpmt:winapinls.obj
 0002:00003fe8       ??_C@_15LMKNDMHN@?$AAh?$AAy?$AA?$AA@ 0000000180062fe8     libcpmt:winapinls.obj
 0002:00003ff0       ??_C@_15IJBHMCFL@?$AAa?$AAz?$AA?$AA@ 0000000180062ff0     libcpmt:winapinls.obj
 0002:00003ff8       ??_C@_15EKOFJABL@?$AAe?$AAu?$AA?$AA@ 0000000180062ff8     libcpmt:winapinls.obj
 0002:00004000       ??_C@_15BGHADCNK@?$AAm?$AAk?$AA?$AA@ 0000000180063000     libcpmt:winapinls.obj
 0002:00004008       ??_C@_15JDNICKHM@?$AAa?$AAf?$AA?$AA@ 0000000180063008     libcpmt:winapinls.obj
 0002:00004010       ??_C@_15KPJEDBKD@?$AAk?$AAa?$AA?$AA@ 0000000180063010     libcpmt:winapinls.obj
 0002:00004018       ??_C@_15PDNFFFEO@?$AAf?$AAo?$AA?$AA@ 0000000180063018     libcpmt:winapinls.obj
 0002:00004020       ??_C@_15OMLEGLOC@?$AAh?$AAi?$AA?$AA@ 0000000180063020     libcpmt:winapinls.obj
 0002:00004028       ??_C@_15IDNNENKK@?$AAm?$AAs?$AA?$AA@ 0000000180063028     libcpmt:winapinls.obj
 0002:00004030       ??_C@_15MACJNBMH@?$AAk?$AAk?$AA?$AA@ 0000000180063030     libcpmt:winapinls.obj
 0002:00004038       ??_C@_15DKDJEOND@?$AAk?$AAy?$AA?$AA@ 0000000180063038     libcpmt:winapinls.obj
 0002:00004040       ??_C@_15DFGDLJBG@?$AAs?$AAw?$AA?$AA@ 0000000180063040     libcpmt:winapinls.obj
 0002:00004048       ??_C@_15BBFAICNG@?$AAu?$AAz?$AA?$AA@ 0000000180063048     libcpmt:winapinls.obj
 0002:00004050       ??_C@_15DKNDCGEA@?$AAt?$AAt?$AA?$AA@ 0000000180063050     libcpmt:winapinls.obj
 0002:00004058       ??_C@_15MGIFMDPL@?$AAp?$AAa?$AA?$AA@ 0000000180063058     libcpmt:winapinls.obj
 0002:00004060       ??_C@_15HCNDBBA@?$AAg?$AAu?$AA?$AA@ 0000000180063060     libcpmt:winapinls.obj
 0002:00004068       ??_C@_15FNBEIBON@?$AAt?$AAa?$AA?$AA@ 0000000180063068     libcpmt:winapinls.obj
 0002:00004070       ??_C@_15NCHGBGLK@?$AAt?$AAe?$AA?$AA@ 0000000180063070     libcpmt:winapinls.obj
 0002:00004078       ??_C@_15PHPHCBPF@?$AAk?$AAn?$AA?$AA@ 0000000180063078     libcpmt:winapinls.obj
 0002:00004080       ??_C@_15DLGBCKMP@?$AAm?$AAr?$AA?$AA@ 0000000180063080     libcpmt:winapinls.obj
 0002:00004088       ??_C@_15EABBLBFF@?$AAs?$AAa?$AA?$AA@ 0000000180063088     libcpmt:winapinls.obj
 0002:00004090       ??_C@_15CBKOMCOI@?$AAm?$AAn?$AA?$AA@ 0000000180063090     libcpmt:winapinls.obj
 0002:00004098       ??_C@_15CKDMCJAF@?$AAg?$AAl?$AA?$AA@ 0000000180063098     libcpmt:winapinls.obj
 0002:000040a0       ??_C@_17CNJFBPG@?$AAk?$AAo?$AAk?$AA?$AA@ 00000001800630a0     libcpmt:winapinls.obj
 0002:000040a8       ??_C@_17FFBJICPL@?$AAs?$AAy?$AAr?$AA?$AA@ 00000001800630a8     libcpmt:winapinls.obj
 0002:000040b0       ??_C@_17KPNDCPAF@?$AAd?$AAi?$AAv?$AA?$AA@ 00000001800630b0     libcpmt:winapinls.obj
 0002:000040b8       ??_C@_1M@OKAHONE@?$AAa?$AAr?$AA?9?$AAS?$AAA?$AA?$AA@ 00000001800630b8     libcpmt:winapinls.obj
 0002:000040c8       ??_C@_1M@FFFIGIGK@?$AAb?$AAg?$AA?9?$AAB?$AAG?$AA?$AA@ 00000001800630c8     libcpmt:winapinls.obj
 0002:000040d8       ??_C@_1M@BJNKEDC@?$AAc?$AAa?$AA?9?$AAE?$AAS?$AA?$AA@ 00000001800630d8     libcpmt:winapinls.obj
 0002:000040e8       ??_C@_1M@CLNBBOPM@?$AAz?$AAh?$AA?9?$AAT?$AAW?$AA?$AA@ 00000001800630e8     libcpmt:winapinls.obj
 0002:000040f8       ??_C@_1M@IJJHFJHA@?$AAc?$AAs?$AA?9?$AAC?$AAZ?$AA?$AA@ 00000001800630f8     libcpmt:winapinls.obj
 0002:00004108       ??_C@_1M@CLPEOBGI@?$AAd?$AAa?$AA?9?$AAD?$AAK?$AA?$AA@ 0000000180063108     libcpmt:winapinls.obj
 0002:00004118       ??_C@_1M@MCMADGCB@?$AAd?$AAe?$AA?9?$AAD?$AAE?$AA?$AA@ 0000000180063118     libcpmt:winapinls.obj
 0002:00004128       ??_C@_1M@OOCKEMAM@?$AAe?$AAl?$AA?9?$AAG?$AAR?$AA?$AA@ 0000000180063128     libcpmt:winapinls.obj
 0002:00004138       ??_C@_1M@BMHNFIME@?$AAe?$AAn?$AA?9?$AAU?$AAS?$AA?$AA@ 0000000180063138     libcpmt:winapinls.obj
 0002:00004148       ??_C@_1M@DDNJFGID@?$AAf?$AAi?$AA?9?$AAF?$AAI?$AA?$AA@ 0000000180063148     libcpmt:winapinls.obj
 0002:00004158       ??_C@_1M@GLIPPMAC@?$AAf?$AAr?$AA?9?$AAF?$AAR?$AA?$AA@ 0000000180063158     libcpmt:winapinls.obj
 0002:00004168       ??_C@_1M@GFMCHPE@?$AAh?$AAe?$AA?9?$AAI?$AAL?$AA?$AA@ 0000000180063168     libcpmt:winapinls.obj
 0002:00004178       ??_C@_1M@MHLPGNKM@?$AAh?$AAu?$AA?9?$AAH?$AAU?$AA?$AA@ 0000000180063178     libcpmt:winapinls.obj
 0002:00004188       ??_C@_1M@LPDDNNPN@?$AAi?$AAs?$AA?9?$AAI?$AAS?$AA?$AA@ 0000000180063188     libcpmt:winapinls.obj
 0002:00004198       ??_C@_1M@MADIPODN@?$AAi?$AAt?$AA?9?$AAI?$AAT?$AA?$AA@ 0000000180063198     libcpmt:winapinls.obj
 0002:000041a8       ??_C@_1M@HPNHIDJI@?$AAj?$AAa?$AA?9?$AAJ?$AAP?$AA?$AA@ 00000001800631a8     libcpmt:winapinls.obj
 0002:000041b8       ??_C@_1M@JLOOOEGK@?$AAk?$AAo?$AA?9?$AAK?$AAR?$AA?$AA@ 00000001800631b8     libcpmt:winapinls.obj
 0002:000041c8       ??_C@_1M@IHBJJGG@?$AAn?$AAl?$AA?9?$AAN?$AAL?$AA?$AA@ 00000001800631c8     libcpmt:winapinls.obj
 0002:000041d8       ??_C@_1M@EANAGDL@?$AAn?$AAb?$AA?9?$AAN?$AAO?$AA?$AA@ 00000001800631d8     libcpmt:winapinls.obj
 0002:000041e8       ??_C@_1M@NEIEMEGP@?$AAp?$AAl?$AA?9?$AAP?$AAL?$AA?$AA@ 00000001800631e8     libcpmt:winapinls.obj
 0002:000041f8       ??_C@_1M@BOCFIGEP@?$AAp?$AAt?$AA?9?$AAB?$AAR?$AA?$AA@ 00000001800631f8     libcpmt:winapinls.obj
 0002:00004208       ??_C@_1M@IMPFOPBG@?$AAr?$AAo?$AA?9?$AAR?$AAO?$AA?$AA@ 0000000180063208     libcpmt:winapinls.obj
 0002:00004218       ??_C@_1M@IDNNEJMM@?$AAr?$AAu?$AA?9?$AAR?$AAU?$AA?$AA@ 0000000180063218     libcpmt:winapinls.obj
 0002:00004228       ??_C@_1M@LILEEOGM@?$AAh?$AAr?$AA?9?$AAH?$AAR?$AA?$AA@ 0000000180063228     libcpmt:winapinls.obj
 0002:00004238       ??_C@_1M@FKIFEHPB@?$AAs?$AAk?$AA?9?$AAS?$AAK?$AA?$AA@ 0000000180063238     libcpmt:winapinls.obj
 0002:00004248       ??_C@_1M@LJMAMNPJ@?$AAs?$AAq?$AA?9?$AAA?$AAL?$AA?$AA@ 0000000180063248     libcpmt:winapinls.obj
 0002:00004258       ??_C@_1M@GIAKDKJK@?$AAs?$AAv?$AA?9?$AAS?$AAE?$AA?$AA@ 0000000180063258     libcpmt:winapinls.obj
 0002:00004268       ??_C@_1M@MKJKIKCL@?$AAt?$AAh?$AA?9?$AAT?$AAH?$AA?$AA@ 0000000180063268     libcpmt:winapinls.obj
 0002:00004278       ??_C@_1M@MFLCCMPB@?$AAt?$AAr?$AA?9?$AAT?$AAR?$AA?$AA@ 0000000180063278     libcpmt:winapinls.obj
 0002:00004288       ??_C@_1M@OIJHDKJN@?$AAu?$AAr?$AA?9?$AAP?$AAK?$AA?$AA@ 0000000180063288     libcpmt:winapinls.obj
 0002:00004298       ??_C@_1M@LHIPCIEK@?$AAi?$AAd?$AA?9?$AAI?$AAD?$AA?$AA@ 0000000180063298     libcpmt:winapinls.obj
 0002:000042a8       ??_C@_1M@MFMOBGI@?$AAu?$AAk?$AA?9?$AAU?$AAA?$AA?$AA@ 00000001800632a8     libcpmt:winapinls.obj
 0002:000042b8       ??_C@_1M@OBGLJIPL@?$AAb?$AAe?$AA?9?$AAB?$AAY?$AA?$AA@ 00000001800632b8     libcpmt:winapinls.obj
 0002:000042c8       ??_C@_1M@BCFAJEAD@?$AAs?$AAl?$AA?9?$AAS?$AAI?$AA?$AA@ 00000001800632c8     libcpmt:winapinls.obj
 0002:000042d8       ??_C@_1M@FKFFEDDN@?$AAe?$AAt?$AA?9?$AAE?$AAE?$AA?$AA@ 00000001800632d8     libcpmt:winapinls.obj
 0002:000042e8       ??_C@_1M@KGKKAACI@?$AAl?$AAv?$AA?9?$AAL?$AAV?$AA?$AA@ 00000001800632e8     libcpmt:winapinls.obj
 0002:000042f8       ??_C@_1M@IFGBIJO@?$AAl?$AAt?$AA?9?$AAL?$AAT?$AA?$AA@ 00000001800632f8     libcpmt:winapinls.obj
 0002:00004308       ??_C@_1M@FGEAHEDM@?$AAf?$AAa?$AA?9?$AAI?$AAR?$AA?$AA@ 0000000180063308     libcpmt:winapinls.obj
 0002:00004318       ??_C@_1M@KBMAIBFN@?$AAv?$AAi?$AA?9?$AAV?$AAN?$AA?$AA@ 0000000180063318     libcpmt:winapinls.obj
 0002:00004328       ??_C@_1M@GPCBKDJK@?$AAh?$AAy?$AA?9?$AAA?$AAM?$AA?$AA@ 0000000180063328     libcpmt:winapinls.obj
 0002:00004338       ??_C@_1BG@BECMDDJB@?$AAa?$AAz?$AA?9?$AAA?$AAZ?$AA?9?$AAL?$AAa?$AAt?$AAn?$AA?$AA@ 0000000180063338     libcpmt:winapinls.obj
 0002:00004350       ??_C@_1M@MAOFCAEA@?$AAe?$AAu?$AA?9?$AAE?$AAS?$AA?$AA@ 0000000180063350     libcpmt:winapinls.obj
 0002:00004360       ??_C@_1M@IGHABKPI@?$AAm?$AAk?$AA?9?$AAM?$AAK?$AA?$AA@ 0000000180063360     libcpmt:winapinls.obj
 0002:00004370       ??_C@_1M@IAIGNEJG@?$AAt?$AAn?$AA?9?$AAZ?$AAA?$AA?$AA@ 0000000180063370     libcpmt:winapinls.obj
 0002:00004380       ??_C@_1M@IIJCOJFA@?$AAx?$AAh?$AA?9?$AAZ?$AAA?$AA?$AA@ 0000000180063380     libcpmt:winapinls.obj
 0002:00004390       ??_C@_1M@LGPJHNJH@?$AAz?$AAu?$AA?9?$AAZ?$AAA?$AA?$AA@ 0000000180063390     libcpmt:winapinls.obj
 0002:000043a0       ??_C@_1M@HOKAOIO@?$AAa?$AAf?$AA?9?$AAZ?$AAA?$AA?$AA@ 00000001800633a0     libcpmt:winapinls.obj
 0002:000043b0       ??_C@_1M@DPCLHLIE@?$AAk?$AAa?$AA?9?$AAG?$AAE?$AA?$AA@ 00000001800633b0     libcpmt:winapinls.obj
 0002:000043c0       ??_C@_1M@BLKMHJBI@?$AAf?$AAo?$AA?9?$AAF?$AAO?$AA?$AA@ 00000001800633c0     libcpmt:winapinls.obj
 0002:000043d0       ??_C@_1M@LGGJAPPB@?$AAh?$AAi?$AA?9?$AAI?$AAN?$AA?$AA@ 00000001800633d0     libcpmt:winapinls.obj
 0002:000043e0       ??_C@_1M@FIKPIHFE@?$AAm?$AAt?$AA?9?$AAM?$AAT?$AA?$AA@ 00000001800633e0     libcpmt:winapinls.obj
 0002:000043f0       ??_C@_1M@HEGGPBFA@?$AAs?$AAe?$AA?9?$AAN?$AAO?$AA?$AA@ 00000001800633f0     libcpmt:winapinls.obj
 0002:00004400       ??_C@_1M@EIBJEEPA@?$AAm?$AAs?$AA?9?$AAM?$AAY?$AA?$AA@ 0000000180063400     libcpmt:winapinls.obj
 0002:00004410       ??_C@_1M@FHLBGMPP@?$AAk?$AAk?$AA?9?$AAK?$AAZ?$AA?$AA@ 0000000180063410     libcpmt:winapinls.obj
 0002:00004420       ??_C@_1M@NGJJLCGI@?$AAk?$AAy?$AA?9?$AAK?$AAG?$AA?$AA@ 0000000180063420     libcpmt:winapinls.obj
 0002:00004430       ??_C@_1M@GIENNBFC@?$AAs?$AAw?$AA?9?$AAK?$AAE?$AA?$AA@ 0000000180063430     libcpmt:winapinls.obj
 0002:00004440       ??_C@_1BG@NDGMJIMJ@?$AAu?$AAz?$AA?9?$AAU?$AAZ?$AA?9?$AAL?$AAa?$AAt?$AAn?$AA?$AA@ 0000000180063440     libcpmt:winapinls.obj
 0002:00004458       ??_C@_1M@IDCCIHBC@?$AAt?$AAt?$AA?9?$AAR?$AAU?$AA?$AA@ 0000000180063458     libcpmt:winapinls.obj
 0002:00004468       ??_C@_1M@LOICPMOJ@?$AAb?$AAn?$AA?9?$AAI?$AAN?$AA?$AA@ 0000000180063468     libcpmt:winapinls.obj
 0002:00004478       ??_C@_1M@KPKKNEAH@?$AAp?$AAa?$AA?9?$AAI?$AAN?$AA?$AA@ 0000000180063478     libcpmt:winapinls.obj
 0002:00004488       ??_C@_1M@PJGPPBOG@?$AAg?$AAu?$AA?9?$AAI?$AAN?$AA?$AA@ 0000000180063488     libcpmt:winapinls.obj
 0002:00004498       ??_C@_1M@KMKMOPHI@?$AAt?$AAa?$AA?9?$AAI?$AAN?$AA?$AA@ 0000000180063498     libcpmt:winapinls.obj
 0002:000044a8       ??_C@_1M@KFEHEPAC@?$AAt?$AAe?$AA?9?$AAI?$AAN?$AA?$AA@ 00000001800634a8     libcpmt:winapinls.obj
 0002:000044b8       ??_C@_1M@CDCLMGHI@?$AAk?$AAn?$AA?9?$AAI?$AAN?$AA?$AA@ 00000001800634b8     libcpmt:winapinls.obj
 0002:000044c8       ??_C@_1M@MIODLDKF@?$AAm?$AAl?$AA?9?$AAI?$AAN?$AA?$AA@ 00000001800634c8     libcpmt:winapinls.obj
 0002:000044d8       ??_C@_1M@PBIEACPO@?$AAm?$AAr?$AA?9?$AAI?$AAN?$AA?$AA@ 00000001800634d8     libcpmt:winapinls.obj
 0002:000044e8       ??_C@_1M@NIDEAGPH@?$AAs?$AAa?$AA?9?$AAI?$AAN?$AA?$AA@ 00000001800634e8     libcpmt:winapinls.obj
 0002:000044f8       ??_C@_1M@FHIHCBIO@?$AAm?$AAn?$AA?9?$AAM?$AAN?$AA?$AA@ 00000001800634f8     libcpmt:winapinls.obj
 0002:00004508       ??_C@_1M@JAIJPENP@?$AAc?$AAy?$AA?9?$AAG?$AAB?$AA?$AA@ 0000000180063508     libcpmt:winapinls.obj
 0002:00004518       ??_C@_1M@PHGFBEPN@?$AAg?$AAl?$AA?9?$AAE?$AAS?$AA?$AA@ 0000000180063518     libcpmt:winapinls.obj
 0002:00004528       ??_C@_1O@KPIPDNCP@?$AAk?$AAo?$AAk?$AA?9?$AAI?$AAN?$AA?$AA@ 0000000180063528     libcpmt:winapinls.obj
 0002:00004538       ??_C@_1O@KNHJLDJA@?$AAs?$AAy?$AAr?$AA?9?$AAS?$AAY?$AA?$AA@ 0000000180063538     libcpmt:winapinls.obj
 0002:00004548       ??_C@_1O@MKEKBLAH@?$AAd?$AAi?$AAv?$AA?9?$AAM?$AAV?$AA?$AA@ 0000000180063548     libcpmt:winapinls.obj
 0002:00004558       ??_C@_1O@OHDCKDDF@?$AAq?$AAu?$AAz?$AA?9?$AAB?$AAO?$AA?$AA@ 0000000180063558     libcpmt:winapinls.obj
 0002:00004568       ??_C@_1M@LEPJNLFD@?$AAn?$AAs?$AA?9?$AAZ?$AAA?$AA?$AA@ 0000000180063568     libcpmt:winapinls.obj
 0002:00004578       ??_C@_1M@OMLEIIJB@?$AAm?$AAi?$AA?9?$AAN?$AAZ?$AA?$AA@ 0000000180063578     libcpmt:winapinls.obj
 0002:00004588       ??_C@_1M@PMPEAILG@?$AAa?$AAr?$AA?9?$AAI?$AAQ?$AA?$AA@ 0000000180063588     libcpmt:winapinls.obj
 0002:00004598       ??_C@_1M@BIBDDEMK@?$AAz?$AAh?$AA?9?$AAC?$AAN?$AA?$AA@ 0000000180063598     libcpmt:winapinls.obj
 0002:000045a8       ??_C@_1M@CNKPNOEE@?$AAd?$AAe?$AA?9?$AAC?$AAH?$AA?$AA@ 00000001800635a8     libcpmt:winapinls.obj
 0002:000045b8       ??_C@_1M@LKMGMLKO@?$AAe?$AAn?$AA?9?$AAG?$AAB?$AA?$AA@ 00000001800635b8     libcpmt:winapinls.obj
 0002:000045c8       ??_C@_1M@PGKJFFGL@?$AAe?$AAs?$AA?9?$AAM?$AAX?$AA?$AA@ 00000001800635c8     libcpmt:winapinls.obj
 0002:000045d8       ??_C@_1M@DNNANBDC@?$AAf?$AAr?$AA?9?$AAB?$AAE?$AA?$AA@ 00000001800635d8     libcpmt:winapinls.obj
 0002:000045e8       ??_C@_1M@HLGMDFHM@?$AAi?$AAt?$AA?9?$AAC?$AAH?$AA?$AA@ 00000001800635e8     libcpmt:winapinls.obj
 0002:000045f8       ??_C@_1M@CLLBGJH@?$AAn?$AAl?$AA?9?$AAB?$AAE?$AA?$AA@ 00000001800635f8     libcpmt:winapinls.obj
 0002:00004608       ??_C@_1M@BODBOGLF@?$AAn?$AAn?$AA?9?$AAN?$AAO?$AA?$AA@ 0000000180063608     libcpmt:winapinls.obj
 0002:00004618       ??_C@_1M@HFFAHKAD@?$AAp?$AAt?$AA?9?$AAP?$AAT?$AA?$AA@ 0000000180063618     libcpmt:winapinls.obj
 0002:00004628       ??_C@_1BG@LNOAKHIE@?$AAs?$AAr?$AA?9?$AAS?$AAP?$AA?9?$AAL?$AAa?$AAt?$AAn?$AA?$AA@ 0000000180063628     libcpmt:winapinls.obj
 0002:00004640       ??_C@_1M@HBMHBGAK@?$AAs?$AAv?$AA?9?$AAF?$AAI?$AA?$AA@ 0000000180063640     libcpmt:winapinls.obj
 0002:00004650       ??_C@_1BG@DGCJGJBE@?$AAa?$AAz?$AA?9?$AAA?$AAZ?$AA?9?$AAC?$AAy?$AAr?$AAl?$AA?$AA@ 0000000180063650     libcpmt:winapinls.obj
 0002:00004668       ??_C@_1M@KEJDAAHB@?$AAs?$AAe?$AA?9?$AAS?$AAE?$AA?$AA@ 0000000180063668     libcpmt:winapinls.obj
 0002:00004678       ??_C@_1M@HEIBJJAD@?$AAm?$AAs?$AA?9?$AAB?$AAN?$AA?$AA@ 0000000180063678     libcpmt:winapinls.obj
 0002:00004688       ??_C@_1BG@PBGJMCEM@?$AAu?$AAz?$AA?9?$AAU?$AAZ?$AA?9?$AAC?$AAy?$AAr?$AAl?$AA?$AA@ 0000000180063688     libcpmt:winapinls.obj
 0002:000046a0       ??_C@_1O@LAOBCMDF@?$AAq?$AAu?$AAz?$AA?9?$AAE?$AAC?$AA?$AA@ 00000001800636a0     libcpmt:winapinls.obj
 0002:000046b0       ??_C@_1M@POEEMAIO@?$AAa?$AAr?$AA?9?$AAE?$AAG?$AA?$AA@ 00000001800636b0     libcpmt:winapinls.obj
 0002:000046c0       ??_C@_1M@EFAKDEDL@?$AAz?$AAh?$AA?9?$AAH?$AAK?$AA?$AA@ 00000001800636c0     libcpmt:winapinls.obj
 0002:000046d0       ??_C@_1M@HKKIJHGI@?$AAd?$AAe?$AA?9?$AAA?$AAT?$AA?$AA@ 00000001800636d0     libcpmt:winapinls.obj
 0002:000046e0       ??_C@_1M@KBFBEHJF@?$AAe?$AAn?$AA?9?$AAA?$AAU?$AA?$AA@ 00000001800636e0     libcpmt:winapinls.obj
 0002:000046f0       ??_C@_1M@MNPLFAAH@?$AAe?$AAs?$AA?9?$AAE?$AAS?$AA?$AA@ 00000001800636f0     libcpmt:winapinls.obj
 0002:00004700       ??_C@_1M@HJOOJFMA@?$AAf?$AAr?$AA?9?$AAC?$AAA?$AA?$AA@ 0000000180063700     libcpmt:winapinls.obj
 0002:00004710       ??_C@_1BG@JPOFPNAB@?$AAs?$AAr?$AA?9?$AAS?$AAP?$AA?9?$AAC?$AAy?$AAr?$AAl?$AA?$AA@ 0000000180063710     libcpmt:winapinls.obj
 0002:00004728       ??_C@_1M@LNFOCMOB@?$AAs?$AAe?$AA?9?$AAF?$AAI?$AA?$AA@ 0000000180063728     libcpmt:winapinls.obj
 0002:00004738       ??_C@_1O@MGJBOAMB@?$AAq?$AAu?$AAz?$AA?9?$AAP?$AAE?$AA?$AA@ 0000000180063738     libcpmt:winapinls.obj
 0002:00004748       ??_C@_1M@GJINLBOK@?$AAa?$AAr?$AA?9?$AAL?$AAY?$AA?$AA@ 0000000180063748     libcpmt:winapinls.obj
 0002:00004758       ??_C@_1M@GGMNHJNL@?$AAz?$AAh?$AA?9?$AAS?$AAG?$AA?$AA@ 0000000180063758     libcpmt:winapinls.obj
 0002:00004768       ??_C@_1M@HOIKODND@?$AAd?$AAe?$AA?9?$AAL?$AAU?$AA?$AA@ 0000000180063768     libcpmt:winapinls.obj
 0002:00004778       ??_C@_1M@DDOCCGFG@?$AAe?$AAn?$AA?9?$AAC?$AAA?$AA?$AA@ 0000000180063778     libcpmt:winapinls.obj
 0002:00004788       ??_C@_1M@BNOEMJLF@?$AAe?$AAs?$AA?9?$AAG?$AAT?$AA?$AA@ 0000000180063788     libcpmt:winapinls.obj
 0002:00004798       ??_C@_1M@EOGNKEK@?$AAf?$AAr?$AA?9?$AAC?$AAH?$AA?$AA@ 0000000180063798     libcpmt:winapinls.obj
 0002:000047a8       ??_C@_1M@FLIDJFHL@?$AAh?$AAr?$AA?9?$AAB?$AAA?$AA?$AA@ 00000001800637a8     libcpmt:winapinls.obj
 0002:000047b8       ??_C@_1O@FMCELNAJ@?$AAs?$AAm?$AAj?$AA?9?$AAN?$AAO?$AA?$AA@ 00000001800637b8     libcpmt:winapinls.obj
 0002:000047c8       ??_C@_1M@JHGLJMGJ@?$AAa?$AAr?$AA?9?$AAD?$AAZ?$AA?$AA@ 00000001800637c8     libcpmt:winapinls.obj
 0002:000047d8       ??_C@_1M@JKKFDCNP@?$AAz?$AAh?$AA?9?$AAM?$AAO?$AA?$AA@ 00000001800637d8     libcpmt:winapinls.obj
 0002:000047e8       ??_C@_1M@GEEFALPE@?$AAd?$AAe?$AA?9?$AAL?$AAI?$AA?$AA@ 00000001800637e8     libcpmt:winapinls.obj
 0002:000047f8       ??_C@_1M@IGEOFBG@?$AAe?$AAn?$AA?9?$AAN?$AAZ?$AA?$AA@ 00000001800637f8     libcpmt:winapinls.obj
 0002:00004808       ??_C@_1M@KDBONEHP@?$AAe?$AAs?$AA?9?$AAC?$AAR?$AA?$AA@ 0000000180063808     libcpmt:winapinls.obj
 0002:00004818       ??_C@_1M@FHMDOHNN@?$AAf?$AAr?$AA?9?$AAL?$AAU?$AA?$AA@ 0000000180063818     libcpmt:winapinls.obj
 0002:00004828       ??_C@_1BG@NFKKMAFG@?$AAb?$AAs?$AA?9?$AAB?$AAA?$AA?9?$AAL?$AAa?$AAt?$AAn?$AA?$AA@ 0000000180063828     libcpmt:winapinls.obj
 0002:00004840       ??_C@_1O@IMNBEMCI@?$AAs?$AAm?$AAj?$AA?9?$AAS?$AAE?$AA?$AA@ 0000000180063840     libcpmt:winapinls.obj
 0002:00004850       ??_C@_1M@DHHMBNDP@?$AAa?$AAr?$AA?9?$AAM?$AAA?$AA?$AA@ 0000000180063850     libcpmt:winapinls.obj
 0002:00004860       ??_C@_1M@BNBLJCGH@?$AAe?$AAn?$AA?9?$AAI?$AAE?$AA?$AA@ 0000000180063860     libcpmt:winapinls.obj
 0002:00004870       ??_C@_1M@GEPAFMDL@?$AAe?$AAs?$AA?9?$AAP?$AAA?$AA?$AA@ 0000000180063870     libcpmt:winapinls.obj
 0002:00004880       ??_C@_1M@OJONDMDL@?$AAf?$AAr?$AA?9?$AAM?$AAC?$AA?$AA@ 0000000180063880     libcpmt:winapinls.obj
 0002:00004890       ??_C@_1BG@OBCNFJB@?$AAs?$AAr?$AA?9?$AAB?$AAA?$AA?9?$AAL?$AAa?$AAt?$AAn?$AA?$AA@ 0000000180063890     libcpmt:winapinls.obj
 0002:000048a8       ??_C@_1O@KEMEEGPO@?$AAs?$AAm?$AAa?$AA?9?$AAN?$AAO?$AA?$AA@ 00000001800638a8     libcpmt:winapinls.obj
 0002:000048b8       ??_C@_1M@ELMGFODK@?$AAa?$AAr?$AA?9?$AAT?$AAN?$AA?$AA@ 00000001800638b8     libcpmt:winapinls.obj
 0002:000048c8       ??_C@_1M@BHDLHFAF@?$AAe?$AAn?$AA?9?$AAZ?$AAA?$AA?$AA@ 00000001800638c8     libcpmt:winapinls.obj
 0002:000048d8       ??_C@_1M@BMGIGLIF@?$AAe?$AAs?$AA?9?$AAD?$AAO?$AA?$AA@ 00000001800638d8     libcpmt:winapinls.obj
 0002:000048e8       ??_C@_1BG@CMBHIPBE@?$AAs?$AAr?$AA?9?$AAB?$AAA?$AA?9?$AAC?$AAy?$AAr?$AAl?$AA?$AA@ 00000001800638e8     libcpmt:winapinls.obj
 0002:00004900       ??_C@_1O@HEDBLHNP@?$AAs?$AAm?$AAa?$AA?9?$AAS?$AAE?$AA?$AA@ 0000000180063900     libcpmt:winapinls.obj
 0002:00004910       ??_C@_1M@DAGCADIM@?$AAa?$AAr?$AA?9?$AAO?$AAM?$AA?$AA@ 0000000180063910     libcpmt:winapinls.obj
 0002:00004920       ??_C@_1M@FODLMICG@?$AAe?$AAn?$AA?9?$AAJ?$AAM?$AA?$AA@ 0000000180063920     libcpmt:winapinls.obj
 0002:00004930       ??_C@_1M@DNMLCIHB@?$AAe?$AAs?$AA?9?$AAV?$AAE?$AA?$AA@ 0000000180063930     libcpmt:winapinls.obj
 0002:00004940       ??_C@_1O@EOKHMKJK@?$AAs?$AAm?$AAs?$AA?9?$AAF?$AAI?$AA?$AA@ 0000000180063940     libcpmt:winapinls.obj
 0002:00004950       ??_C@_1M@CAFJMKOF@?$AAa?$AAr?$AA?9?$AAY?$AAE?$AA?$AA@ 0000000180063950     libcpmt:winapinls.obj
 0002:00004960       ??_C@_1M@CBFHIJLI@?$AAe?$AAn?$AA?9?$AAC?$AAB?$AA?$AA@ 0000000180063960     libcpmt:winapinls.obj
 0002:00004970       ??_C@_1M@BGNFLDN@?$AAe?$AAs?$AA?9?$AAC?$AAO?$AA?$AA@ 0000000180063970     libcpmt:winapinls.obj
 0002:00004980       ??_C@_1O@JMPHMAMC@?$AAs?$AAm?$AAn?$AA?9?$AAF?$AAI?$AA?$AA@ 0000000180063980     libcpmt:winapinls.obj
 0002:00004990       ??_C@_1M@JLANABKE@?$AAa?$AAr?$AA?9?$AAS?$AAY?$AA?$AA@ 0000000180063990     libcpmt:winapinls.obj
 0002:000049a0       ??_C@_1M@HPKGCFGN@?$AAe?$AAn?$AA?9?$AAB?$AAZ?$AA?$AA@ 00000001800639a0     libcpmt:winapinls.obj
 0002:000049b0       ??_C@_1M@OLJCMLGM@?$AAe?$AAs?$AA?9?$AAP?$AAE?$AA?$AA@ 00000001800639b0     libcpmt:winapinls.obj
 0002:000049c0       ??_C@_1M@MKKGFKLE@?$AAa?$AAr?$AA?9?$AAJ?$AAO?$AA?$AA@ 00000001800639c0     libcpmt:winapinls.obj
 0002:000049d0       ??_C@_1M@EKPGLDNI@?$AAe?$AAn?$AA?9?$AAT?$AAT?$AA?$AA@ 00000001800639d0     libcpmt:winapinls.obj
 0002:000049e0       ??_C@_1M@OONGHFHE@?$AAe?$AAs?$AA?9?$AAA?$AAR?$AA?$AA@ 00000001800639e0     libcpmt:winapinls.obj
 0002:000049f0       ??_C@_1M@OOJFGBHE@?$AAa?$AAr?$AA?9?$AAL?$AAB?$AA?$AA@ 00000001800639f0     libcpmt:winapinls.obj
 0002:00004a00       ??_C@_1M@GCEJHNEG@?$AAe?$AAn?$AA?9?$AAZ?$AAW?$AA?$AA@ 0000000180063a00     libcpmt:winapinls.obj
 0002:00004a10       ??_C@_1M@JNOCAHJI@?$AAe?$AAs?$AA?9?$AAE?$AAC?$AA?$AA@ 0000000180063a10     libcpmt:winapinls.obj
 0002:00004a20       ??_C@_1M@JEFHPGGB@?$AAa?$AAr?$AA?9?$AAK?$AAW?$AA?$AA@ 0000000180063a20     libcpmt:winapinls.obj
 0002:00004a30       ??_C@_1M@MLKIBJOJ@?$AAe?$AAn?$AA?9?$AAP?$AAH?$AA?$AA@ 0000000180063a30     libcpmt:winapinls.obj
 0002:00004a40       ??_C@_1M@BDNIPEND@?$AAe?$AAs?$AA?9?$AAC?$AAL?$AA?$AA@ 0000000180063a40     libcpmt:winapinls.obj
 0002:00004a50       ??_C@_1M@MPNMEKBD@?$AAa?$AAr?$AA?9?$AAA?$AAE?$AA?$AA@ 0000000180063a50     libcpmt:winapinls.obj
 0002:00004a60       ??_C@_1M@KBJALCPI@?$AAe?$AAs?$AA?9?$AAU?$AAY?$AA?$AA@ 0000000180063a60     libcpmt:winapinls.obj
 0002:00004a70       ??_C@_1M@LLCCOAGA@?$AAa?$AAr?$AA?9?$AAB?$AAH?$AA?$AA@ 0000000180063a70     libcpmt:winapinls.obj
 0002:00004a80       ??_C@_1M@PBFNCDEL@?$AAe?$AAs?$AA?9?$AAP?$AAY?$AA?$AA@ 0000000180063a80     libcpmt:winapinls.obj
 0002:00004a90       ??_C@_1M@EDGINPNP@?$AAa?$AAr?$AA?9?$AAQ?$AAA?$AA?$AA@ 0000000180063a90     libcpmt:winapinls.obj
 0002:00004aa0       ??_C@_1M@MKDBIIJI@?$AAe?$AAs?$AA?9?$AAB?$AAO?$AA?$AA@ 0000000180063aa0     libcpmt:winapinls.obj
 0002:00004ab0       ??_C@_1M@CPKKEBLD@?$AAe?$AAs?$AA?9?$AAS?$AAV?$AA?$AA@ 0000000180063ab0     libcpmt:winapinls.obj
 0002:00004ac0       ??_C@_1M@NDBGMMJL@?$AAe?$AAs?$AA?9?$AAH?$AAN?$AA?$AA@ 0000000180063ac0     libcpmt:winapinls.obj
 0002:00004ad0       ??_C@_1M@JIJIBHDP@?$AAe?$AAs?$AA?9?$AAN?$AAI?$AA?$AA@ 0000000180063ad0     libcpmt:winapinls.obj
 0002:00004ae0       ??_C@_1M@CGFMKEEK@?$AAe?$AAs?$AA?9?$AAP?$AAR?$AA?$AA@ 0000000180063ae0     libcpmt:winapinls.obj
 0002:00004af0       ??_C@_1O@ICJHKIIK@?$AAz?$AAh?$AA?9?$AAC?$AAH?$AAT?$AA?$AA@ 0000000180063af0     libcpmt:winapinls.obj
 0002:00004b00       ??_C@_15CLNEJCE@?$AAs?$AAr?$AA?$AA@ 0000000180063b00     libcpmt:winapinls.obj
 0002:00004b08       ??_C@_1M@KAHEKEIG@?$AAa?$AAf?$AA?9?$AAz?$AAa?$AA?$AA@ 0000000180063b08     libcpmt:winapinls.obj
 0002:00004b18       ??_C@_1M@GIECOABL@?$AAa?$AAr?$AA?9?$AAa?$AAe?$AA?$AA@ 0000000180063b18     libcpmt:winapinls.obj
 0002:00004b28       ??_C@_1M@BMLMEKGI@?$AAa?$AAr?$AA?9?$AAb?$AAh?$AA?$AA@ 0000000180063b28     libcpmt:winapinls.obj
 0002:00004b38       ??_C@_1M@DAPFDGGB@?$AAa?$AAr?$AA?9?$AAd?$AAz?$AA?$AA@ 0000000180063b38     libcpmt:winapinls.obj
 0002:00004b48       ??_C@_1M@FJNKGKIG@?$AAa?$AAr?$AA?9?$AAe?$AAg?$AA?$AA@ 0000000180063b48     libcpmt:winapinls.obj
 0002:00004b58       ??_C@_1M@FLGKKCLO@?$AAa?$AAr?$AA?9?$AAi?$AAq?$AA?$AA@ 0000000180063b58     libcpmt:winapinls.obj
 0002:00004b68       ??_C@_1M@GNDIPALM@?$AAa?$AAr?$AA?9?$AAj?$AAo?$AA?$AA@ 0000000180063b68     libcpmt:winapinls.obj
 0002:00004b78       ??_C@_1M@DDMJFMGJ@?$AAa?$AAr?$AA?9?$AAk?$AAw?$AA?$AA@ 0000000180063b78     libcpmt:winapinls.obj
 0002:00004b88       ??_C@_1M@EJALMLHM@?$AAa?$AAr?$AA?9?$AAl?$AAb?$AA?$AA@ 0000000180063b88     libcpmt:winapinls.obj
 0002:00004b98       ??_C@_1M@MOBDBLOC@?$AAa?$AAr?$AA?9?$AAl?$AAy?$AA?$AA@ 0000000180063b98     libcpmt:winapinls.obj
 0002:00004ba8       ??_C@_1M@JAOCLHDH@?$AAa?$AAr?$AA?9?$AAm?$AAa?$AA?$AA@ 0000000180063ba8     libcpmt:winapinls.obj
 0002:00004bb8       ??_C@_1M@JHPMKJIE@?$AAa?$AAr?$AA?9?$AAo?$AAm?$AA?$AA@ 0000000180063bb8     libcpmt:winapinls.obj
 0002:00004bc8       ??_C@_1M@OEPGHFNH@?$AAa?$AAr?$AA?9?$AAq?$AAa?$AA?$AA@ 0000000180063bc8     libcpmt:winapinls.obj
 0002:00004bd8       ??_C@_1M@KJDONENM@?$AAa?$AAr?$AA?9?$AAs?$AAa?$AA?$AA@ 0000000180063bd8     libcpmt:winapinls.obj
 0002:00004be8       ??_C@_1M@DMJDKLKM@?$AAa?$AAr?$AA?9?$AAs?$AAy?$AA?$AA@ 0000000180063be8     libcpmt:winapinls.obj
 0002:00004bf8       ??_C@_1M@OMFIPEDC@?$AAa?$AAr?$AA?9?$AAt?$AAn?$AA?$AA@ 0000000180063bf8     libcpmt:winapinls.obj
 0002:00004c08       ??_C@_1M@IHMHGAON@?$AAa?$AAr?$AA?9?$AAy?$AAe?$AA?$AA@ 0000000180063c08     libcpmt:winapinls.obj
 0002:00004c18       ??_C@_1BG@KDCPGJGB@?$AAa?$AAz?$AA?9?$AAa?$AAz?$AA?9?$AAc?$AAy?$AAr?$AAl?$AA?$AA@ 0000000180063c18     libcpmt:winapinls.obj
 0002:00004c30       ??_C@_1BG@IBCKDDOE@?$AAa?$AAz?$AA?9?$AAa?$AAz?$AA?9?$AAl?$AAa?$AAt?$AAn?$AA?$AA@ 0000000180063c30     libcpmt:winapinls.obj
 0002:00004c48       ??_C@_1M@EGPFDCPD@?$AAb?$AAe?$AA?9?$AAb?$AAy?$AA?$AA@ 0000000180063c48     libcpmt:winapinls.obj
 0002:00004c58       ??_C@_1M@PCMGMCGC@?$AAb?$AAg?$AA?9?$AAb?$AAg?$AA?$AA@ 0000000180063c58     libcpmt:winapinls.obj
 0002:00004c68       ??_C@_1M@BJBMFGOB@?$AAb?$AAn?$AA?9?$AAi?$AAn?$AA?$AA@ 0000000180063c68     libcpmt:winapinls.obj
 0002:00004c78       ??_C@_1BG@EAKMMACD@?$AAb?$AAs?$AA?9?$AAb?$AAa?$AA?9?$AAl?$AAa?$AAt?$AAn?$AA?$AA@ 0000000180063c78     libcpmt:winapinls.obj
 0002:00004c90       ??_C@_1M@KGADAODK@?$AAc?$AAa?$AA?9?$AAe?$AAs?$AA?$AA@ 0000000180063c90     libcpmt:winapinls.obj
 0002:00004ca0       ??_C@_1M@COAJPDHI@?$AAc?$AAs?$AA?9?$AAc?$AAz?$AA?$AA@ 0000000180063ca0     libcpmt:winapinls.obj
 0002:00004cb0       ??_C@_1M@DHBHFONH@?$AAc?$AAy?$AA?9?$AAg?$AAb?$AA?$AA@ 0000000180063cb0     libcpmt:winapinls.obj
 0002:00004cc0       ??_C@_1M@IMGKELGA@?$AAd?$AAa?$AA?9?$AAd?$AAk?$AA?$AA@ 0000000180063cc0     libcpmt:winapinls.obj
 0002:00004cd0       ??_C@_1M@NNDGDNGA@?$AAd?$AAe?$AA?9?$AAa?$AAt?$AA?$AA@ 0000000180063cd0     libcpmt:winapinls.obj
 0002:00004ce0       ??_C@_1M@IKDBHEEM@?$AAd?$AAe?$AA?9?$AAc?$AAh?$AA?$AA@ 0000000180063ce0     libcpmt:winapinls.obj
 0002:00004cf0       ??_C@_1M@GFFOJMCJ@?$AAd?$AAe?$AA?9?$AAd?$AAe?$AA?$AA@ 0000000180063cf0     libcpmt:winapinls.obj
 0002:00004d00       ??_C@_1M@MDNLKBPM@?$AAd?$AAe?$AA?9?$AAl?$AAi?$AA?$AA@ 0000000180063d00     libcpmt:winapinls.obj
 0002:00004d10       ??_C@_1M@NJBEEJNL@?$AAd?$AAe?$AA?9?$AAl?$AAu?$AA?$AA@ 0000000180063d10     libcpmt:winapinls.obj
 0002:00004d20       ??_C@_1O@GNNELBAP@?$AAd?$AAi?$AAv?$AA?9?$AAm?$AAv?$AA?$AA@ 0000000180063d20     libcpmt:winapinls.obj
 0002:00004d30       ??_C@_1M@EJLEOGAE@?$AAe?$AAl?$AA?9?$AAg?$AAr?$AA?$AA@ 0000000180063d30     libcpmt:winapinls.obj
 0002:00004d40       ??_C@_1M@GMPONJN@?$AAe?$AAn?$AA?9?$AAa?$AAu?$AA?$AA@ 0000000180063d40     libcpmt:winapinls.obj
 0002:00004d50       ??_C@_1M@NIDIIPGF@?$AAe?$AAn?$AA?9?$AAb?$AAz?$AA?$AA@ 0000000180063d50     libcpmt:winapinls.obj
 0002:00004d60       ??_C@_1M@JEHMIMFO@?$AAe?$AAn?$AA?9?$AAc?$AAa?$AA?$AA@ 0000000180063d60     libcpmt:winapinls.obj
 0002:00004d70       ??_C@_1M@IGMJCDLA@?$AAe?$AAn?$AA?9?$AAc?$AAb?$AA?$AA@ 0000000180063d70     libcpmt:winapinls.obj
 0002:00004d80       ??_C@_1M@BNFIGBKG@?$AAe?$AAn?$AA?9?$AAg?$AAb?$AA?$AA@ 0000000180063d80     libcpmt:winapinls.obj
 0002:00004d90       ??_C@_1M@LKIFDIGP@?$AAe?$AAn?$AA?9?$AAi?$AAe?$AA?$AA@ 0000000180063d90     libcpmt:winapinls.obj
 0002:00004da0       ??_C@_1M@PJKFGCCO@?$AAe?$AAn?$AA?9?$AAj?$AAm?$AA?$AA@ 0000000180063da0     libcpmt:winapinls.obj
 0002:00004db0       ??_C@_1M@KPPKEPBO@?$AAe?$AAn?$AA?9?$AAn?$AAz?$AA?$AA@ 0000000180063db0     libcpmt:winapinls.obj
 0002:00004dc0       ??_C@_1M@GMDGLDOB@?$AAe?$AAn?$AA?9?$AAp?$AAh?$AA?$AA@ 0000000180063dc0     libcpmt:winapinls.obj
 0002:00004dd0       ??_C@_1M@ONGIBJNA@?$AAe?$AAn?$AA?9?$AAt?$AAt?$AA?$AA@ 0000000180063dd0     libcpmt:winapinls.obj
 0002:00004de0       ??_C@_1M@LLODPCMM@?$AAe?$AAn?$AA?9?$AAu?$AAs?$AA?$AA@ 0000000180063de0     libcpmt:winapinls.obj
 0002:00004df0       ??_C@_1M@LAKFNPAN@?$AAe?$AAn?$AA?9?$AAz?$AAa?$AA?$AA@ 0000000180063df0     libcpmt:winapinls.obj
 0002:00004e00       ??_C@_1M@MFNHNHEO@?$AAe?$AAn?$AA?9?$AAz?$AAw?$AA?$AA@ 0000000180063e00     libcpmt:winapinls.obj
 0002:00004e10       ??_C@_1M@EJEINPHM@?$AAe?$AAs?$AA?9?$AAa?$AAr?$AA?$AA@ 0000000180063e10     libcpmt:winapinls.obj
 0002:00004e20       ??_C@_1M@GNKPCCJA@?$AAe?$AAs?$AA?9?$AAb?$AAo?$AA?$AA@ 0000000180063e20     libcpmt:winapinls.obj
 0002:00004e30       ??_C@_1M@LEEGFONL@?$AAe?$AAs?$AA?9?$AAc?$AAl?$AA?$AA@ 0000000180063e30     libcpmt:winapinls.obj
 0002:00004e40       ??_C@_1M@KGPDPBDF@?$AAe?$AAs?$AA?9?$AAc?$AAo?$AA?$AA@ 0000000180063e40     libcpmt:winapinls.obj
 0002:00004e50       ??_C@_1M@EIAHOHH@?$AAe?$AAs?$AA?9?$AAc?$AAr?$AA?$AA@ 0000000180063e50     libcpmt:winapinls.obj
 0002:00004e60       ??_C@_1M@LLPGMBIN@?$AAe?$AAs?$AA?9?$AAd?$AAo?$AA?$AA@ 0000000180063e60     libcpmt:winapinls.obj
 0002:00004e70       ??_C@_1M@DKHMKNJA@?$AAe?$AAs?$AA?9?$AAe?$AAc?$AA?$AA@ 0000000180063e70     libcpmt:winapinls.obj
 0002:00004e80       ??_C@_1M@GKGFPKAP@?$AAe?$AAs?$AA?9?$AAe?$AAs?$AA?$AA@ 0000000180063e80     libcpmt:winapinls.obj
 0002:00004e90       ??_C@_1M@LKHKGDLN@?$AAe?$AAs?$AA?9?$AAg?$AAt?$AA?$AA@ 0000000180063e90     libcpmt:winapinls.obj
 0002:00004ea0       ??_C@_1M@HEIIGGJD@?$AAe?$AAs?$AA?9?$AAh?$AAn?$AA?$AA@ 0000000180063ea0     libcpmt:winapinls.obj
 0002:00004eb0       ??_C@_1M@FBDHPPGD@?$AAe?$AAs?$AA?9?$AAm?$AAx?$AA?$AA@ 0000000180063eb0     libcpmt:winapinls.obj
 0002:00004ec0       ??_C@_1M@DPAGLNDH@?$AAe?$AAs?$AA?9?$AAn?$AAi?$AA?$AA@ 0000000180063ec0     libcpmt:winapinls.obj
 0002:00004ed0       ??_C@_1M@MDGOPGDD@?$AAe?$AAs?$AA?9?$AAp?$AAa?$AA?$AA@ 0000000180063ed0     libcpmt:winapinls.obj
 0002:00004ee0       ??_C@_1M@EMAMGBGE@?$AAe?$AAs?$AA?9?$AAp?$AAe?$AA?$AA@ 0000000180063ee0     libcpmt:winapinls.obj
 0002:00004ef0       ??_C@_1M@IBMCAOEC@?$AAe?$AAs?$AA?9?$AAp?$AAr?$AA?$AA@ 0000000180063ef0     libcpmt:winapinls.obj
 0002:00004f00       ??_C@_1M@FGMDIJED@?$AAe?$AAs?$AA?9?$AAp?$AAy?$AA?$AA@ 0000000180063f00     libcpmt:winapinls.obj
 0002:00004f10       ??_C@_1M@IIDEOLLL@?$AAe?$AAs?$AA?9?$AAs?$AAv?$AA?$AA@ 0000000180063f10     libcpmt:winapinls.obj
 0002:00004f20       ??_C@_1M@GAOBIPA@?$AAe?$AAs?$AA?9?$AAu?$AAy?$AA?$AA@ 0000000180063f20     libcpmt:winapinls.obj
 0002:00004f30       ??_C@_1M@JKFFICHJ@?$AAe?$AAs?$AA?9?$AAv?$AAe?$AA?$AA@ 0000000180063f30     libcpmt:winapinls.obj
 0002:00004f40       ??_C@_1M@PNMLOJDF@?$AAe?$AAt?$AA?9?$AAe?$AAe?$AA?$AA@ 0000000180063f40     libcpmt:winapinls.obj
 0002:00004f50       ??_C@_1M@GHHLIKEI@?$AAe?$AAu?$AA?9?$AAe?$AAs?$AA?$AA@ 0000000180063f50     libcpmt:winapinls.obj
 0002:00004f60       ??_C@_1M@PBNONODE@?$AAf?$AAa?$AA?9?$AAi?$AAr?$AA?$AA@ 0000000180063f60     libcpmt:winapinls.obj
 0002:00004f70       ??_C@_1M@JEEHPMIL@?$AAf?$AAi?$AA?9?$AAf?$AAi?$AA?$AA@ 0000000180063f70     libcpmt:winapinls.obj
 0002:00004f80       ??_C@_1M@LMDCNDBA@?$AAf?$AAo?$AA?9?$AAf?$AAo?$AA?$AA@ 0000000180063f80     libcpmt:winapinls.obj
 0002:00004f90       ??_C@_1M@JKEOHLDK@?$AAf?$AAr?$AA?9?$AAb?$AAe?$AA?$AA@ 0000000180063f90     libcpmt:winapinls.obj
 0002:00004fa0       ??_C@_1M@NOHADPMI@?$AAf?$AAr?$AA?9?$AAc?$AAa?$AA?$AA@ 0000000180063fa0     libcpmt:winapinls.obj
 0002:00004fb0       ??_C@_1M@KDHIHAEC@?$AAf?$AAr?$AA?9?$AAc?$AAh?$AA?$AA@ 0000000180063fb0     libcpmt:winapinls.obj
 0002:00004fc0       ??_C@_1M@MMBBFGAK@?$AAf?$AAr?$AA?9?$AAf?$AAr?$AA?$AA@ 0000000180063fc0     libcpmt:winapinls.obj
 0002:00004fd0       ??_C@_1M@PAFNENNF@?$AAf?$AAr?$AA?9?$AAl?$AAu?$AA?$AA@ 0000000180063fd0     libcpmt:winapinls.obj
 0002:00004fe0       ??_C@_1M@EOHDJGDD@?$AAf?$AAr?$AA?9?$AAm?$AAc?$AA?$AA@ 0000000180063fe0     libcpmt:winapinls.obj
 0002:00004ff0       ??_C@_1M@FAPLLOPF@?$AAg?$AAl?$AA?9?$AAe?$AAs?$AA?$AA@ 0000000180063ff0     libcpmt:winapinls.obj
 0002:00005000       ??_C@_1M@FOPBFLOO@?$AAg?$AAu?$AA?9?$AAi?$AAn?$AA?$AA@ 0000000180064000     libcpmt:winapinls.obj
 0002:00005010       ??_C@_1M@KBMCINPM@?$AAh?$AAe?$AA?9?$AAi?$AAl?$AA?$AA@ 0000000180064010     libcpmt:winapinls.obj
 0002:00005020       ??_C@_1M@BBPHKFPJ@?$AAh?$AAi?$AA?9?$AAi?$AAn?$AA?$AA@ 0000000180064020     libcpmt:winapinls.obj
 0002:00005030       ??_C@_1M@PMBNDPHD@?$AAh?$AAr?$AA?9?$AAb?$AAa?$AA?$AA@ 0000000180064030     libcpmt:winapinls.obj
 0002:00005040       ??_C@_1M@BPCKOEGE@?$AAh?$AAr?$AA?9?$AAh?$AAr?$AA?$AA@ 0000000180064040     libcpmt:winapinls.obj
 0002:00005050       ??_C@_1M@GACBMHKE@?$AAh?$AAu?$AA?9?$AAh?$AAu?$AA?$AA@ 0000000180064050     libcpmt:winapinls.obj
 0002:00005060       ??_C@_1M@MILPAJJC@?$AAh?$AAy?$AA?9?$AAa?$AAm?$AA?$AA@ 0000000180064060     libcpmt:winapinls.obj
 0002:00005070       ??_C@_1M@BABBICEC@?$AAi?$AAd?$AA?9?$AAi?$AAd?$AA?$AA@ 0000000180064070     libcpmt:winapinls.obj
 0002:00005080       ??_C@_1M@BIKNHHPF@?$AAi?$AAs?$AA?9?$AAi?$AAs?$AA?$AA@ 0000000180064080     libcpmt:winapinls.obj
 0002:00005090       ??_C@_1M@NMPCJPHE@?$AAi?$AAt?$AA?9?$AAc?$AAh?$AA?$AA@ 0000000180064090     libcpmt:winapinls.obj
 0002:000050a0       ??_C@_1M@GHKGFEDF@?$AAi?$AAt?$AA?9?$AAi?$AAt?$AA?$AA@ 00000001800640a0     libcpmt:winapinls.obj
 0002:000050b0       ??_C@_1M@NIEJCJJA@?$AAj?$AAa?$AA?9?$AAj?$AAp?$AA?$AA@ 00000001800640b0     libcpmt:winapinls.obj
 0002:000050c0       ??_C@_1M@JILFNBIM@?$AAk?$AAa?$AA?9?$AAg?$AAe?$AA?$AA@ 00000001800640c0     libcpmt:winapinls.obj
 0002:000050d0       ??_C@_1M@PACPMGPH@?$AAk?$AAk?$AA?9?$AAk?$AAz?$AA?$AA@ 00000001800640d0     libcpmt:winapinls.obj
 0002:000050e0       ??_C@_1M@IELFGMHA@?$AAk?$AAn?$AA?9?$AAi?$AAn?$AA?$AA@ 00000001800640e0     libcpmt:winapinls.obj
 0002:000050f0       ??_C@_1M@DMHAEOGC@?$AAk?$AAo?$AA?9?$AAk?$AAr?$AA?$AA@ 00000001800640f0     libcpmt:winapinls.obj
 0002:00005100       ??_C@_1O@IBBJHCH@?$AAk?$AAo?$AAk?$AA?9?$AAi?$AAn?$AA?$AA@ 0000000180064100     libcpmt:winapinls.obj
 0002:00005110       ??_C@_1M@HBAHBIGA@?$AAk?$AAy?$AA?9?$AAk?$AAg?$AA?$AA@ 0000000180064110     libcpmt:winapinls.obj
 0002:00005120       ??_C@_1M@KPMILCJG@?$AAl?$AAt?$AA?9?$AAl?$AAt?$AA?$AA@ 0000000180064120     libcpmt:winapinls.obj
 0002:00005130       ??_C@_1M@BDEKKCA@?$AAl?$AAv?$AA?9?$AAl?$AAv?$AA?$AA@ 0000000180064130     libcpmt:winapinls.obj
 0002:00005140       ??_C@_1M@ELCKCCJJ@?$AAm?$AAi?$AA?9?$AAn?$AAz?$AA?$AA@ 0000000180064140     libcpmt:winapinls.obj
 0002:00005150       ??_C@_1M@CBOOLAPA@?$AAm?$AAk?$AA?9?$AAm?$AAk?$AA?$AA@ 0000000180064150     libcpmt:winapinls.obj
 0002:00005160       ??_C@_1M@GPHNBJKN@?$AAm?$AAl?$AA?9?$AAi?$AAn?$AA?$AA@ 0000000180064160     libcpmt:winapinls.obj
 0002:00005170       ??_C@_1M@PABJILIG@?$AAm?$AAn?$AA?9?$AAm?$AAn?$AA?$AA@ 0000000180064170     libcpmt:winapinls.obj
 0002:00005180       ??_C@_1M@FGBKKIPG@?$AAm?$AAr?$AA?9?$AAi?$AAn?$AA?$AA@ 0000000180064180     libcpmt:winapinls.obj
 0002:00005190       ??_C@_1M@NDBPDDAL@?$AAm?$AAs?$AA?9?$AAb?$AAn?$AA?$AA@ 0000000180064190     libcpmt:winapinls.obj
 0002:000051a0       ??_C@_1M@OPIHOOPI@?$AAm?$AAs?$AA?9?$AAm?$AAy?$AA?$AA@ 00000001800641a0     libcpmt:winapinls.obj
 0002:000051b0       ??_C@_1M@PPDBCNFM@?$AAm?$AAt?$AA?9?$AAm?$AAt?$AA?$AA@ 00000001800641b0     libcpmt:winapinls.obj
 0002:000051c0       ??_C@_1M@KDJDKMDD@?$AAn?$AAb?$AA?9?$AAn?$AAo?$AA?$AA@ 00000001800641c0     libcpmt:winapinls.obj
 0002:000051d0       ??_C@_1M@KFCFLMJP@?$AAn?$AAl?$AA?9?$AAb?$AAe?$AA?$AA@ 00000001800641d0     libcpmt:winapinls.obj
 0002:000051e0       ??_C@_1M@KPOPDDGO@?$AAn?$AAl?$AA?9?$AAn?$AAl?$AA?$AA@ 00000001800641e0     libcpmt:winapinls.obj
 0002:000051f0       ??_C@_1M@LJKPEMLN@?$AAn?$AAn?$AA?9?$AAn?$AAo?$AA?$AA@ 00000001800641f0     libcpmt:winapinls.obj
 0002:00005200       ??_C@_1M@BDGHHBFL@?$AAn?$AAs?$AA?9?$AAz?$AAa?$AA?$AA@ 0000000180064200     libcpmt:winapinls.obj
 0002:00005210       ??_C@_1M@IDEHOAP@?$AAp?$AAa?$AA?9?$AAi?$AAn?$AA?$AA@ 0000000180064210     libcpmt:winapinls.obj
 0002:00005220       ??_C@_1M@HDBKGOGH@?$AAp?$AAl?$AA?9?$AAp?$AAl?$AA?$AA@ 0000000180064220     libcpmt:winapinls.obj
 0002:00005230       ??_C@_1M@LJLLCMEH@?$AAp?$AAt?$AA?9?$AAb?$AAr?$AA?$AA@ 0000000180064230     libcpmt:winapinls.obj
 0002:00005240       ??_C@_1M@NCMONAAL@?$AAp?$AAt?$AA?9?$AAp?$AAt?$AA?$AA@ 0000000180064240     libcpmt:winapinls.obj
 0002:00005250       ??_C@_1O@EAKMAJDN@?$AAq?$AAu?$AAz?$AA?9?$AAb?$AAo?$AA?$AA@ 0000000180064250     libcpmt:winapinls.obj
 0002:00005260       ??_C@_1O@BHHPIGDN@?$AAq?$AAu?$AAz?$AA?9?$AAe?$AAc?$AA?$AA@ 0000000180064260     libcpmt:winapinls.obj
 0002:00005270       ??_C@_1O@GBAPEKMJ@?$AAq?$AAu?$AAz?$AA?9?$AAp?$AAe?$AA?$AA@ 0000000180064270     libcpmt:winapinls.obj
 0002:00005280       ??_C@_1M@CLGLEFBO@?$AAr?$AAo?$AA?9?$AAr?$AAo?$AA?$AA@ 0000000180064280     libcpmt:winapinls.obj
 0002:00005290       ??_C@_1M@CEEDODME@?$AAr?$AAu?$AA?9?$AAr?$AAu?$AA?$AA@ 0000000180064290     libcpmt:winapinls.obj
 0002:000052a0       ??_C@_1M@HPKKKMPP@?$AAs?$AAa?$AA?9?$AAi?$AAn?$AA?$AA@ 00000001800642a0     libcpmt:winapinls.obj
 0002:000052b0       ??_C@_1M@BKMAIGOJ@?$AAs?$AAe?$AA?9?$AAf?$AAi?$AA?$AA@ 00000001800642b0     libcpmt:winapinls.obj
 0002:000052c0       ??_C@_1M@NDPIFLFI@?$AAs?$AAe?$AA?9?$AAn?$AAo?$AA?$AA@ 00000001800642c0     libcpmt:winapinls.obj
 0002:000052d0       ??_C@_1M@DANKKHJ@?$AAs?$AAe?$AA?9?$AAs?$AAe?$AA?$AA@ 00000001800642d0     libcpmt:winapinls.obj
 0002:000052e0       ??_C@_1M@PNBLONPJ@?$AAs?$AAk?$AA?9?$AAs?$AAk?$AA?$AA@ 00000001800642e0     libcpmt:winapinls.obj
 0002:000052f0       ??_C@_1M@LFMODOAL@?$AAs?$AAl?$AA?9?$AAs?$AAi?$AA?$AA@ 00000001800642f0     libcpmt:winapinls.obj
 0002:00005300       ??_C@_1O@DFKOMPG@?$AAs?$AAm?$AAa?$AA?9?$AAn?$AAo?$AA?$AA@ 0000000180064300     libcpmt:winapinls.obj
 0002:00005310       ??_C@_1O@NDKPBNNH@?$AAs?$AAm?$AAa?$AA?9?$AAs?$AAe?$AA?$AA@ 0000000180064310     libcpmt:winapinls.obj
 0002:00005320       ??_C@_1O@PLLKBHAB@?$AAs?$AAm?$AAj?$AA?9?$AAn?$AAo?$AA?$AA@ 0000000180064320     libcpmt:winapinls.obj
 0002:00005330       ??_C@_1O@CLEPOGCA@?$AAs?$AAm?$AAj?$AA?9?$AAs?$AAe?$AA?$AA@ 0000000180064330     libcpmt:winapinls.obj
 0002:00005340       ??_C@_1O@DLGJGKMK@?$AAs?$AAm?$AAn?$AA?9?$AAf?$AAi?$AA?$AA@ 0000000180064340     libcpmt:winapinls.obj
 0002:00005350       ??_C@_1O@OJDJGAJC@?$AAs?$AAm?$AAs?$AA?9?$AAf?$AAi?$AA?$AA@ 0000000180064350     libcpmt:winapinls.obj
 0002:00005360       ??_C@_1M@BOFOGHPB@?$AAs?$AAq?$AA?9?$AAa?$AAl?$AA?$AA@ 0000000180064360     libcpmt:winapinls.obj
 0002:00005370       ??_C@_1BG@LJBBIPGB@?$AAs?$AAr?$AA?9?$AAb?$AAa?$AA?9?$AAc?$AAy?$AAr?$AAl?$AA?$AA@ 0000000180064370     libcpmt:winapinls.obj
 0002:00005388       ??_C@_1BG@JLBENFOE@?$AAs?$AAr?$AA?9?$AAb?$AAa?$AA?9?$AAl?$AAa?$AAt?$AAn?$AA?$AA@ 0000000180064388     libcpmt:winapinls.obj
 0002:000053a0       ??_C@_1BG@KODPNHE@?$AAs?$AAr?$AA?9?$AAs?$AAp?$AA?9?$AAc?$AAy?$AAr?$AAl?$AA?$AA@ 00000001800643a0     libcpmt:winapinls.obj
 0002:000053b8       ??_C@_1BG@CIOGKHPB@?$AAs?$AAr?$AA?9?$AAs?$AAp?$AA?9?$AAl?$AAa?$AAt?$AAn?$AA?$AA@ 00000001800643b8     libcpmt:winapinls.obj
 0002:000053d0       ??_C@_1M@NGFJLMAC@?$AAs?$AAv?$AA?9?$AAf?$AAi?$AA?$AA@ 00000001800643d0     libcpmt:winapinls.obj
 0002:000053e0       ??_C@_1M@MPJEJAJC@?$AAs?$AAv?$AA?9?$AAs?$AAe?$AA?$AA@ 00000001800643e0     libcpmt:winapinls.obj
 0002:000053f0       ??_C@_1M@MPNDHLFK@?$AAs?$AAw?$AA?9?$AAk?$AAe?$AA?$AA@ 00000001800643f0     libcpmt:winapinls.obj
 0002:00005400       ??_C@_1O@KOHBJJI@?$AAs?$AAy?$AAr?$AA?9?$AAs?$AAy?$AA?$AA@ 0000000180064400     libcpmt:winapinls.obj
 0002:00005410       ??_C@_1M@LDCEFHA@?$AAt?$AAa?$AA?9?$AAi?$AAn?$AA?$AA@ 0000000180064410     libcpmt:winapinls.obj
 0002:00005420       ??_C@_1M@CNJOFAK@?$AAt?$AAe?$AA?9?$AAi?$AAn?$AA?$AA@ 0000000180064420     libcpmt:winapinls.obj
 0002:00005430       ??_C@_1M@GNAECACD@?$AAt?$AAh?$AA?9?$AAt?$AAh?$AA?$AA@ 0000000180064430     libcpmt:winapinls.obj
 0002:00005440       ??_C@_1M@CHBIHOJO@?$AAt?$AAn?$AA?9?$AAz?$AAa?$AA?$AA@ 0000000180064440     libcpmt:winapinls.obj
 0002:00005450       ??_C@_1M@GCCMIGPJ@?$AAt?$AAr?$AA?9?$AAt?$AAr?$AA?$AA@ 0000000180064450     libcpmt:winapinls.obj
 0002:00005460       ??_C@_1M@CELMCNBK@?$AAt?$AAt?$AA?9?$AAr?$AAu?$AA?$AA@ 0000000180064460     libcpmt:winapinls.obj
 0002:00005470       ??_C@_1M@KLMCELGA@?$AAu?$AAk?$AA?9?$AAu?$AAa?$AA?$AA@ 0000000180064470     libcpmt:winapinls.obj
 0002:00005480       ??_C@_1M@EPAJJAJF@?$AAu?$AAr?$AA?9?$AAp?$AAk?$AA?$AA@ 0000000180064480     libcpmt:winapinls.obj
 0002:00005490       ??_C@_1BG@GEGPMCDJ@?$AAu?$AAz?$AA?9?$AAu?$AAz?$AA?9?$AAc?$AAy?$AAr?$AAl?$AA?$AA@ 0000000180064490     libcpmt:winapinls.obj
 0002:000054a8       ??_C@_1BG@EGGKJILM@?$AAu?$AAz?$AA?9?$AAu?$AAz?$AA?9?$AAl?$AAa?$AAt?$AAn?$AA?$AA@ 00000001800644a8     libcpmt:winapinls.obj
 0002:000054c0       ??_C@_1M@GFOCLFF@?$AAv?$AAi?$AA?9?$AAv?$AAn?$AA?$AA@ 00000001800644c0     libcpmt:winapinls.obj
 0002:000054d0       ??_C@_1M@CPAMEDFI@?$AAx?$AAh?$AA?9?$AAz?$AAa?$AA?$AA@ 00000001800644d0     libcpmt:winapinls.obj
 0002:000054e0       ??_C@_1O@EBKIFIGN@?$AAz?$AAh?$AA?9?$AAc?$AAh?$AAs?$AA?$AA@ 00000001800644e0     libcpmt:winapinls.obj
 0002:000054f0       ??_C@_1O@NMHPGANE@?$AAz?$AAh?$AA?9?$AAc?$AAh?$AAt?$AA?$AA@ 00000001800644f0     libcpmt:winapinls.obj
 0002:00005500       ??_C@_1M@LPINJOMC@?$AAz?$AAh?$AA?9?$AAc?$AAn?$AA?$AA@ 0000000180064500     libcpmt:winapinls.obj
 0002:00005510       ??_C@_1M@OCJEJODD@?$AAz?$AAh?$AA?9?$AAh?$AAk?$AA?$AA@ 0000000180064510     libcpmt:winapinls.obj
 0002:00005520       ??_C@_1M@DNDLJINH@?$AAz?$AAh?$AA?9?$AAm?$AAo?$AA?$AA@ 0000000180064520     libcpmt:winapinls.obj
 0002:00005530       ??_C@_1M@MBFDNDND@?$AAz?$AAh?$AA?9?$AAs?$AAg?$AA?$AA@ 0000000180064530     libcpmt:winapinls.obj
 0002:00005540       ??_C@_1M@IMEPLEPE@?$AAz?$AAh?$AA?9?$AAt?$AAw?$AA?$AA@ 0000000180064540     libcpmt:winapinls.obj
 0002:00005550       ??_C@_1M@BBGHNHJP@?$AAz?$AAu?$AA?9?$AAz?$AAa?$AA?$AA@ 0000000180064550     libcpmt:winapinls.obj
 0002:00005568       ??_7type_info@@6B@         0000000180064568     LIBCMT:std_type_info_static.obj
 0002:00005570       ??_C@_1EC@JIJBPKFM@?$AAa?$AAp?$AAi?$AA?9?$AAm?$AAs?$AA?9?$AAw?$AAi?$AAn?$AA?9?$AAc?$AAo?$AAr?$AAe?$AA?9?$AAs?$AAy?$AAn?$AAc?$AAh?$AA?9?$AAl?$AA1?$AA?9?$AA2?$AA?9?$AA0?$AA?4?$AAd?$AAl?$AAl@ 0000000180064570     LIBCMT:thread_safe_statics.obj
 0002:000055b8       _pRawDllMain               00000001800645b8     LIBCMT:dll_dllmain.obj
 0002:000055b8       _pDefaultRawDllMain        00000001800645b8     LIBCMT:dll_dllmain.obj
 0002:000055d8       ??_7bad_array_new_length@std@@6B@ 00000001800645d8     LIBCMT:throw_bad_alloc.obj
 0002:000055e8       ??_C@_0BF@KINCDENJ@bad?5array?5new?5length?$AA@ 00000001800645e8     LIBCMT:throw_bad_alloc.obj
 0002:00005680       ??_7improper_lock@Concurrency@@6B@ 0000000180064680     libconcrt:rtlocks.obj
 0002:00005690       ??_C@_0BD@BAGHDICJ@Lock?5already?5taken?$AA@ 0000000180064690     libconcrt:rtlocks.obj
 0002:000056b0       ??_7scheduler_resource_allocation_error@Concurrency@@6B@ 00000001800646b0     libconcrt:Platform.obj
 0002:000056c0       ??_C@_0BH@CJPDKMEB@SetThreadGroupAffinity?$AA@ 00000001800646c0     libconcrt:Platform.obj
 0002:000056d8       ??_C@_0BH@CINNILJO@GetThreadGroupAffinity?$AA@ 00000001800646d8     libconcrt:Platform.obj
 0002:000056f0       ??_C@_0BM@JLHMEGJA@GetCurrentProcessorNumberEx?$AA@ 00000001800646f0     libconcrt:Platform.obj
 0002:00005710       ??_C@_0CB@HOJBBPPI@GetLogicalProcessorInformationEx@ 0000000180064710     libconcrt:Platform.obj
 0002:00005740       ??_7scheduler_worker_creation_error@Concurrency@@6B@ 0000000180064740     libconcrt:Exceptions.obj
 0002:00005758       ??_7unsupported_os@Concurrency@@6B@ 0000000180064758     libconcrt:Exceptions.obj
 0002:00005770       ??_7improper_scheduler_attach@Concurrency@@6B@ 0000000180064770     libconcrt:Exceptions.obj
 0002:00005788       ??_7improper_scheduler_reference@Concurrency@@6B@ 0000000180064788     libconcrt:Exceptions.obj
 0002:000057a0       ??_7context_unblock_unbalanced@Concurrency@@6B@ 00000001800647a0     libconcrt:Exceptions.obj
 0002:000057b8       ??_7context_self_unblock@Concurrency@@6B@ 00000001800647b8     libconcrt:Exceptions.obj
 0002:000057d0       ??_7missing_wait@Concurrency@@6B@ 00000001800647d0     libconcrt:Exceptions.obj
 0002:000057e8       ??_7invalid_scheduler_policy_key@Concurrency@@6B@ 00000001800647e8     libconcrt:Exceptions.obj
 0002:00005800       ??_7invalid_scheduler_policy_value@Concurrency@@6B@ 0000000180064800     libconcrt:Exceptions.obj
 0002:00005818       ??_7invalid_scheduler_policy_thread_specification@Concurrency@@6B@ 0000000180064818     libconcrt:Exceptions.obj
 0002:00005830       ??_7nested_scheduler_missing_detach@Concurrency@@6B@ 0000000180064830     libconcrt:Exceptions.obj
 0002:00005848       ??_7invalid_oversubscribe_operation@Concurrency@@6B@ 0000000180064848     libconcrt:Exceptions.obj
 0002:00005ae0       ??_7invalid_operation@Concurrency@@6B@ 0000000180064ae0     libconcrt:ResourceManager.obj
 0002:00005af8       ??_7TopologyObject@GlobalCore@details@Concurrency@@6B@ 0000000180064af8     libconcrt:ResourceManager.obj
 0002:00005b10       ??_7TopologyObject@GlobalNode@details@Concurrency@@6B@ 0000000180064b10     libconcrt:ResourceManager.obj
 0002:00005b40       ??_7ResourceManager@details@Concurrency@@6B@ 0000000180064b40     libconcrt:ResourceManager.obj
 0002:00005b70       ??_C@_05IOMEMJEC@count?$AA@ 0000000180064b70     libconcrt:ResourceManager.obj
 0002:00005b78       ??_C@_0L@HKFDMHB@pScheduler?$AA@ 0000000180064b78     libconcrt:ResourceManager.obj
 0002:00005b88       ??_C@_07CPCPJPKL@version?$AA@ 0000000180064b88     libconcrt:ResourceManager.obj
 0002:00005b90       __real@0000000000000000    0000000180064b90     libconcrt:ResourceManager.obj
 0002:00005b98       __real@3e7ad7f29abcaf48    0000000180064b98     libconcrt:ResourceManager.obj
 0002:00005ba0       __real@3ff0000000000000    0000000180064ba0     libconcrt:ResourceManager.obj
 0002:00005ba8       ?s_maxExternalAllocators@SchedulerBase@details@Concurrency@@0HB 0000000180064ba8     libconcrt:SchedulerBase.obj
 0002:00005bac       ?s_allocatorFreePoolLimit@SchedulerBase@details@Concurrency@@0HB 0000000180064bac     libconcrt:SchedulerBase.obj
 0002:00005eb0       ??_7ScheduleGroup@Concurrency@@6B@ 0000000180064eb0     libconcrt:SchedulerBase.obj
 0002:00005ee0       ??_7Scheduler@Concurrency@@6B@ 0000000180064ee0     libconcrt:SchedulerBase.obj
 0002:00005f50       ??_7_Chore@details@Concurrency@@6B@ 0000000180064f50     libconcrt:SchedulerBase.obj
 0002:00005f60       ??_7RealizedChore@details@Concurrency@@6B@ 0000000180064f60     libconcrt:SchedulerBase.obj
 0002:00005f70       ??_7SchedulerBase@details@Concurrency@@6B@ 0000000180064f70     libconcrt:SchedulerBase.obj
 0002:00006038       ??_7CacheLocalScheduleGroupSegment@details@Concurrency@@6B@ 0000000180065038     libconcrt:SchedulerBase.obj
 0002:00006060       ??_7CacheLocalScheduleGroup@details@Concurrency@@6B@ 0000000180065060     libconcrt:SchedulerBase.obj
 0002:000060b8       ??_7FairScheduleGroupSegment@details@Concurrency@@6B@ 00000001800650b8     libconcrt:SchedulerBase.obj
 0002:000060e0       ??_7FairScheduleGroup@details@Concurrency@@6B@ 00000001800650e0     libconcrt:SchedulerBase.obj
 0002:00006130       ??_C@_0M@IAPOLKMH@eventObject?$AA@ 0000000180065130     libconcrt:SchedulerBase.obj
 0002:00006140       ??_C@_0BI@PMOAFEOC@ppVirtualProcessorRoots?$AA@ 0000000180065140     libconcrt:SchedulerBase.obj
 0002:000062c8       ??_7WaitBlock@details@Concurrency@@6B@ 00000001800652c8     libconcrt:event.obj
 0002:000062f8       ??_7SingleWaitBlock@details@Concurrency@@6B@ 00000001800652f8     libconcrt:event.obj
 0002:00006328       ??_7MultiWaitBlock@details@Concurrency@@6B@ 0000000180065328     libconcrt:event.obj
 0002:00006360       ??_7WaitAllBlock@details@Concurrency@@6B@ 0000000180065360     libconcrt:event.obj
 0002:00006398       ??_7WaitAnyBlock@details@Concurrency@@6B@ 0000000180065398     libconcrt:event.obj
 0002:000063d0       ??_7TimedSingleWaitBlock@details@Concurrency@@6B@ 00000001800653d0     libconcrt:event.obj
 0002:00006400       ??_7?$_MallocaArrayHolder@PEAVContext@Concurrency@@@details@Concurrency@@6B@ 0000000180065400     libconcrt:event.obj
 0002:00006408       ??_C@_07CAAEJHLA@pEvents?$AA@ 0000000180065408     libconcrt:event.obj
 0002:00006558       ??_7Context@Concurrency@@6B@ 0000000180065558     libconcrt:ContextBase.obj
 0002:00006590       ??_7ContextBase@details@Concurrency@@6B@ 0000000180065590     libconcrt:ContextBase.obj
 0002:000067e0       ?_Upper@?1??_Memory_order_upper_bound@std@@YA?AW4memory_order@2@W432@0@Z@4QAY05$$CBW432@A 00000001800657e0     libconcrt:TaskCollection.obj
 0002:00006878       ??_7_Interruption_exception@details@Concurrency@@6B@ 0000000180065878     libconcrt:TaskCollection.obj
 0002:00006890       ??_7_RefCounter@details@Concurrency@@6B@ 0000000180065890     libconcrt:TaskCollection.obj
 0002:000068a8       ??_7_CancellationTokenRegistration@details@Concurrency@@6B@ 00000001800658a8     libconcrt:TaskCollection.obj
 0002:000068c8       ??_7CancellationTokenRegistration_TaskProc@details@Concurrency@@6B@ 00000001800658c8     libconcrt:TaskCollection.obj
 0002:000068e8       ??_7?$_MallocaArrayHolder@PEAVevent@Concurrency@@@details@Concurrency@@6B@ 00000001800658e8     libconcrt:TaskCollection.obj
 0002:000068f0       ??_C@_0O@JJAHDPNG@SchedulerKind?$AA@ 00000001800658f0     libconcrt:SchedulerPolicyBase.obj
 0002:00006900       ??_C@_0P@CGAHIHHE@MaxConcurrency?$AA@ 0000000180065900     libconcrt:SchedulerPolicyBase.obj
 0002:00006910       ??_C@_0P@BLMOAEF@MinConcurrency?$AA@ 0000000180065910     libconcrt:SchedulerPolicyBase.obj
 0002:00006920       ??_C@_0BN@GKPFKNNF@TargetOversubscriptionFactor?$AA@ 0000000180065920     libconcrt:SchedulerPolicyBase.obj
 0002:00006940       ??_C@_0BG@PCMPEOIE@LocalContextCacheSize?$AA@ 0000000180065940     libconcrt:SchedulerPolicyBase.obj
 0002:00006958       ??_C@_0BB@OPLJNNNB@ContextStackSize?$AA@ 0000000180065958     libconcrt:SchedulerPolicyBase.obj
 0002:00006970       ??_C@_0BA@CHGPFLBM@ContextPriority?$AA@ 0000000180065970     libconcrt:SchedulerPolicyBase.obj
 0002:00006980       ??_C@_0BD@HMLGOEAM@SchedulingProtocol?$AA@ 0000000180065980     libconcrt:SchedulerPolicyBase.obj
 0002:00006998       ??_C@_0BI@PEDMDBKL@DynamicProgressFeedback?$AA@ 0000000180065998     libconcrt:SchedulerPolicyBase.obj
 0002:000069b0       ??_C@_0BE@EBKJEJDK@WinRTInitialization?$AA@ 00000001800659b0     libconcrt:SchedulerPolicyBase.obj
 0002:000069c8       ??_C@_0BE@OJPKBKLL@MaxPolicyElementKey?$AA@ 00000001800659c8     libconcrt:SchedulerPolicyBase.obj
 0002:00006a10       ??_7ExecutionResource@details@Concurrency@@6B@ 0000000180065a10     libconcrt:ExecutionResource.obj
 0002:00006a30       __real@3f1a36e2eb1c432d    0000000180065a30     libconcrt:HillClimbing.obj
 0002:00006a38       __real@3f70624dd2f1a9fc    0000000180065a38     libconcrt:HillClimbing.obj
 0002:00006a40       __real@3fc3333333333333    0000000180065a40     libconcrt:HillClimbing.obj
 0002:00006a48       __real@bff0000000000000    0000000180065a48     libconcrt:HillClimbing.obj
 0002:00006c60       ??_7SchedulerProxy@details@Concurrency@@6B@ 0000000180065c60     libconcrt:SchedulerProxy.obj
 0002:00006cb0       ??_C@_08BAFMHLII@pContext?$AA@ 0000000180065cb0     libconcrt:SchedulerProxy.obj
 0002:00006cc0       ??_C@_0BD@HOFLOOHM@pExecutionResource?$AA@ 0000000180065cc0     libconcrt:SchedulerProxy.obj
 0002:00006cd8       ??_C@_0BF@PHKBGNNA@CreateRemoteThreadEx?$AA@ 0000000180065cd8     libconcrt:UMSWrapper.obj
 0002:00006cf0       ??_C@_0BI@OFOMFECC@CreateUmsCompletionList?$AA@ 0000000180065cf0     libconcrt:UMSWrapper.obj
 0002:00006d08       ??_C@_0BH@NBGNADAH@CreateUmsThreadContext?$AA@ 0000000180065d08     libconcrt:UMSWrapper.obj
 0002:00006d20       ??_C@_0BO@JONJJOMF@DeleteProcThreadAttributeList?$AA@ 0000000180065d20     libconcrt:UMSWrapper.obj
 0002:00006d40       ??_C@_0BI@BPKNDLMM@DeleteUmsCompletionList?$AA@ 0000000180065d40     libconcrt:UMSWrapper.obj
 0002:00006d58       ??_C@_0BH@JPDPIOBJ@DeleteUmsThreadContext?$AA@ 0000000180065d58     libconcrt:UMSWrapper.obj
 0002:00006d70       ??_C@_0BO@GGFJEFKK@DequeueUmsCompletionListItems?$AA@ 0000000180065d70     libconcrt:UMSWrapper.obj
 0002:00006d90       ??_C@_0BH@BLPFNIKG@EnterUmsSchedulingMode?$AA@ 0000000180065d90     libconcrt:UMSWrapper.obj
 0002:00006da8       ??_C@_0BB@DHABPDKF@ExecuteUmsThread?$AA@ 0000000180065da8     libconcrt:UMSWrapper.obj
 0002:00006dc0       ??_C@_0BE@FLBMLIK@GetCurrentUmsThread?$AA@ 0000000180065dc0     libconcrt:UMSWrapper.obj
 0002:00006dd8       ??_C@_0BD@FNFEEGCI@GetNextUmsListItem?$AA@ 0000000180065dd8     libconcrt:UMSWrapper.obj
 0002:00006df0       ??_C@_0BK@MGNBLFMB@GetUmsCompletionListEvent?$AA@ 0000000180065df0     libconcrt:UMSWrapper.obj
 0002:00006e10       ??_C@_0CC@PLANOPMM@InitializeProcThreadAttributeLis@ 0000000180065e10     libconcrt:UMSWrapper.obj
 0002:00006e38       ??_C@_0BK@DAKPFGE@QueryUmsThreadInformation?$AA@ 0000000180065e38     libconcrt:UMSWrapper.obj
 0002:00006e58       ??_C@_0BI@DPBBCPDB@SetUmsThreadInformation?$AA@ 0000000180065e58     libconcrt:UMSWrapper.obj
 0002:00006e70       ??_C@_0P@ILGNBNP@UmsThreadYield?$AA@ 0000000180065e70     libconcrt:UMSWrapper.obj
 0002:00006e80       ??_C@_0BK@LCOMJCNI@UpdateProcThreadAttribute?$AA@ 0000000180065e80     libconcrt:UMSWrapper.obj
 0002:00006ea0       ??_C@_1BI@IDAOOPDH@?$AAc?$AAo?$AAm?$AAb?$AAa?$AAs?$AAe?$AA?4?$AAd?$AAl?$AAl?$AA?$AA@ 0000000180065ea0     libconcrt:WinRTWrapper.obj
 0002:00006eb8       ??_C@_0N@PPOMPGGK@RoInitialize?$AA@ 0000000180065eb8     libconcrt:WinRTWrapper.obj
 0002:00006ec8       ??_C@_0P@LLFHBIJD@RoUninitialize?$AA@ 0000000180065ec8     libconcrt:WinRTWrapper.obj
 0002:00006f80       ??_7FreeThreadProxy@details@Concurrency@@6B@ 0000000180065f80     libconcrt:ThreadProxyFactoryManager.obj
 0002:00006fb8       ??_7IThreadProxyFactory@details@Concurrency@@6B@ 0000000180065fb8     libconcrt:ThreadProxyFactoryManager.obj
 0002:00006fe8       ?s_proxyStackSize@?$ThreadProxyFactory@VFreeThreadProxy@details@Concurrency@@@details@Concurrency@@1QBIB 0000000180065fe8     libconcrt:ThreadProxyFactoryManager.obj
 0002:00007000       ??_7?$ThreadProxyFactory@VFreeThreadProxy@details@Concurrency@@@details@Concurrency@@6B@ 0000000180066000     libconcrt:ThreadProxyFactoryManager.obj
 0002:00007058       ??_7FreeThreadProxyFactory@details@Concurrency@@6B@ 0000000180066058     libconcrt:ThreadProxyFactoryManager.obj
 0002:000070a8       ?ConcRT_ProviderGuid@Concurrency@@3U_GUID@@B 00000001800660a8     libconcrt:Trace.obj
 0002:000070b8       ?ConcRTEventGuid@Concurrency@@3U_GUID@@B 00000001800660b8     libconcrt:Trace.obj
 0002:000070c8       ?SchedulerEventGuid@Concurrency@@3U_GUID@@B 00000001800660c8     libconcrt:Trace.obj
 0002:000070d8       ?ScheduleGroupEventGuid@Concurrency@@3U_GUID@@B 00000001800660d8     libconcrt:Trace.obj
 0002:000070e8       ?ContextEventGuid@Concurrency@@3U_GUID@@B 00000001800660e8     libconcrt:Trace.obj
 0002:000070f8       ?ChoreEventGuid@Concurrency@@3U_GUID@@B 00000001800660f8     libconcrt:Trace.obj
 0002:00007108       ?VirtualProcessorEventGuid@Concurrency@@3U_GUID@@B 0000000180066108     libconcrt:Trace.obj
 0002:00007118       ?LockEventGuid@Concurrency@@3U_GUID@@B 0000000180066118     libconcrt:Trace.obj
 0002:00007128       ?ResourceManagerEventGuid@Concurrency@@3U_GUID@@B 0000000180066128     libconcrt:Trace.obj
 0002:00007138       ?PPLParallelInvokeEventGuid@Concurrency@@3U_GUID@@B 0000000180066138     libconcrt:Trace.obj
 0002:00007148       ?PPLParallelForEventGuid@Concurrency@@3U_GUID@@B 0000000180066148     libconcrt:Trace.obj
 0002:00007158       ?PPLParallelForeachEventGuid@Concurrency@@3U_GUID@@B 0000000180066158     libconcrt:Trace.obj
 0002:00007168       ?AgentEventGuid@Concurrency@@3U_GUID@@B 0000000180066168     libconcrt:Trace.obj
 0002:000071a0       ??_C@_1BK@JHLNAEJL@?$AAa?$AAd?$AAv?$AAa?$AAp?$AAi?$AA3?$AA2?$AA?4?$AAd?$AAl?$AAl?$AA?$AA@ 00000001800661a0     libconcrt:Trace.obj
 0002:000071c0       ??_C@_0BE@FKJMGMF@RegisterTraceGuidsW?$AA@ 00000001800661c0     libconcrt:Trace.obj
 0002:000071d8       ??_C@_0BF@OFMMALCC@UnregisterTraceGuids?$AA@ 00000001800661d8     libconcrt:Trace.obj
 0002:000071f0       ??_C@_0L@EOLEDHLE@TraceEvent?$AA@ 00000001800661f0     libconcrt:Trace.obj
 0002:00007200       ??_C@_0BF@OFCGPMKL@GetTraceLoggerHandle?$AA@ 0000000180066200     libconcrt:Trace.obj
 0002:00007218       ??_C@_0BE@JCHMKLLJ@GetTraceEnableLevel?$AA@ 0000000180066218     libconcrt:Trace.obj
 0002:00007230       ??_C@_0BE@DNOHFPHI@GetTraceEnableFlags?$AA@ 0000000180066230     libconcrt:Trace.obj
 0002:00007278       ??_7VirtualProcessor@details@Concurrency@@6B@ 0000000180066278     libconcrt:VirtualProcessor.obj
 0002:000072f0       ?s_bucketSizes@SubAllocator@details@Concurrency@@0QBHB 00000001800662f0     libconcrt:SubAllocator.obj
 0002:00007470       ?GranularityShift@SubAllocator@details@Concurrency@@0HB 0000000180066470     libconcrt:SubAllocator.obj
 0002:00007474       ?MaxAllocationSize@SubAllocator@details@Concurrency@@0HB 0000000180066474     libconcrt:SubAllocator.obj
 0002:00007570       ??_7IExecutionContext@Concurrency@@6B@ 0000000180066570     libconcrt:InternalContextBase.obj
 0002:000075a0       ??_7InternalContextBase@details@Concurrency@@6BIExecutionContext@2@@ 00000001800665a0     libconcrt:InternalContextBase.obj
 0002:000075f0       ??_7InternalContextBase@details@Concurrency@@6BContextBase@12@@ 00000001800665f0     libconcrt:InternalContextBase.obj
 0002:00007680       ??_C@_0N@FACDCNDA@pThreadProxy?$AA@ 0000000180066680     libconcrt:InternalContextBase.obj
 0002:00007850       ??_7ScheduleGroupSegmentBase@details@Concurrency@@6B@ 0000000180066850     libconcrt:ScheduleGroupBase.obj
 0002:00007878       ??_7ScheduleGroupBase@details@Concurrency@@6B@ 0000000180066878     libconcrt:ScheduleGroupBase.obj
 0002:000078c8       ??_C@_04MGCDEED@proc?$AA@  00000001800668c8     libconcrt:ScheduleGroupBase.obj
 0002:00007978       ??_7ExternalContextBase@details@Concurrency@@6B@ 0000000180066978     libconcrt:ExternalContextBase.obj
 0002:00007a88       ??_7IScheduler@Concurrency@@6B@ 0000000180066a88     libconcrt:ThreadScheduler.obj
 0002:00007ac8       ??_7ThreadInternalContext@details@Concurrency@@6BIExecutionContext@2@@ 0000000180066ac8     libconcrt:ThreadScheduler.obj
 0002:00007b18       ??_7ThreadInternalContext@details@Concurrency@@6BContextBase@12@@ 0000000180066b18     libconcrt:ThreadScheduler.obj
 0002:00007bb0       ??_7ThreadScheduler@details@Concurrency@@6BIScheduler@2@@ 0000000180066bb0     libconcrt:ThreadScheduler.obj
 0002:00007bf0       ??_7ThreadScheduler@details@Concurrency@@6BSchedulerBase@12@@ 0000000180066bf0     libconcrt:ThreadScheduler.obj
 0002:00007da8       ??_7VirtualProcessorRoot@details@Concurrency@@6B@ 0000000180066da8     libconcrt:VirtualProcessorRoot.obj
 0002:00007e00       ??_7FreeVirtualProcessorRoot@details@Concurrency@@6B@ 0000000180066e00     libconcrt:FreeVirtualProcessorRoot.obj
 0002:00007e50       ??_C@_0M@CIMHMGAD@switchState?$AA@ 0000000180066e50     libconcrt:FreeThreadProxy.obj
 0002:00007e90       ??_7ThreadProxy@details@Concurrency@@6B@ 0000000180066e90     libconcrt:ThreadProxy.obj
 0002:00007f18       ??_7ThreadVirtualProcessor@details@Concurrency@@6B@ 0000000180066f18     libconcrt:ThreadVirtualProcessor.obj
 0002:00008038       _pDestructExceptionObject  0000000180067038     libvcruntime:ehhelpers.obj
 0002:00008058       ??_C@_1DM@KHCHBNEB@?$AAa?$AAp?$AAi?$AA?9?$AAm?$AAs?$AA?9?$AAw?$AAi?$AAn?$AA?9?$AAc?$AAo?$AAr?$AAe?$AA?9?$AAf?$AAi?$AAb?$AAe?$AAr?$AAs?$AA?9?$AAl?$AA1?$AA?9?$AA1?$AA?9?$AA1?$AA?$AA@ 0000000180067058     libvcruntime:winapi_downlevel.obj
 0002:00008098       ??_C@_1DK@LPPGFMPP@?$AAa?$AAp?$AAi?$AA?9?$AAm?$AAs?$AA?9?$AAw?$AAi?$AAn?$AA?9?$AAc?$AAo?$AAr?$AAe?$AA?9?$AAs?$AAy?$AAn?$AAc?$AAh?$AA?9?$AAl?$AA1?$AA?9?$AA2?$AA?9?$AA0?$AA?$AA@ 0000000180067098     libvcruntime:winapi_downlevel.obj
 0002:000080d8       ??_C@_1BC@GDMECMAK@?$AAk?$AAe?$AAr?$AAn?$AAe?$AAl?$AA3?$AA2?$AA?$AA@ 00000001800670d8     libvcruntime:winapi_downlevel.obj
 0002:000080f0       ??_C@_1BA@PFFKHIOG@?$AAa?$AAp?$AAi?$AA?9?$AAm?$AAs?$AA?9?$AA?$AA@ 00000001800670f0     libvcruntime:winapi_downlevel.obj
 0002:00008100       ??_C@_1BA@IAIFMGEF@?$AAe?$AAx?$AAt?$AA?9?$AAm?$AAs?$AA?9?$AA?$AA@ 0000000180067100     libvcruntime:winapi_downlevel.obj
 0002:00008140       ??_7bad_typeid@std@@6B@    0000000180067140     libvcruntime:rtti.obj
 0002:00008158       ??_7__non_rtti_object@std@@6B@ 0000000180067158     libvcruntime:rtti.obj
 0002:00008168       ??_C@_0CB@CGKGGDFI@Access?5violation?5?9?5no?5RTTI?5data?$CB@ 0000000180067168     libvcruntime:rtti.obj
 0002:00008190       ??_C@_0BC@JNJNLHBP@Bad?5dynamic_cast?$CB?$AA@ 0000000180067190     libvcruntime:rtti.obj
 0002:000081b0       ??_7bad_exception@std@@6B@ 00000001800671b0     libvcruntime:frame.obj
 0002:000081c0       ??_C@_0O@DPKOEFFH@bad?5exception?$AA@ 00000001800671c0     libvcruntime:frame.obj
 0002:000084f8       ??_C@_08EHJDFFNH@__based?$CI?$AA@ 00000001800674f8     libvcruntime:undname.obj
 0002:00008508       ??_C@_07KOLFKCDI@__cdecl?$AA@ 0000000180067508     libvcruntime:undname.obj
 0002:00008510       ??_C@_08GHMPAG@__pascal?$AA@ 0000000180067510     libvcruntime:undname.obj
 0002:00008520       ??_C@_09IFJBGAPI@__stdcall?$AA@ 0000000180067520     libvcruntime:undname.obj
 0002:00008530       ??_C@_0L@NPHFGOKO@__thiscall?$AA@ 0000000180067530     libvcruntime:undname.obj
 0002:00008540       ??_C@_0L@JMKHOMEK@__fastcall?$AA@ 0000000180067540     libvcruntime:undname.obj
 0002:00008550       ??_C@_0N@BCKKPABJ@__vectorcall?$AA@ 0000000180067550     libvcruntime:undname.obj
 0002:00008560       ??_C@_09HIJEGCPM@__clrcall?$AA@ 0000000180067560     libvcruntime:undname.obj
 0002:0000856c       ??_C@_06GHPCKEAG@__eabi?$AA@ 000000018006756c     libvcruntime:undname.obj
 0002:00008578       ??_C@_07JOMMBBKO@__ptr64?$AA@ 0000000180067578     libvcruntime:undname.obj
 0002:00008580       ??_C@_0L@PILCLIHE@__restrict?$AA@ 0000000180067580     libvcruntime:undname.obj
 0002:00008590       ??_C@_0M@GFIIJFMG@__unaligned?$AA@ 0000000180067590     libvcruntime:undname.obj
 0002:000085a0       ??_C@_09DHDLOLLB@restrict?$CI?$AA@ 00000001800675a0     libvcruntime:undname.obj
 0002:000085ac       ??_C@_04NIHEBCM@?5new?$AA@ 00000001800675ac     libvcruntime:undname.obj
 0002:000085b8       ??_C@_07FPCDHGMM@?5delete?$AA@ 00000001800675b8     libvcruntime:undname.obj
 0002:000085c0       ??_C@_01NEMOKFLO@?$DN?$AA@ 00000001800675c0     libvcruntime:undname.obj
 0002:000085c4       ??_C@_02GPIOPFAK@?$DO?$DO?$AA@ 00000001800675c4     libvcruntime:undname.obj
 0002:000085c8       ??_C@_02FODMEDOG@?$DM?$DM?$AA@ 00000001800675c8     libvcruntime:undname.obj
 0002:000085cc       ??_C@_01DCLJPIOD@?$CB?$AA@ 00000001800675cc     libvcruntime:undname.obj
 0002:000085d0       ??_C@_02EGOFBIJA@?$DN?$DN?$AA@ 00000001800675d0     libvcruntime:undname.obj
 0002:000085d4       ??_C@_02FDNJECIE@?$CB?$DN?$AA@ 00000001800675d4     libvcruntime:undname.obj
 0002:000085d8       ??_C@_02GPECMEKF@?$FL?$FN?$AA@ 00000001800675d8     libvcruntime:undname.obj
 0002:000085e0       ??_C@_08LHJFAFGD@operator?$AA@ 00000001800675e0     libvcruntime:undname.obj
 0002:000085ec       ??_C@_02HBOOOICD@?9?$DO?$AA@ 00000001800675ec     libvcruntime:undname.obj
 0002:000085f0       ??_C@_02ECNGHCIF@?$CL?$CL?$AA@ 00000001800675f0     libvcruntime:undname.obj
 0002:000085f4       ??_C@_02BAABKJLB@?9?9?$AA@ 00000001800675f4     libvcruntime:undname.obj
 0002:000085f8       ??_C@_01MIFGBAGJ@?$CL?$AA@ 00000001800675f8     libvcruntime:undname.obj
 0002:000085fc       ??_C@_01HNPIGOCE@?$CG?$AA@ 00000001800675fc     libvcruntime:undname.obj
 0002:00008600       ??_C@_03MNHNFDLC@?9?$DO?$CK?$AA@ 0000000180067600     libvcruntime:undname.obj
 0002:00008604       ??_C@_01FGNFDNOH@?$CF?$AA@ 0000000180067604     libvcruntime:undname.obj
 0002:00008608       ??_C@_01MNNFJEPP@?$DM?$AA@ 0000000180067608     libvcruntime:undname.obj
 0002:0000860c       ??_C@_02EHCHHCKH@?$DM?$DN?$AA@ 000000018006760c     libvcruntime:undname.obj
 0002:00008610       ??_C@_01PPODPGHN@?$DO?$AA@ 0000000180067610     libvcruntime:undname.obj
 0002:00008614       ??_C@_02EEKDKGMJ@?$DO?$DN?$AA@ 0000000180067614     libvcruntime:undname.obj
 0002:00008618       ??_C@_01IHBHIGKO@?0?$AA@   0000000180067618     libvcruntime:undname.obj
 0002:0000861c       ??_C@_02HCKGKOFO@?$CI?$CJ?$AA@ 000000018006761c     libvcruntime:undname.obj
 0002:00008620       ??_C@_01PJKLJHI@?$HO?$AA@  0000000180067620     libvcruntime:undname.obj
 0002:00008624       ??_C@_01JKBOJNNK@?$FO?$AA@ 0000000180067624     libvcruntime:undname.obj
 0002:00008628       ??_C@_01DNKMNLPK@?$HM?$AA@ 0000000180067628     libvcruntime:undname.obj
 0002:0000862c       ??_C@_02PPKAJPJL@?$CG?$CG?$AA@ 000000018006762c     libvcruntime:undname.obj
 0002:00008630       ??_C@_02NONPIBCD@?$HM?$HM?$AA@ 0000000180067630     libvcruntime:undname.obj
 0002:00008634       ??_C@_02FPIMKNGF@?$CK?$DN?$AA@ 0000000180067634     libvcruntime:undname.obj
 0002:00008638       ??_C@_02FOEOMHFC@?$CL?$DN?$AA@ 0000000180067638     libvcruntime:undname.obj
 0002:0000863c       ??_C@_02FKMDLLOA@?9?$DN?$AA@ 000000018006763c     libvcruntime:undname.obj
 0002:00008640       ??_C@_02FJEHGPIO@?1?$DN?$AA@ 0000000180067640     libvcruntime:undname.obj
 0002:00008644       ??_C@_02FENAOKFI@?$CF?$DN?$AA@ 0000000180067644     libvcruntime:undname.obj
 0002:00008648       ??_C@_03IKFCCPFF@?$DO?$DO?$DN?$AA@ 0000000180067648     libvcruntime:undname.obj
 0002:0000864c       ??_C@_03CDNPDDLA@?$DM?$DM?$DN?$AA@ 000000018006764c     libvcruntime:undname.obj
 0002:00008650       ??_C@_02FGJGFEAB@?$CG?$DN?$AA@ 0000000180067650     libvcruntime:undname.obj
 0002:00008654       ??_C@_02DHLNPPGH@?$HM?$DN?$AA@ 0000000180067654     libvcruntime:undname.obj
 0002:00008658       ??_C@_02MHEGNOJ@?$FO?$DN?$AA@ 0000000180067658     libvcruntime:undname.obj
 0002:00008660       ??_C@_09IFPLHPGF@?$GAvftable?8?$AA@ 0000000180067660     libvcruntime:undname.obj
 0002:00008670       ??_C@_09BLBHBJP@?$GAvbtable?8?$AA@ 0000000180067670     libvcruntime:undname.obj
 0002:00008680       ??_C@_07FEEIOKP@?$GAvcall?8?$AA@ 0000000180067680     libvcruntime:undname.obj
 0002:00008688       ??_C@_08LLFFHHDJ@?$GAtypeof?8?$AA@ 0000000180067688     libvcruntime:undname.obj
 0002:00008698       ??_C@_0BF@KDPPACIK@?$GAlocal?5static?5guard?8?$AA@ 0000000180067698     libvcruntime:undname.obj
 0002:000086b0       ??_C@_08OBABFOLI@?$GAstring?8?$AA@ 00000001800676b0     libvcruntime:undname.obj
 0002:000086c0       ??_C@_0BD@JDLKDPAB@?$GAvbase?5destructor?8?$AA@ 00000001800676c0     libvcruntime:undname.obj
 0002:000086d8       ??_C@_0BN@DEGPLNFK@?$GAvector?5deleting?5destructor?8?$AA@ 00000001800676d8     libvcruntime:undname.obj
 0002:000086f8       ??_C@_0BO@OBMKPJIG@?$GAdefault?5constructor?5closure?8?$AA@ 00000001800676f8     libvcruntime:undname.obj
 0002:00008718       ??_C@_0BN@IMDCHIKM@?$GAscalar?5deleting?5destructor?8?$AA@ 0000000180067718     libvcruntime:undname.obj
 0002:00008738       ??_C@_0BO@PFGOCPJJ@?$GAvector?5constructor?5iterator?8?$AA@ 0000000180067738     libvcruntime:undname.obj
 0002:00008758       ??_C@_0BN@LFPFMEDL@?$GAvector?5destructor?5iterator?8?$AA@ 0000000180067758     libvcruntime:undname.obj
 0002:00008778       ??_C@_0CE@IKBNEHA@?$GAvector?5vbase?5constructor?5iterat@ 0000000180067778     libvcruntime:undname.obj
 0002:000087a0       ??_C@_0BL@NILFHHPC@?$GAvirtual?5displacement?5map?8?$AA@ 00000001800677a0     libvcruntime:undname.obj
 0002:000087c0       ??_C@_0CB@JONCMFFK@?$GAeh?5vector?5constructor?5iterator?8@ 00000001800677c0     libvcruntime:undname.obj
 0002:000087e8       ??_C@_0CA@GCEOPDGL@?$GAeh?5vector?5destructor?5iterator?8?$AA@ 00000001800677e8     libvcruntime:undname.obj
 0002:00008808       ??_C@_0CH@OOJPLCPH@?$GAeh?5vector?5vbase?5constructor?5ite@ 0000000180067808     libvcruntime:undname.obj
 0002:00008830       ??_C@_0BL@LLKPOHJI@?$GAcopy?5constructor?5closure?8?$AA@ 0000000180067830     libvcruntime:undname.obj
 0002:00008850       ??_C@_0BA@KBCDOMBN@?$GAudt?5returning?8?$AA@ 0000000180067850     libvcruntime:undname.obj
 0002:00008860       ??_C@_03KLGMFNMG@?$GAEH?$AA@ 0000000180067860     libvcruntime:undname.obj
 0002:00008864       ??_C@_05KHLCHHI@?$GARTTI?$AA@ 0000000180067864     libvcruntime:undname.obj
 0002:00008870       ??_C@_0BA@KKLDJDLB@?$GAlocal?5vftable?8?$AA@ 0000000180067870     libvcruntime:undname.obj
 0002:00008880       ??_C@_0CE@IIHCMGGL@?$GAlocal?5vftable?5constructor?5closu@ 0000000180067880     libvcruntime:undname.obj
 0002:000088a4       ??_C@_06FHBGPFGH@?5new?$FL?$FN?$AA@ 00000001800678a4     libvcruntime:undname.obj
 0002:000088b0       ??_C@_09LBNFPBCA@?5delete?$FL?$FN?$AA@ 00000001800678b0     libvcruntime:undname.obj
 0002:000088c0       ??_C@_0P@HJKNJFNN@?$GAomni?5callsig?8?$AA@ 00000001800678c0     libvcruntime:undname.obj
 0002:000088d0       ??_C@_0BL@CNOONJFP@?$GAplacement?5delete?5closure?8?$AA@ 00000001800678d0     libvcruntime:undname.obj
 0002:000088f0       ??_C@_0BN@CKNJLHMB@?$GAplacement?5delete?$FL?$FN?5closure?8?$AA@ 00000001800678f0     libvcruntime:undname.obj
 0002:00008910       ??_C@_0CG@CFDHKGGD@?$GAmanaged?5vector?5constructor?5iter@ 0000000180067910     libvcruntime:undname.obj
 0002:00008938       ??_C@_0CF@IMGKMJNO@?$GAmanaged?5vector?5destructor?5itera@ 0000000180067938     libvcruntime:undname.obj
 0002:00008960       ??_C@_0CG@HLDDJMAG@?$GAeh?5vector?5copy?5constructor?5iter@ 0000000180067960     libvcruntime:undname.obj
 0002:00008988       ??_C@_0CM@FCBBDIGB@?$GAeh?5vector?5vbase?5copy?5constructo@ 0000000180067988     libvcruntime:undname.obj
 0002:000089b8       ??_C@_0BL@CLIPGLGB@?$GAdynamic?5initializer?5for?5?8?$AA@ 00000001800679b8     libvcruntime:undname.obj
 0002:000089d8       ??_C@_0CB@PDBIFEP@?$GAdynamic?5atexit?5destructor?5for?5?8@ 00000001800679d8     libvcruntime:undname.obj
 0002:00008a00       ??_C@_0CD@CGAJBKEJ@?$GAvector?5copy?5constructor?5iterato@ 0000000180067a00     libvcruntime:undname.obj
 0002:00008a28       ??_C@_0CJ@GJELGAMM@?$GAvector?5vbase?5copy?5constructor?5i@ 0000000180067a28     libvcruntime:undname.obj
 0002:00008a58       ??_C@_0CL@FGIJHLCE@?$GAmanaged?5vector?5copy?5constructor@ 0000000180067a58     libvcruntime:undname.obj
 0002:00008a88       ??_C@_0BM@PMGGMLDN@?$GAlocal?5static?5thread?5guard?8?$AA@ 0000000180067a88     libvcruntime:undname.obj
 0002:00008aa8       ??_C@_0N@BDNMDMOL@operator?5?$CC?$CC?5?$AA@ 0000000180067aa8     libvcruntime:undname.obj
 0002:00008ab8       ??_C@_0BC@GGEBGALA@operator?5co_await?$AA@ 0000000180067ab8     libvcruntime:undname.obj
 0002:00008ad0       ??_C@_0BC@DAFEJGAK@?5Type?5Descriptor?8?$AA@ 0000000180067ad0     libvcruntime:undname.obj
 0002:00008ae8       ??_C@_0BM@LDKODKLH@?5Base?5Class?5Descriptor?5at?5?$CI?$AA@ 0000000180067ae8     libvcruntime:undname.obj
 0002:00008b08       ??_C@_0BD@LGICGFMM@?5Base?5Class?5Array?8?$AA@ 0000000180067b08     libvcruntime:undname.obj
 0002:00008b20       ??_C@_0BN@MECKDCOJ@?5Class?5Hierarchy?5Descriptor?8?$AA@ 0000000180067b20     libvcruntime:undname.obj
 0002:00008b40       ??_C@_0BK@CFCOFLF@?5Complete?5Object?5Locator?8?$AA@ 0000000180067b40     libvcruntime:undname.obj
 0002:00008cc0       standard_lookup_table      0000000180067cc0     libucrt:output.obj
 0002:00008d20       format_validation_lookup_table 0000000180067d20     libucrt:output.obj
 0002:00008d80       ??_C@_1O@CEDCILHN@?$AA?$CI?$AAn?$AAu?$AAl?$AAl?$AA?$CJ?$AA?$AA@ 0000000180067d80     libucrt:output.obj
 0002:00008d90       ??_C@_06OJHGLDPL@?$CInull?$CJ?$AA@ 0000000180067d90     libucrt:output.obj
 0002:00008d98       __real@8000000000000000    0000000180067d98     libucrt:frexp.obj
 0002:00008da0       __newctype                 0000000180067da0     libucrt:ctype.obj
 0002:000090a0       __newclmap                 00000001800680a0     libucrt:ctype.obj
 0002:00009220       __newcumap                 0000000180068220     libucrt:ctype.obj
 0002:000093a0       _wctype                    00000001800683a0     libucrt:ctype.obj
 0002:000095b0       ?large_power_data@?1??multiply_by_power_of_ten@__crt_strtox@@YA_NAEAUbig_integer@2@I@Z@4QBIB 00000001800685b0     libucrt:strtod.obj
 0002:00009ec0       ?large_power_indices@?1??multiply_by_power_of_ten@__crt_strtox@@YA_NAEAUbig_integer@2@I@Z@4QBUunpack_index@?1??12@YA_N0I@Z@B 0000000180068ec0     libucrt:strtod.obj
 0002:00009f58       ?small_powers_of_ten@?1??multiply_by_power_of_ten@__crt_strtox@@YA_NAEAUbig_integer@2@I@Z@4QBIB 0000000180068f58     libucrt:strtod.obj
 0002:0000bc30       __acrt_exception_action_table 000000018006ac30     libucrt:exception_filter.obj
 0002:0000bcf0       __acrt_signal_action_table_count 000000018006acf0     libucrt:exception_filter.obj
 0002:0000bcf8       __acrt_signal_action_first_fpe_index 000000018006acf8     libucrt:exception_filter.obj
 0002:0000bd00       __acrt_signal_action_fpe_count 000000018006ad00     libucrt:exception_filter.obj
 0002:0000bd08       ??_C@_1BI@BGOHAHKC@?$AAm?$AAs?$AAc?$AAo?$AAr?$AAe?$AAe?$AA?4?$AAd?$AAl?$AAl?$AA?$AA@ 000000018006ad08     libucrt:exit.obj
 0002:0000bd20       ??_C@_0P@MIGLKIOC@CorExitProcess?$AA@ 000000018006ad20     libucrt:exit.obj
 0002:0000bf30       __lc_category              000000018006af30     libucrt:wsetlocale.obj
 0002:0000bfc0       ??_C@_1O@GIFLHMA@?$AAL?$AAC?$AA_?$AAA?$AAL?$AAL?$AA?$AA@ 000000018006afc0     libucrt:wsetlocale.obj
 0002:0000bfd0       ??_C@_1BG@PPOMIBNJ@?$AAL?$AAC?$AA_?$AAC?$AAO?$AAL?$AAL?$AAA?$AAT?$AAE?$AA?$AA@ 000000018006afd0     libucrt:wsetlocale.obj
 0002:0000bfe8       ??_C@_1BC@FFJGAPJM@?$AAL?$AAC?$AA_?$AAC?$AAT?$AAY?$AAP?$AAE?$AA?$AA@ 000000018006afe8     libucrt:wsetlocale.obj
 0002:0000c000       ??_C@_1BI@PCKFNJFB@?$AAL?$AAC?$AA_?$AAM?$AAO?$AAN?$AAE?$AAT?$AAA?$AAR?$AAY?$AA?$AA@ 000000018006b000     libucrt:wsetlocale.obj
 0002:0000c018       ??_C@_1BG@ENIEDKID@?$AAL?$AAC?$AA_?$AAN?$AAU?$AAM?$AAE?$AAR?$AAI?$AAC?$AA?$AA@ 000000018006b018     libucrt:wsetlocale.obj
 0002:0000c030       ??_C@_1BA@HAAOMIIG@?$AAL?$AAC?$AA_?$AAT?$AAI?$AAM?$AAE?$AA?$AA@ 000000018006b030     libucrt:wsetlocale.obj
 0002:0000c0c0       ??_C@_15NBPDDFIP@?$AA?$DN?$AA?$DL?$AA?$AA@ 000000018006b0c0     libucrt:wsetlocale.obj
 0002:0000c0c8       ??_C@_13PJJBFPED@?$AA?$DL?$AA?$AA@ 000000018006b0c8     libucrt:wsetlocale.obj
 0002:0000c0cc       ??_C@_13NMPKAAJP@?$AA?$DN?$AA?$AA@ 000000018006b0cc     libucrt:wsetlocale.obj
 0002:0000c0d0       ??_C@_13FHBKNHDA@?$AAC?$AA?$AA@ 000000018006b0d0     libucrt:wsetlocale.obj
 0002:0000c0d8       ??_C@_17MBJJLFDM@?$AA_?$AA?4?$AA?0?$AA?$AA@ 000000018006b0d8     libucrt:wsetlocale.obj
 0002:0000c0e0       ??_C@_13ENNFDPBH@?$AA_?$AA?$AA@ 000000018006b0e0     libucrt:wsetlocale.obj
 0002:0000c0e4       ??_C@_13JOFGPIOO@?$AA?4?$AA?$AA@ 000000018006b0e4     libucrt:wsetlocale.obj
 0002:0000c0f0       __lc_time_c                000000018006b0f0     libucrt:nlsdata.obj
 0002:0000c3b0       ??_C@_03KOEHGMDN@Sun?$AA@  000000018006b3b0     libucrt:nlsdata.obj
 0002:0000c3b4       ??_C@_03PDAGKDH@Mon?$AA@   000000018006b3b4     libucrt:nlsdata.obj
 0002:0000c3b8       ??_C@_03NAGEINEP@Tue?$AA@  000000018006b3b8     libucrt:nlsdata.obj
 0002:0000c3bc       ??_C@_03MHOMLAJA@Wed?$AA@  000000018006b3bc     libucrt:nlsdata.obj
 0002:0000c3c0       ??_C@_03IOFIKPDN@Thu?$AA@  000000018006b3c0     libucrt:nlsdata.obj
 0002:0000c3c4       ??_C@_03IDIOELNC@Fri?$AA@  000000018006b3c4     libucrt:nlsdata.obj
 0002:0000c3c8       ??_C@_03FEFJNEK@Sat?$AA@   000000018006b3c8     libucrt:nlsdata.obj
 0002:0000c3cc       ??_C@_06OOPIFAJ@Sunday?$AA@ 000000018006b3cc     libucrt:nlsdata.obj
 0002:0000c3d4       ??_C@_06JLEDEDGH@Monday?$AA@ 000000018006b3d4     libucrt:nlsdata.obj
 0002:0000c3e0       ??_C@_07BAAGCFCM@Tuesday?$AA@ 000000018006b3e0     libucrt:nlsdata.obj
 0002:0000c3e8       ??_C@_09DLIGFAKA@Wednesday?$AA@ 000000018006b3e8     libucrt:nlsdata.obj
 0002:0000c3f8       ??_C@_08HACCIKIA@Thursday?$AA@ 000000018006b3f8     libucrt:nlsdata.obj
 0002:0000c404       ??_C@_06JECMNKMI@Friday?$AA@ 000000018006b404     libucrt:nlsdata.obj
 0002:0000c410       ??_C@_08INBOOONO@Saturday?$AA@ 000000018006b410     libucrt:nlsdata.obj
 0002:0000c41c       ??_C@_03JIHJHPIE@Jan?$AA@  000000018006b41c     libucrt:nlsdata.obj
 0002:0000c420       ??_C@_03HJBDCHOM@Feb?$AA@  000000018006b420     libucrt:nlsdata.obj
 0002:0000c424       ??_C@_03ODNJBKGA@Mar?$AA@  000000018006b424     libucrt:nlsdata.obj
 0002:0000c428       ??_C@_03LEOLGMJP@Apr?$AA@  000000018006b428     libucrt:nlsdata.obj
 0002:0000c42c       ??_C@_03CNMDKL@May?$AA@    000000018006b42c     libucrt:nlsdata.obj
 0002:0000c430       ??_C@_03IDFGHECI@Jun?$AA@  000000018006b430     libucrt:nlsdata.obj
 0002:0000c434       ??_C@_03LBGABGKK@Jul?$AA@  000000018006b434     libucrt:nlsdata.obj
 0002:0000c438       ??_C@_03IFJFEIGA@Aug?$AA@  000000018006b438     libucrt:nlsdata.obj
 0002:0000c43c       ??_C@_03GGCAPAJC@Sep?$AA@  000000018006b43c     libucrt:nlsdata.obj
 0002:0000c440       ??_C@_03BMAOKBAD@Oct?$AA@  000000018006b440     libucrt:nlsdata.obj
 0002:0000c444       ??_C@_03JPJOFNIA@Nov?$AA@  000000018006b444     libucrt:nlsdata.obj
 0002:0000c448       ??_C@_03MKABNOCG@Dec?$AA@  000000018006b448     libucrt:nlsdata.obj
 0002:0000c450       ??_C@_07CGJPFGJA@January?$AA@ 000000018006b450     libucrt:nlsdata.obj
 0002:0000c458       ??_C@_08GNJGEPFN@February?$AA@ 000000018006b458     libucrt:nlsdata.obj
 0002:0000c464       ??_C@_05HPCKOFNC@March?$AA@ 000000018006b464     libucrt:nlsdata.obj
 0002:0000c46c       ??_C@_05DMJDNLEJ@April?$AA@ 000000018006b46c     libucrt:nlsdata.obj
 0002:0000c474       ??_C@_04CNLMGBGM@June?$AA@ 000000018006b474     libucrt:nlsdata.obj
 0002:0000c47c       ??_C@_04MIEPOIFP@July?$AA@ 000000018006b47c     libucrt:nlsdata.obj
 0002:0000c484       ??_C@_06LBBHFDDG@August?$AA@ 000000018006b484     libucrt:nlsdata.obj
 0002:0000c490       ??_C@_09BHHEALKD@September?$AA@ 000000018006b490     libucrt:nlsdata.obj
 0002:0000c4a0       ??_C@_07JJNFCEND@October?$AA@ 000000018006b4a0     libucrt:nlsdata.obj
 0002:0000c4a8       ??_C@_08HCHEGEOA@November?$AA@ 000000018006b4a8     libucrt:nlsdata.obj
 0002:0000c4b8       ??_C@_08EDHMEBNP@December?$AA@ 000000018006b4b8     libucrt:nlsdata.obj
 0002:0000c4c4       ??_C@_02DEDBPAFC@AM?$AA@   000000018006b4c4     libucrt:nlsdata.obj
 0002:0000c4c8       ??_C@_02CJNFDJBF@PM?$AA@   000000018006b4c8     libucrt:nlsdata.obj
 0002:0000c4d0       ??_C@_08BPBNCDIB@MM?1dd?1yy?$AA@ 000000018006b4d0     libucrt:nlsdata.obj
 0002:0000c4e0       ??_C@_0BE@CKGJFCPC@dddd?0?5MMMM?5dd?0?5yyyy?$AA@ 000000018006b4e0     libucrt:nlsdata.obj
 0002:0000c4f8       ??_C@_08JCCMCCIL@HH?3mm?3ss?$AA@ 000000018006b4f8     libucrt:nlsdata.obj
 0002:0000c508       ??_C@_17MBGCMIPB@?$AAS?$AAu?$AAn?$AA?$AA@ 000000018006b508     libucrt:nlsdata.obj
 0002:0000c510       ??_C@_17KBOMKBF@?$AAM?$AAo?$AAn?$AA?$AA@ 000000018006b510     libucrt:nlsdata.obj
 0002:0000c518       ??_C@_17BMKGEGOJ@?$AAT?$AAu?$AAe?$AA?$AA@ 000000018006b518     libucrt:nlsdata.obj
 0002:0000c520       ??_C@_17CJEDCEPE@?$AAW?$AAe?$AAd?$AA?$AA@ 000000018006b520     libucrt:nlsdata.obj
 0002:0000c528       ??_C@_17PDPHAADD@?$AAT?$AAh?$AAu?$AA?$AA@ 000000018006b528     libucrt:nlsdata.obj
 0002:0000c530       ??_C@_17HFOLPPLP@?$AAF?$AAr?$AAi?$AA?$AA@ 000000018006b530     libucrt:nlsdata.obj
 0002:0000c538       ??_C@_17GGIBDPIH@?$AAS?$AAa?$AAt?$AA?$AA@ 000000018006b538     libucrt:nlsdata.obj
 0002:0000c540       ??_C@_1O@IHNHDHPB@?$AAS?$AAu?$AAn?$AAd?$AAa?$AAy?$AA?$AA@ 000000018006b540     libucrt:nlsdata.obj
 0002:0000c550       ??_C@_1O@MMNBFLIA@?$AAM?$AAo?$AAn?$AAd?$AAa?$AAy?$AA?$AA@ 000000018006b550     libucrt:nlsdata.obj
 0002:0000c560       ??_C@_1BA@ENFBFFEK@?$AAT?$AAu?$AAe?$AAs?$AAd?$AAa?$AAy?$AA?$AA@ 000000018006b560     libucrt:nlsdata.obj
 0002:0000c570       ??_C@_1BE@EBOGMDOH@?$AAW?$AAe?$AAd?$AAn?$AAe?$AAs?$AAd?$AAa?$AAy?$AA?$AA@ 000000018006b570     libucrt:nlsdata.obj
 0002:0000c588       ??_C@_1BC@HHMNLIHE@?$AAT?$AAh?$AAu?$AAr?$AAs?$AAd?$AAa?$AAy?$AA?$AA@ 000000018006b588     libucrt:nlsdata.obj
 0002:0000c5a0       ??_C@_1O@PDICJHAG@?$AAF?$AAr?$AAi?$AAd?$AAa?$AAy?$AA?$AA@ 000000018006b5a0     libucrt:nlsdata.obj
 0002:0000c5b0       ??_C@_1BC@ENMNNPAJ@?$AAS?$AAa?$AAt?$AAu?$AAr?$AAd?$AAa?$AAy?$AA?$AA@ 000000018006b5b0     libucrt:nlsdata.obj
 0002:0000c5c8       ??_C@_17DKNBKCHM@?$AAJ?$AAa?$AAn?$AA?$AA@ 000000018006b5c8     libucrt:nlsdata.obj
 0002:0000c5d0       ??_C@_17LMDJEKJN@?$AAF?$AAe?$AAb?$AA?$AA@ 000000018006b5d0     libucrt:nlsdata.obj
 0002:0000c5d8       ??_C@_17CKNLEDEC@?$AAM?$AAa?$AAr?$AA?$AA@ 000000018006b5d8     libucrt:nlsdata.obj
 0002:0000c5e0       ??_C@_17LFPOIHDD@?$AAA?$AAp?$AAr?$AA?$AA@ 000000018006b5e0     libucrt:nlsdata.obj
 0002:0000c5e8       ??_C@_17PNNKMEED@?$AAM?$AAa?$AAy?$AA?$AA@ 000000018006b5e8     libucrt:nlsdata.obj
 0002:0000c5f0       ??_C@_17KCJGOCPB@?$AAJ?$AAu?$AAn?$AA?$AA@ 000000018006b5f0     libucrt:nlsdata.obj
 0002:0000c5f8       ??_C@_17IJPCKHK@?$AAJ?$AAu?$AAl?$AA?$AA@ 000000018006b5f8     libucrt:nlsdata.obj
 0002:0000c600       ??_C@_17ICPELBCN@?$AAA?$AAu?$AAg?$AA?$AA@ 000000018006b600     libucrt:nlsdata.obj
 0002:0000c608       ??_C@_17HCHCOKMG@?$AAS?$AAe?$AAp?$AA?$AA@ 000000018006b608     libucrt:nlsdata.obj
 0002:0000c610       ??_C@_17FNLKOI@?$AAO?$AAc?$AAt?$AA?$AA@ 000000018006b610     libucrt:nlsdata.obj
 0002:0000c618       ??_C@_17BBDMLCIG@?$AAN?$AAo?$AAv?$AA?$AA@ 000000018006b618     libucrt:nlsdata.obj
 0002:0000c620       ??_C@_17EGKACKIF@?$AAD?$AAe?$AAc?$AA?$AA@ 000000018006b620     libucrt:nlsdata.obj
 0002:0000c628       ??_C@_1BA@EFMEIEBA@?$AAJ?$AAa?$AAn?$AAu?$AAa?$AAr?$AAy?$AA?$AA@ 000000018006b628     libucrt:nlsdata.obj
 0002:0000c638       ??_C@_1BC@JGDDFFAM@?$AAF?$AAe?$AAb?$AAr?$AAu?$AAa?$AAr?$AAy?$AA?$AA@ 000000018006b638     libucrt:nlsdata.obj
 0002:0000c650       ??_C@_1M@IKEENEDF@?$AAM?$AAa?$AAr?$AAc?$AAh?$AA?$AA@ 000000018006b650     libucrt:nlsdata.obj
 0002:0000c660       ??_C@_1M@GJNLMHFD@?$AAA?$AAp?$AAr?$AAi?$AAl?$AA?$AA@ 000000018006b660     libucrt:nlsdata.obj
 0002:0000c670       ??_C@_19EPFLPGAP@?$AAJ?$AAu?$AAn?$AAe?$AA?$AA@ 000000018006b670     libucrt:nlsdata.obj
 0002:0000c680       ??_C@_19BIFMLPCD@?$AAJ?$AAu?$AAl?$AAy?$AA?$AA@ 000000018006b680     libucrt:nlsdata.obj
 0002:0000c690       ??_C@_1O@PAHLKOAC@?$AAA?$AAu?$AAg?$AAu?$AAs?$AAt?$AA?$AA@ 000000018006b690     libucrt:nlsdata.obj
 0002:0000c6a0       ??_C@_1BE@DKAAMBJL@?$AAS?$AAe?$AAp?$AAt?$AAe?$AAm?$AAb?$AAe?$AAr?$AA?$AA@ 000000018006b6a0     libucrt:nlsdata.obj
 0002:0000c6b8       ??_C@_1BA@EPANDLNG@?$AAO?$AAc?$AAt?$AAo?$AAb?$AAe?$AAr?$AA?$AA@ 000000018006b6b8     libucrt:nlsdata.obj
 0002:0000c6c8       ??_C@_1BC@BGLIFPF@?$AAN?$AAo?$AAv?$AAe?$AAm?$AAb?$AAe?$AAr?$AA?$AA@ 000000018006b6c8     libucrt:nlsdata.obj
 0002:0000c6e0       ??_C@_1BC@FEMKIFH@?$AAD?$AAe?$AAc?$AAe?$AAm?$AAb?$AAe?$AAr?$AA?$AA@ 000000018006b6e0     libucrt:nlsdata.obj
 0002:0000c6f4       ??_C@_15ODEHAHHF@?$AAA?$AAM?$AA?$AA@ 000000018006b6f4     libucrt:nlsdata.obj
 0002:0000c6fc       ??_C@_15CLMNNGEL@?$AAP?$AAM?$AA?$AA@ 000000018006b6fc     libucrt:nlsdata.obj
 0002:0000c708       ??_C@_1BC@IEBCMHCM@?$AAM?$AAM?$AA?1?$AAd?$AAd?$AA?1?$AAy?$AAy?$AA?$AA@ 000000018006b708     libucrt:nlsdata.obj
 0002:0000c720       ??_C@_1CI@KNAKOEBC@?$AAd?$AAd?$AAd?$AAd?$AA?0?$AA?5?$AAM?$AAM?$AAM?$AAM?$AA?5?$AAd?$AAd?$AA?0?$AA?5?$AAy?$AAy?$AAy?$AAy?$AA?$AA@ 000000018006b720     libucrt:nlsdata.obj
 0002:0000c748       ??_C@_1BC@GDGBMEMK@?$AAH?$AAH?$AA?3?$AAm?$AAm?$AA?3?$AAs?$AAs?$AA?$AA@ 000000018006b748     libucrt:nlsdata.obj
 0002:0000c75c       ??_C@_03OEIAHPBN@INF?$AA@  000000018006b75c     libucrt:cvt.obj
 0002:0000c760       ??_C@_03OJHLLCGB@inf?$AA@  000000018006b760     libucrt:cvt.obj
 0002:0000c764       ??_C@_03LKNCIKJB@NAN?$AA@  000000018006b764     libucrt:cvt.obj
 0002:0000c768       ??_C@_03LHCJEHON@nan?$AA@  000000018006b768     libucrt:cvt.obj
 0002:0000c770       ??_C@_09OFJJIMPC@NAN?$CISNAN?$CJ?$AA@ 000000018006b770     libucrt:cvt.obj
 0002:0000c780       ??_C@_09IPFBKMDL@nan?$CIsnan?$CJ?$AA@ 000000018006b780     libucrt:cvt.obj
 0002:0000c790       ??_C@_08IKHNHAJ@NAN?$CIIND?$CJ?$AA@ 000000018006b790     libucrt:cvt.obj
 0002:0000c7a0       ??_C@_08OFCDMILK@nan?$CIind?$CJ?$AA@ 000000018006b7a0     libucrt:cvt.obj
 0002:0000c7ac       ??_C@_05KLBDPFGC@e?$CL000?$AA@ 000000018006b7ac     libucrt:cvt.obj
 0002:0000c990       ??_C@_03KHJOGHMM@exp?$AA@  000000018006b990     libucrt:fpexcept.obj
 0002:0000c994       ??_C@_03JGHBODFD@pow?$AA@  000000018006b994     libucrt:fpexcept.obj
 0002:0000c998       ??_C@_03MGHMBJCF@log?$AA@  000000018006b998     libucrt:fpexcept.obj
 0002:0000c99c       ??_C@_05HGHHAHAP@log10?$AA@ 000000018006b99c     libucrt:fpexcept.obj
 0002:0000c9a4       ??_C@_04COOMCNPB@sinh?$AA@ 000000018006b9a4     libucrt:fpexcept.obj
 0002:0000c9ac       ??_C@_04HPJJNFIM@cosh?$AA@ 000000018006b9ac     libucrt:fpexcept.obj
 0002:0000c9b4       ??_C@_04FJHINJAO@tanh?$AA@ 000000018006b9b4     libucrt:fpexcept.obj
 0002:0000c9bc       ??_C@_04FIHNOPOL@asin?$AA@ 000000018006b9bc     libucrt:fpexcept.obj
 0002:0000c9c4       ??_C@_04PDIFKINK@acos?$AA@ 000000018006b9c4     libucrt:fpexcept.obj
 0002:0000c9cc       ??_C@_04MLLJIGOK@atan?$AA@ 000000018006b9cc     libucrt:fpexcept.obj
 0002:0000c9d4       ??_C@_05KNGEOGJB@atan2?$AA@ 000000018006b9d4     libucrt:fpexcept.obj
 0002:0000c9dc       ??_C@_04EIAKFFMI@sqrt?$AA@ 000000018006b9dc     libucrt:fpexcept.obj
 0002:0000c9e4       ??_C@_03BLEJJJBH@sin?$AA@  000000018006b9e4     libucrt:fpexcept.obj
 0002:0000c9e8       ??_C@_03LALBNOCG@cos?$AA@  000000018006b9e8     libucrt:fpexcept.obj
 0002:0000c9ec       ??_C@_03IIINPABG@tan?$AA@  000000018006b9ec     libucrt:fpexcept.obj
 0002:0000c9f0       ??_C@_04GFPJNGEK@ceil?$AA@ 000000018006b9f0     libucrt:fpexcept.obj
 0002:0000c9f8       ??_C@_05PBJFFIGL@floor?$AA@ 000000018006b9f8     libucrt:fpexcept.obj
 0002:0000ca00       ??_C@_04ODHECPBC@fabs?$AA@ 000000018006ba00     libucrt:fpexcept.obj
 0002:0000ca08       ??_C@_04EHEDPDJG@modf?$AA@ 000000018006ba08     libucrt:fpexcept.obj
 0002:0000ca10       ??_C@_05CEJMAHNP@ldexp?$AA@ 000000018006ba10     libucrt:fpexcept.obj
 0002:0000ca18       ??_C@_05KBKMEMPO@_cabs?$AA@ 000000018006ba18     libucrt:fpexcept.obj
 0002:0000ca20       ??_C@_06MEIMCGCF@_hypot?$AA@ 000000018006ba20     libucrt:fpexcept.obj
 0002:0000ca28       ??_C@_04KEPJIHGP@fmod?$AA@ 000000018006ba28     libucrt:fpexcept.obj
 0002:0000ca30       ??_C@_05GKKHEGJL@frexp?$AA@ 000000018006ba30     libucrt:fpexcept.obj
 0002:0000ca38       ??_C@_03MJLDFKDL@_y0?$AA@  000000018006ba38     libucrt:fpexcept.obj
 0002:0000ca3c       ??_C@_03NAKIGLHK@_y1?$AA@  000000018006ba3c     libucrt:fpexcept.obj
 0002:0000ca40       ??_C@_03ONILCKOB@_yn?$AA@  000000018006ba40     libucrt:fpexcept.obj
 0002:0000ca44       ??_C@_05JGDBENOH@_logb?$AA@ 000000018006ba44     libucrt:fpexcept.obj
 0002:0000ca50       ??_C@_0L@KDOEJCKC@_nextafter?$AA@ 000000018006ba50     libucrt:fpexcept.obj
 0002:0000ca60       _d_inf                     000000018006ba60     libucrt:util.obj
 0002:0000ca68       _d_max                     000000018006ba68     libucrt:util.obj
 0002:0000cb10       ??_C@_1EA@JGEFHKEI@?$AAa?$AAp?$AAi?$AA?9?$AAm?$AAs?$AA?9?$AAw?$AAi?$AAn?$AA?9?$AAc?$AAo?$AAr?$AAe?$AA?9?$AAd?$AAa?$AAt?$AAe?$AAt?$AAi?$AAm?$AAe?$AA?9?$AAl?$AA1?$AA?9?$AA1?$AA?9?$AA1?$AA?$AA@ 000000018006bb10     libucrt:winapi_thunks.obj
 0002:0000cb50       ??_C@_1DI@IJCEHOCB@?$AAa?$AAp?$AAi?$AA?9?$AAm?$AAs?$AA?9?$AAw?$AAi?$AAn?$AA?9?$AAc?$AAo?$AAr?$AAe?$AA?9?$AAf?$AAi?$AAl?$AAe?$AA?9?$AAl?$AA1?$AA?9?$AA2?$AA?9?$AA2?$AA?$AA@ 000000018006bb50     libucrt:winapi_thunks.obj
 0002:0000cb90       ??_C@_1EI@MPIAOHOC@?$AAa?$AAp?$AAi?$AA?9?$AAm?$AAs?$AA?9?$AAw?$AAi?$AAn?$AA?9?$AAc?$AAo?$AAr?$AAe?$AA?9?$AAl?$AAo?$AAc?$AAa?$AAl?$AAi?$AAz?$AAa?$AAt?$AAi?$AAo?$AAn?$AA?9?$AAl?$AA1?$AA?9@ 000000018006bb90     libucrt:winapi_thunks.obj
 0002:0000cbe0       ??_C@_1FK@FPHCKFIE@?$AAa?$AAp?$AAi?$AA?9?$AAm?$AAs?$AA?9?$AAw?$AAi?$AAn?$AA?9?$AAc?$AAo?$AAr?$AAe?$AA?9?$AAl?$AAo?$AAc?$AAa?$AAl?$AAi?$AAz?$AAa?$AAt?$AAi?$AAo?$AAn?$AA?9?$AAo?$AAb?$AAs@ 000000018006bbe0     libucrt:winapi_thunks.obj
 0002:0000cc40       ??_C@_1EM@DILCGIIO@?$AAa?$AAp?$AAi?$AA?9?$AAm?$AAs?$AA?9?$AAw?$AAi?$AAn?$AA?9?$AAc?$AAo?$AAr?$AAe?$AA?9?$AAp?$AAr?$AAo?$AAc?$AAe?$AAs?$AAs?$AAt?$AAh?$AAr?$AAe?$AAa?$AAd?$AAs?$AA?9?$AAl@ 000000018006bc40     libucrt:winapi_thunks.obj
 0002:0000cc90       ??_C@_1DM@LNCGDDPN@?$AAa?$AAp?$AAi?$AA?9?$AAm?$AAs?$AA?9?$AAw?$AAi?$AAn?$AA?9?$AAc?$AAo?$AAr?$AAe?$AA?9?$AAs?$AAt?$AAr?$AAi?$AAn?$AAg?$AA?9?$AAl?$AA1?$AA?9?$AA1?$AA?9?$AA0?$AA?$AA@ 000000018006bc90     libucrt:winapi_thunks.obj
 0002:0000ccd0       ??_C@_1DO@FPAPJEMD@?$AAa?$AAp?$AAi?$AA?9?$AAm?$AAs?$AA?9?$AAw?$AAi?$AAn?$AA?9?$AAc?$AAo?$AAr?$AAe?$AA?9?$AAs?$AAy?$AAs?$AAi?$AAn?$AAf?$AAo?$AA?9?$AAl?$AA1?$AA?9?$AA2?$AA?9?$AA1?$AA?$AA@ 000000018006bcd0     libucrt:winapi_thunks.obj
 0002:0000cd10       ??_C@_1DK@NDHNAHIO@?$AAa?$AAp?$AAi?$AA?9?$AAm?$AAs?$AA?9?$AAw?$AAi?$AAn?$AA?9?$AAc?$AAo?$AAr?$AAe?$AA?9?$AAw?$AAi?$AAn?$AAr?$AAt?$AA?9?$AAl?$AA1?$AA?9?$AA1?$AA?9?$AA0?$AA?$AA@ 000000018006bd10     libucrt:winapi_thunks.obj
 0002:0000cd50       ??_C@_1DM@KGHDGBCM@?$AAa?$AAp?$AAi?$AA?9?$AAm?$AAs?$AA?9?$AAw?$AAi?$AAn?$AA?9?$AAc?$AAo?$AAr?$AAe?$AA?9?$AAx?$AAs?$AAt?$AAa?$AAt?$AAe?$AA?9?$AAl?$AA2?$AA?9?$AA1?$AA?9?$AA0?$AA?$AA@ 000000018006bd50     libucrt:winapi_thunks.obj
 0002:0000cd90       ??_C@_1EO@IJIOEFOH@?$AAa?$AAp?$AAi?$AA?9?$AAm?$AAs?$AA?9?$AAw?$AAi?$AAn?$AA?9?$AAr?$AAt?$AAc?$AAo?$AAr?$AAe?$AA?9?$AAn?$AAt?$AAu?$AAs?$AAe?$AAr?$AA?9?$AAw?$AAi?$AAn?$AAd?$AAo?$AAw?$AA?9@ 000000018006bd90     libucrt:winapi_thunks.obj
 0002:0000cde0       ??_C@_1FG@HHGEKANL@?$AAa?$AAp?$AAi?$AA?9?$AAm?$AAs?$AA?9?$AAw?$AAi?$AAn?$AA?9?$AAs?$AAe?$AAc?$AAu?$AAr?$AAi?$AAt?$AAy?$AA?9?$AAs?$AAy?$AAs?$AAt?$AAe?$AAm?$AAf?$AAu?$AAn?$AAc?$AAt?$AAi@ 000000018006bde0     libucrt:winapi_thunks.obj
 0002:0000ce40       ??_C@_1EG@DBIOJECG@?$AAe?$AAx?$AAt?$AA?9?$AAm?$AAs?$AA?9?$AAw?$AAi?$AAn?$AA?9?$AAn?$AAt?$AAu?$AAs?$AAe?$AAr?$AA?9?$AAd?$AAi?$AAa?$AAl?$AAo?$AAg?$AAb?$AAo?$AAx?$AA?9?$AAl?$AA1?$AA?9?$AA1@ 000000018006be40     libucrt:winapi_thunks.obj
 0002:0000ce90       ??_C@_1EO@FIHMJCLF@?$AAe?$AAx?$AAt?$AA?9?$AAm?$AAs?$AA?9?$AAw?$AAi?$AAn?$AA?9?$AAn?$AAt?$AAu?$AAs?$AAe?$AAr?$AA?9?$AAw?$AAi?$AAn?$AAd?$AAo?$AAw?$AAs?$AAt?$AAa?$AAt?$AAi?$AAo?$AAn?$AA?9@ 000000018006be90     libucrt:winapi_thunks.obj
 0002:0000cee0       ??_C@_1BC@DNHGCMLG@?$AAa?$AAd?$AAv?$AAa?$AAp?$AAi?$AA3?$AA2?$AA?$AA@ 000000018006bee0     libucrt:winapi_thunks.obj
 0002:0000cef8       ??_C@_1M@OAIMIKLP@?$AAn?$AAt?$AAd?$AAl?$AAl?$AA?$AA@ 000000018006bef8     libucrt:winapi_thunks.obj
 0002:0000cf10       ??_C@_1EG@DPGNFKGC@?$AAa?$AAp?$AAi?$AA?9?$AAm?$AAs?$AA?9?$AAw?$AAi?$AAn?$AA?9?$AAa?$AAp?$AAp?$AAm?$AAo?$AAd?$AAe?$AAl?$AA?9?$AAr?$AAu?$AAn?$AAt?$AAi?$AAm?$AAe?$AA?9?$AAl?$AA1?$AA?9?$AA1@ 000000018006bf10     libucrt:winapi_thunks.obj
 0002:0000cf58       ??_C@_1O@BCCLBEOE@?$AAu?$AAs?$AAe?$AAr?$AA3?$AA2?$AA?$AA@ 000000018006bf58     libucrt:winapi_thunks.obj
 0002:0000cf70       ??_C@_0BA@FHFNEAED@AreFileApisANSI?$AA@ 000000018006bf70     libucrt:winapi_thunks.obj
 0002:0000cf90       ??_C@_0BE@LJANKFHF@EnumSystemLocalesEx?$AA@ 000000018006bf90     libucrt:winapi_thunks.obj
 0002:0000cfd0       ??_C@_0BA@EPCJIIPD@GetDateFormatEx?$AA@ 000000018006bfd0     libucrt:winapi_thunks.obj
 0002:0000cff0       ??_C@_0BA@CIJJKCJJ@GetTimeFormatEx?$AA@ 000000018006bff0     libucrt:winapi_thunks.obj
 0002:0000d008       ??_C@_0BJ@PBCCBIPI@GetUserDefaultLocaleName?$AA@ 000000018006c008     libucrt:winapi_thunks.obj
 0002:0000d038       ??_C@_0BC@CELBKLLA@IsValidLocaleName?$AA@ 000000018006c038     libucrt:winapi_thunks.obj
 0002:0000d060       ??_C@_0BB@CDHDDLLP@LCIDToLocaleName?$AA@ 000000018006c060     libucrt:winapi_thunks.obj
 0002:0000d080       ??_C@_0BB@HBDEELFH@LocaleNameToLCID?$AA@ 000000018006c080     libucrt:winapi_thunks.obj
 0002:0000d098       ??_C@_0CF@OJOFEIGO@AppPolicyGetProcessTerminationMe@ 000000018006c098     libucrt:winapi_thunks.obj
 0002:0000d0c0       __log_256_lead             000000018006c0c0     libucrt:log_256_lead_tail_table.obj
 0002:0000d8d0       __log_256_tail             000000018006c8d0     libucrt:log_256_lead_tail_table.obj
 0002:0000e0e0       __two_to_jby64_head_table  000000018006d0e0     libucrt:two_to_jby64_head_tail_table.obj
 0002:0000e2e0       __two_to_jby64_tail_table  000000018006d2e0     libucrt:two_to_jby64_head_tail_table.obj
 0002:0000e4e0       ??_C@_04MBFDLNIM@powf?$AA@ 000000018006d4e0     libucrt:pow_special.obj
 0002:0000e4f0       __two_to_jby64_table       000000018006d4f0     libucrt:two_to_jby64_table.obj
 0002:0000e6f0       __log_F_inv_qword          000000018006d6f0     libucrt:log_f_inv_qword_table.obj
 0002:0000ef20       ??_C@_1BC@PJMIIAAN@?$AAc?$AAa?$AAn?$AAa?$AAd?$AAi?$AAa?$AAn?$AA?$AA@ 000000018006df20     libucrt:get_qualified_locale.obj
 0002:0000ef38       ??_C@_17NOIMNFBF@?$AAc?$AAh?$AAh?$AA?$AA@ 000000018006df38     libucrt:get_qualified_locale.obj
 0002:0000ef40       ??_C@_17GGDALCHA@?$AAc?$AAh?$AAi?$AA?$AA@ 000000018006df40     libucrt:get_qualified_locale.obj
 0002:0000ef48       ??_C@_1BA@NPNJKIBL@?$AAc?$AAh?$AAi?$AAn?$AAe?$AAs?$AAe?$AA?$AA@ 000000018006df48     libucrt:get_qualified_locale.obj
 0002:0000ef58       ??_C@_1CC@DINBAMMJ@?$AAc?$AAh?$AAi?$AAn?$AAe?$AAs?$AAe?$AA?9?$AAh?$AAo?$AAn?$AAg?$AAk?$AAo?$AAn?$AAg?$AA?$AA@ 000000018006df58     libucrt:get_qualified_locale.obj
 0002:0000ef80       ??_C@_1CG@IOBJPACO@?$AAc?$AAh?$AAi?$AAn?$AAe?$AAs?$AAe?$AA?9?$AAs?$AAi?$AAm?$AAp?$AAl?$AAi?$AAf?$AAi?$AAe?$AAd?$AA?$AA@ 000000018006df80     libucrt:get_qualified_locale.obj
 0002:0000efa8       ??_C@_1CE@GAJNDCKG@?$AAc?$AAh?$AAi?$AAn?$AAe?$AAs?$AAe?$AA?9?$AAs?$AAi?$AAn?$AAg?$AAa?$AAp?$AAo?$AAr?$AAe?$AA?$AA@ 000000018006dfa8     libucrt:get_qualified_locale.obj
 0002:0000efd0       ??_C@_1CI@PAJPIOOD@?$AAc?$AAh?$AAi?$AAn?$AAe?$AAs?$AAe?$AA?9?$AAt?$AAr?$AAa?$AAd?$AAi?$AAt?$AAi?$AAo?$AAn?$AAa?$AAl?$AA?$AA@ 000000018006dfd0     libucrt:get_qualified_locale.obj
 0002:0000eff8       ??_C@_1BM@NILJBMMD@?$AAd?$AAu?$AAt?$AAc?$AAh?$AA?9?$AAb?$AAe?$AAl?$AAg?$AAi?$AAa?$AAn?$AA?$AA@ 000000018006dff8     libucrt:get_qualified_locale.obj
 0002:0000f018       ??_C@_1CC@OOJPJNEJ@?$AAe?$AAn?$AAg?$AAl?$AAi?$AAs?$AAh?$AA?9?$AAa?$AAm?$AAe?$AAr?$AAi?$AAc?$AAa?$AAn?$AA?$AA@ 000000018006e018     libucrt:get_qualified_locale.obj
 0002:0000f040       ??_C@_1BI@IOLFEEM@?$AAe?$AAn?$AAg?$AAl?$AAi?$AAs?$AAh?$AA?9?$AAa?$AAu?$AAs?$AA?$AA@ 000000018006e040     libucrt:get_qualified_locale.obj
 0002:0000f058       ??_C@_1BO@HFFNLENJ@?$AAe?$AAn?$AAg?$AAl?$AAi?$AAs?$AAh?$AA?9?$AAb?$AAe?$AAl?$AAi?$AAz?$AAe?$AA?$AA@ 000000018006e058     libucrt:get_qualified_locale.obj
 0002:0000f078       ??_C@_1BI@HAPKJMPO@?$AAe?$AAn?$AAg?$AAl?$AAi?$AAs?$AAh?$AA?9?$AAc?$AAa?$AAn?$AA?$AA@ 000000018006e078     libucrt:get_qualified_locale.obj
 0002:0000f090       ??_C@_1CE@HLNDMIOJ@?$AAe?$AAn?$AAg?$AAl?$AAi?$AAs?$AAh?$AA?9?$AAc?$AAa?$AAr?$AAi?$AAb?$AAb?$AAe?$AAa?$AAn?$AA?$AA@ 000000018006e090     libucrt:get_qualified_locale.obj
 0002:0000f0b8       ??_C@_1BI@LDHJHHAC@?$AAe?$AAn?$AAg?$AAl?$AAi?$AAs?$AAh?$AA?9?$AAi?$AAr?$AAe?$AA?$AA@ 000000018006e0b8     libucrt:get_qualified_locale.obj
 0002:0000f0d0       ??_C@_1CA@NJMMCFOC@?$AAe?$AAn?$AAg?$AAl?$AAi?$AAs?$AAh?$AA?9?$AAj?$AAa?$AAm?$AAa?$AAi?$AAc?$AAa?$AA?$AA@ 000000018006e0d0     libucrt:get_qualified_locale.obj
 0002:0000f0f0       ??_C@_1BG@BHJEBBGG@?$AAe?$AAn?$AAg?$AAl?$AAi?$AAs?$AAh?$AA?9?$AAn?$AAz?$AA?$AA@ 000000018006e0f0     libucrt:get_qualified_locale.obj
 0002:0000f108       ??_C@_1CK@FGOEJJCO@?$AAe?$AAn?$AAg?$AAl?$AAi?$AAs?$AAh?$AA?9?$AAs?$AAo?$AAu?$AAt?$AAh?$AA?5?$AAa?$AAf?$AAr?$AAi?$AAc?$AAa?$AA?$AA@ 000000018006e108     libucrt:get_qualified_locale.obj
 0002:0000f138       ??_C@_1DE@PDBJPCJ@?$AAe?$AAn?$AAg?$AAl?$AAi?$AAs?$AAh?$AA?9?$AAt?$AAr?$AAi?$AAn?$AAi?$AAd?$AAa?$AAd?$AA?5?$AAy?$AA?5?$AAt?$AAo?$AAb?$AAa?$AAg?$AAo?$AA?$AA@ 000000018006e138     libucrt:get_qualified_locale.obj
 0002:0000f170       ??_C@_1BG@JGCANDME@?$AAe?$AAn?$AAg?$AAl?$AAi?$AAs?$AAh?$AA?9?$AAu?$AAk?$AA?$AA@ 000000018006e170     libucrt:get_qualified_locale.obj
 0002:0000f188       ??_C@_1BG@DINKMLE@?$AAe?$AAn?$AAg?$AAl?$AAi?$AAs?$AAh?$AA?9?$AAu?$AAs?$AA?$AA@ 000000018006e188     libucrt:get_qualified_locale.obj
 0002:0000f1a0       ??_C@_1BI@NMFDBHJE@?$AAe?$AAn?$AAg?$AAl?$AAi?$AAs?$AAh?$AA?9?$AAu?$AAs?$AAa?$AA?$AA@ 000000018006e1a0     libucrt:get_qualified_locale.obj
 0002:0000f1b8       ??_C@_1BO@OIHKJKII@?$AAf?$AAr?$AAe?$AAn?$AAc?$AAh?$AA?9?$AAb?$AAe?$AAl?$AAg?$AAi?$AAa?$AAn?$AA?$AA@ 000000018006e1b8     libucrt:get_qualified_locale.obj
 0002:0000f1d8       ??_C@_1CA@NKAELJKI@?$AAf?$AAr?$AAe?$AAn?$AAc?$AAh?$AA?9?$AAc?$AAa?$AAn?$AAa?$AAd?$AAi?$AAa?$AAn?$AA?$AA@ 000000018006e1d8     libucrt:get_qualified_locale.obj
 0002:0000f1f8       ??_C@_1CE@MGKCNLGN@?$AAf?$AAr?$AAe?$AAn?$AAc?$AAh?$AA?9?$AAl?$AAu?$AAx?$AAe?$AAm?$AAb?$AAo?$AAu?$AAr?$AAg?$AA?$AA@ 000000018006e1f8     libucrt:get_qualified_locale.obj
 0002:0000f220       ??_C@_1BK@CEGEAILM@?$AAf?$AAr?$AAe?$AAn?$AAc?$AAh?$AA?9?$AAs?$AAw?$AAi?$AAs?$AAs?$AA?$AA@ 000000018006e220     libucrt:get_qualified_locale.obj
 0002:0000f240       ??_C@_1CA@PAFKEOCC@?$AAg?$AAe?$AAr?$AAm?$AAa?$AAn?$AA?9?$AAa?$AAu?$AAs?$AAt?$AAr?$AAi?$AAa?$AAn?$AA?$AA@ 000000018006e240     libucrt:get_qualified_locale.obj
 0002:0000f260       ??_C@_1CI@HCFHGOFD@?$AAg?$AAe?$AAr?$AAm?$AAa?$AAn?$AA?9?$AAl?$AAi?$AAc?$AAh?$AAt?$AAe?$AAn?$AAs?$AAt?$AAe?$AAi?$AAn?$AA?$AA@ 000000018006e260     libucrt:get_qualified_locale.obj
 0002:0000f288       ??_C@_1CE@FEDDNPDG@?$AAg?$AAe?$AAr?$AAm?$AAa?$AAn?$AA?9?$AAl?$AAu?$AAx?$AAe?$AAm?$AAb?$AAo?$AAu?$AAr?$AAg?$AA?$AA@ 000000018006e288     libucrt:get_qualified_locale.obj
 0002:0000f2b0       ??_C@_1BK@LIMINNMN@?$AAg?$AAe?$AAr?$AAm?$AAa?$AAn?$AA?9?$AAs?$AAw?$AAi?$AAs?$AAs?$AA?$AA@ 000000018006e2b0     libucrt:get_qualified_locale.obj
 0002:0000f2d0       ??_C@_1BM@LGMDBEPD@?$AAi?$AAr?$AAi?$AAs?$AAh?$AA?9?$AAe?$AAn?$AAg?$AAl?$AAi?$AAs?$AAh?$AA?$AA@ 000000018006e2d0     libucrt:get_qualified_locale.obj
 0002:0000f2f0       ??_C@_1BM@NNCFBAEE@?$AAi?$AAt?$AAa?$AAl?$AAi?$AAa?$AAn?$AA?9?$AAs?$AAw?$AAi?$AAs?$AAs?$AA?$AA@ 000000018006e2f0     libucrt:get_qualified_locale.obj
 0002:0000f310       ??_C@_1BE@FEDJNPIB@?$AAn?$AAo?$AAr?$AAw?$AAe?$AAg?$AAi?$AAa?$AAn?$AA?$AA@ 000000018006e310     libucrt:get_qualified_locale.obj
 0002:0000f328       ??_C@_1CC@CILKDEIE@?$AAn?$AAo?$AAr?$AAw?$AAe?$AAg?$AAi?$AAa?$AAn?$AA?9?$AAb?$AAo?$AAk?$AAm?$AAa?$AAl?$AA?$AA@ 000000018006e328     libucrt:get_qualified_locale.obj
 0002:0000f350       ??_C@_1CE@DHMMHEPL@?$AAn?$AAo?$AAr?$AAw?$AAe?$AAg?$AAi?$AAa?$AAn?$AA?9?$AAn?$AAy?$AAn?$AAo?$AAr?$AAs?$AAk?$AA?$AA@ 000000018006e350     libucrt:get_qualified_locale.obj
 0002:0000f378       ??_C@_1CK@OPNMHECD@?$AAp?$AAo?$AAr?$AAt?$AAu?$AAg?$AAu?$AAe?$AAs?$AAe?$AA?9?$AAb?$AAr?$AAa?$AAz?$AAi?$AAl?$AAi?$AAa?$AAn?$AA?$AA@ 000000018006e378     libucrt:get_qualified_locale.obj
 0002:0000f3a8       ??_C@_1CE@KEEHCDB@?$AAs?$AAp?$AAa?$AAn?$AAi?$AAs?$AAh?$AA?9?$AAa?$AAr?$AAg?$AAe?$AAn?$AAt?$AAi?$AAn?$AAa?$AA?$AA@ 000000018006e3a8     libucrt:get_qualified_locale.obj
 0002:0000f3d0       ??_C@_1CA@GIAOLHJD@?$AAs?$AAp?$AAa?$AAn?$AAi?$AAs?$AAh?$AA?9?$AAb?$AAo?$AAl?$AAi?$AAv?$AAi?$AAa?$AA?$AA@ 000000018006e3d0     libucrt:get_qualified_locale.obj
 0002:0000f3f0       ??_C@_1BM@OJNDFNPD@?$AAs?$AAp?$AAa?$AAn?$AAi?$AAs?$AAh?$AA?9?$AAc?$AAh?$AAi?$AAl?$AAe?$AA?$AA@ 000000018006e3f0     libucrt:get_qualified_locale.obj
 0002:0000f410       ??_C@_1CC@OCOLPALL@?$AAs?$AAp?$AAa?$AAn?$AAi?$AAs?$AAh?$AA?9?$AAc?$AAo?$AAl?$AAo?$AAm?$AAb?$AAi?$AAa?$AA?$AA@ 000000018006e410     libucrt:get_qualified_locale.obj
 0002:0000f438       ??_C@_1CG@BPOFMKBB@?$AAs?$AAp?$AAa?$AAn?$AAi?$AAs?$AAh?$AA?9?$AAc?$AAo?$AAs?$AAt?$AAa?$AA?5?$AAr?$AAi?$AAc?$AAa?$AA?$AA@ 000000018006e438     libucrt:get_qualified_locale.obj
 0002:0000f460       ??_C@_1DG@IGOBAPBB@?$AAs?$AAp?$AAa?$AAn?$AAi?$AAs?$AAh?$AA?9?$AAd?$AAo?$AAm?$AAi?$AAn?$AAi?$AAc?$AAa?$AAn?$AA?5?$AAr?$AAe?$AAp?$AAu?$AAb?$AAl?$AAi?$AAc?$AA?$AA@ 000000018006e460     libucrt:get_qualified_locale.obj
 0002:0000f498       ??_C@_1CA@JHAPGEGI@?$AAs?$AAp?$AAa?$AAn?$AAi?$AAs?$AAh?$AA?9?$AAe?$AAc?$AAu?$AAa?$AAd?$AAo?$AAr?$AA?$AA@ 000000018006e498     libucrt:get_qualified_locale.obj
 0002:0000f4b8       ??_C@_1CI@LAPALJPP@?$AAs?$AAp?$AAa?$AAn?$AAi?$AAs?$AAh?$AA?9?$AAe?$AAl?$AA?5?$AAs?$AAa?$AAl?$AAv?$AAa?$AAd?$AAo?$AAr?$AA?$AA@ 000000018006e4b8     libucrt:get_qualified_locale.obj
 0002:0000f4e0       ??_C@_1CE@PDGBOFOM@?$AAs?$AAp?$AAa?$AAn?$AAi?$AAs?$AAh?$AA?9?$AAg?$AAu?$AAa?$AAt?$AAe?$AAm?$AAa?$AAl?$AAa?$AA?$AA@ 000000018006e4e0     libucrt:get_qualified_locale.obj
 0002:0000f508       ??_C@_1CC@NBEBAODI@?$AAs?$AAp?$AAa?$AAn?$AAi?$AAs?$AAh?$AA?9?$AAh?$AAo?$AAn?$AAd?$AAu?$AAr?$AAa?$AAs?$AA?$AA@ 000000018006e508     libucrt:get_qualified_locale.obj
 0002:0000f530       ??_C@_1CA@LLKGHBMF@?$AAs?$AAp?$AAa?$AAn?$AAi?$AAs?$AAh?$AA?9?$AAm?$AAe?$AAx?$AAi?$AAc?$AAa?$AAn?$AA?$AA@ 000000018006e530     libucrt:get_qualified_locale.obj
 0002:0000f550       ??_C@_1BO@LKNDOIGD@?$AAs?$AAp?$AAa?$AAn?$AAi?$AAs?$AAh?$AA?9?$AAm?$AAo?$AAd?$AAe?$AAr?$AAn?$AA?$AA@ 000000018006e550     libucrt:get_qualified_locale.obj
 0002:0000f570       ??_C@_1CE@NMDMOEEB@?$AAs?$AAp?$AAa?$AAn?$AAi?$AAs?$AAh?$AA?9?$AAn?$AAi?$AAc?$AAa?$AAr?$AAa?$AAg?$AAu?$AAa?$AA?$AA@ 000000018006e570     libucrt:get_qualified_locale.obj
 0002:0000f598       ??_C@_1BO@LLCBEJGB@?$AAs?$AAp?$AAa?$AAn?$AAi?$AAs?$AAh?$AA?9?$AAp?$AAa?$AAn?$AAa?$AAm?$AAa?$AA?$AA@ 000000018006e598     libucrt:get_qualified_locale.obj
 0002:0000f5b8       ??_C@_1CC@FKPGGIHO@?$AAs?$AAp?$AAa?$AAn?$AAi?$AAs?$AAh?$AA?9?$AAp?$AAa?$AAr?$AAa?$AAg?$AAu?$AAa?$AAy?$AA?$AA@ 000000018006e5b8     libucrt:get_qualified_locale.obj
 0002:0000f5e0       ??_C@_1BK@CDEIHOOP@?$AAs?$AAp?$AAa?$AAn?$AAi?$AAs?$AAh?$AA?9?$AAp?$AAe?$AAr?$AAu?$AA?$AA@ 000000018006e5e0     libucrt:get_qualified_locale.obj
 0002:0000f600       ??_C@_1CI@GAHAKKGP@?$AAs?$AAp?$AAa?$AAn?$AAi?$AAs?$AAh?$AA?9?$AAp?$AAu?$AAe?$AAr?$AAt?$AAo?$AA?5?$AAr?$AAi?$AAc?$AAo?$AA?$AA@ 000000018006e600     libucrt:get_qualified_locale.obj
 0002:0000f628       ??_C@_1CA@NKJBCAGP@?$AAs?$AAp?$AAa?$AAn?$AAi?$AAs?$AAh?$AA?9?$AAu?$AAr?$AAu?$AAg?$AAu?$AAa?$AAy?$AA?$AA@ 000000018006e628     libucrt:get_qualified_locale.obj
 0002:0000f648       ??_C@_1CE@ODILCONM@?$AAs?$AAp?$AAa?$AAn?$AAi?$AAs?$AAh?$AA?9?$AAv?$AAe?$AAn?$AAe?$AAz?$AAu?$AAe?$AAl?$AAa?$AA?$AA@ 000000018006e648     libucrt:get_qualified_locale.obj
 0002:0000f670       ??_C@_1CA@OBNMCGFO@?$AAs?$AAw?$AAe?$AAd?$AAi?$AAs?$AAh?$AA?9?$AAf?$AAi?$AAn?$AAl?$AAa?$AAn?$AAd?$AA?$AA@ 000000018006e670     libucrt:get_qualified_locale.obj
 0002:0000f690       ??_C@_1M@PIPDDPPI@?$AAs?$AAw?$AAi?$AAs?$AAs?$AA?$AA@ 000000018006e690     libucrt:get_qualified_locale.obj
 0002:0000f69c       ??_C@_15GMFIMNFM@?$AAu?$AAs?$AA?$AA@ 000000018006e69c     libucrt:get_qualified_locale.obj
 0002:0000f6a8       ??_C@_17HAEBFAGL@?$AAu?$AAs?$AAa?$AA?$AA@ 000000018006e6a8     libucrt:get_qualified_locale.obj
 0002:0000f6b0       ??_C@_1BA@DPFJEPHB@?$AAa?$AAm?$AAe?$AAr?$AAi?$AAc?$AAa?$AA?$AA@ 000000018006e6b0     libucrt:get_qualified_locale.obj
 0002:0000f6c0       ??_C@_1BA@ELOGGFK@?$AAb?$AAr?$AAi?$AAt?$AAa?$AAi?$AAn?$AA?$AA@ 000000018006e6c0     libucrt:get_qualified_locale.obj
 0002:0000f6d0       ??_C@_1M@GHBGIGDA@?$AAc?$AAh?$AAi?$AAn?$AAa?$AA?$AA@ 000000018006e6d0     libucrt:get_qualified_locale.obj
 0002:0000f6e0       ??_C@_1M@NCHEJOPO@?$AAc?$AAz?$AAe?$AAc?$AAh?$AA?$AA@ 000000018006e6e0     libucrt:get_qualified_locale.obj
 0002:0000f6f0       ??_C@_1BA@BKPAPBLA@?$AAe?$AAn?$AAg?$AAl?$AAa?$AAn?$AAd?$AA?$AA@ 000000018006e6f0     libucrt:get_qualified_locale.obj
 0002:0000f700       ??_C@_1BM@HKBCKIPC@?$AAg?$AAr?$AAe?$AAa?$AAt?$AA?5?$AAb?$AAr?$AAi?$AAt?$AAa?$AAi?$AAn?$AA?$AA@ 000000018006e700     libucrt:get_qualified_locale.obj
 0002:0000f720       ??_C@_1BA@PPCHPGJB@?$AAh?$AAo?$AAl?$AAl?$AAa?$AAn?$AAd?$AA?$AA@ 000000018006e720     libucrt:get_qualified_locale.obj
 0002:0000f730       ??_C@_1BE@JBMPEGDG@?$AAh?$AAo?$AAn?$AAg?$AA?9?$AAk?$AAo?$AAn?$AAg?$AA?$AA@ 000000018006e730     libucrt:get_qualified_locale.obj
 0002:0000f748       ??_C@_1BI@KOELBBPJ@?$AAn?$AAe?$AAw?$AA?9?$AAz?$AAe?$AAa?$AAl?$AAa?$AAn?$AAd?$AA?$AA@ 000000018006e748     libucrt:get_qualified_locale.obj
 0002:0000f760       ??_C@_15HIEBHAIO@?$AAn?$AAz?$AA?$AA@ 000000018006e760     libucrt:get_qualified_locale.obj
 0002:0000f768       ??_C@_1BC@CHBCPFPI@?$AAp?$AAr?$AA?5?$AAc?$AAh?$AAi?$AAn?$AAa?$AA?$AA@ 000000018006e768     libucrt:get_qualified_locale.obj
 0002:0000f780       ??_C@_1BC@JAOIIFKD@?$AAp?$AAr?$AA?9?$AAc?$AAh?$AAi?$AAn?$AAa?$AA?$AA@ 000000018006e780     libucrt:get_qualified_locale.obj
 0002:0000f798       ??_C@_1BI@BEHPPHKC@?$AAp?$AAu?$AAe?$AAr?$AAt?$AAo?$AA?9?$AAr?$AAi?$AAc?$AAo?$AA?$AA@ 000000018006e798     libucrt:get_qualified_locale.obj
 0002:0000f7b0       ??_C@_1O@PAEOFKDI@?$AAs?$AAl?$AAo?$AAv?$AAa?$AAk?$AA?$AA@ 000000018006e7b0     libucrt:get_qualified_locale.obj
 0002:0000f7c0       ??_C@_1BK@FIHMCKAM@?$AAs?$AAo?$AAu?$AAt?$AAh?$AA?5?$AAa?$AAf?$AAr?$AAi?$AAc?$AAa?$AA?$AA@ 000000018006e7c0     libucrt:get_qualified_locale.obj
 0002:0000f7e0       ??_C@_1BI@NAEOODKB@?$AAs?$AAo?$AAu?$AAt?$AAh?$AA?5?$AAk?$AAo?$AAr?$AAe?$AAa?$AA?$AA@ 000000018006e7e0     libucrt:get_qualified_locale.obj
 0002:0000f7f8       ??_C@_1BK@FBDGGIFF@?$AAs?$AAo?$AAu?$AAt?$AAh?$AA?9?$AAa?$AAf?$AAr?$AAi?$AAc?$AAa?$AA?$AA@ 000000018006e7f8     libucrt:get_qualified_locale.obj
 0002:0000f818       ??_C@_1BI@GHLEJDPK@?$AAs?$AAo?$AAu?$AAt?$AAh?$AA?9?$AAk?$AAo?$AAr?$AAe?$AAa?$AA?$AA@ 000000018006e818     libucrt:get_qualified_locale.obj
 0002:0000f830       ??_C@_1CE@PLHLOMJF@?$AAt?$AAr?$AAi?$AAn?$AAi?$AAd?$AAa?$AAd?$AA?5?$AA?$CG?$AA?5?$AAt?$AAo?$AAb?$AAa?$AAg?$AAo?$AA?$AA@ 000000018006e830     libucrt:get_qualified_locale.obj
 0002:0000f858       ??_C@_1BO@MODIMHHI@?$AAu?$AAn?$AAi?$AAt?$AAe?$AAd?$AA?9?$AAk?$AAi?$AAn?$AAg?$AAd?$AAo?$AAm?$AA?$AA@ 000000018006e858     libucrt:get_qualified_locale.obj
 0002:0000f878       ??_C@_1BM@FFHJONBJ@?$AAu?$AAn?$AAi?$AAt?$AAe?$AAd?$AA?9?$AAs?$AAt?$AAa?$AAt?$AAe?$AAs?$AA?$AA@ 000000018006e878     libucrt:get_qualified_locale.obj
 0002:0000f8a0       __acrt_rg_language         000000018006e8a0     libucrt:get_qualified_locale.obj
 0002:0000fcb0       __acrt_rg_language_count   000000018006ecb0     libucrt:get_qualified_locale.obj
 0002:0000fcc0       __acrt_rg_country          000000018006ecc0     libucrt:get_qualified_locale.obj
 0002:0000fe30       __acrt_rg_country_count    000000018006ee30     libucrt:get_qualified_locale.obj
 0002:0000fe38       ??_C@_1BC@LLOKLNP@?$AAa?$AAm?$AAe?$AAr?$AAi?$AAc?$AAa?$AAn?$AA?$AA@ 000000018006ee38     libucrt:get_qualified_locale.obj
 0002:0000fe50       ??_C@_1CC@HEIGCDGG@?$AAa?$AAm?$AAe?$AAr?$AAi?$AAc?$AAa?$AAn?$AA?5?$AAe?$AAn?$AAg?$AAl?$AAi?$AAs?$AAh?$AA?$AA@ 000000018006ee50     libucrt:get_qualified_locale.obj
 0002:0000fe78       ??_C@_1CC@IHCNOMIN@?$AAa?$AAm?$AAe?$AAr?$AAi?$AAc?$AAa?$AAn?$AA?9?$AAe?$AAn?$AAg?$AAl?$AAi?$AAs?$AAh?$AA?$AA@ 000000018006ee78     libucrt:get_qualified_locale.obj
 0002:0000fea0       ??_C@_1BG@GKAGPCGG@?$AAa?$AAu?$AAs?$AAt?$AAr?$AAa?$AAl?$AAi?$AAa?$AAn?$AA?$AA@ 000000018006eea0     libucrt:get_qualified_locale.obj
 0002:0000feb8       ??_C@_1BA@GMENCENF@?$AAb?$AAe?$AAl?$AAg?$AAi?$AAa?$AAn?$AA?$AA@ 000000018006eeb8     libucrt:get_qualified_locale.obj
 0002:0000fec8       ??_C@_17DNCLJFIF@?$AAA?$AAC?$AAP?$AA?$AA@ 000000018006eec8     libucrt:get_qualified_locale.obj
 0002:0000fed0       ??_C@_17CIKBIHLH@?$AAO?$AAC?$AAP?$AA?$AA@ 000000018006eed0     libucrt:get_qualified_locale.obj
 0002:0000fed8       __rglangidNotDefault       000000018006eed8     libucrt:getqloc_downlevel.obj
 0002:0000feec       ??_C@_01GBGANLPD@0?$AA@    000000018006eeec     libucrt:cfout.obj
 0002:0000fef0       ??_C@_05DNEBIAHO@1?$CDINF?$AA@ 000000018006eef0     libucrt:cfout.obj
 0002:0000fef8       ??_C@_06IMKFLFPG@1?$CDQNAN?$AA@ 000000018006eef8     libucrt:cfout.obj
 0002:0000ff00       ??_C@_06PGGFOGJG@1?$CDSNAN?$AA@ 000000018006ef00     libucrt:cfout.obj
 0002:0000ff08       ??_C@_05PHHOCPM@1?$CDIND?$AA@ 000000018006ef08     libucrt:cfout.obj
 0002:00011df0       ??_C@_1BA@BALFACEM@?$AAC?$AAO?$AAN?$AAO?$AAU?$AAT?$AA$?$AA?$AA@ 0000000180070df0     libucrt:initcon.obj
 0002:00011e00       __log10_256_lead           0000000180070e00     libucrt:log10_256_lead_tail_table.obj
 0002:00012610       __log10_256_tail           0000000180071610     libucrt:log10_256_lead_tail_table.obj
 0002:00012e18       ??_C@_1BK@DBDEIDLH@?$AAK?$AAE?$AAR?$AAN?$AAE?$AAL?$AA3?$AA2?$AA?4?$AAD?$AAL?$AAL?$AA?$AA@ 0000000180071e18     DelayImp:delayhlp.obj
 0002:00012e38       __pfnDliFailureHook2       0000000180071e38     DelayImp:delayhk1.obj
 0002:00012f88       ??_7_Ref_count_base@std@@6B@ 0000000180071f88     libcpmt:excptptr.obj
 0002:00012fb0       ??_7?$_Ref_count_obj_alloc@V__ExceptionPtr@@U?$_StaticAllocator@H@@@std@@6B@ 0000000180071fb0     libcpmt:excptptr.obj
 0002:00012fd8       ??_7?$_Ref_count_obj@V__ExceptionPtr@@@std@@6B@ 0000000180071fd8     libcpmt:excptptr.obj
 0002:00013028       ??_7stl_condition_variable_vista@details@Concurrency@@6B@ 0000000180072028     libcpmt:cond.obj
 0002:00013058       ??_7stl_condition_variable_win7@details@Concurrency@@6B@ 0000000180072058     libcpmt:cond.obj
 0002:00013088       ??_7stl_condition_variable_concrt@details@Concurrency@@6B@ 0000000180072088     libcpmt:cond.obj
 0002:000130b0       _load_config_used          00000001800720b0     LIBCMT:loadcfg.obj
 0002:000131a8       ??_C@_0BD@HHMCKPNL@permessage?9deflate?$AA@ 00000001800721a8     Extensions.obj
 0002:000131c0       ??_C@_0BN@PKNKMMCB@?$DL?5client_no_context_takeover?$AA@ 00000001800721c0     Extensions.obj
 0002:000131e0       ??_C@_0BN@HELDBIFL@?$DL?5server_no_context_takeover?$AA@ 00000001800721e0     Extensions.obj
 0002:00013200       ??_C@_0BA@JFNIOLAK@string?5too?5long?$AA@ 0000000180072200     Extensions.obj
 0002:00013210       ??_C@_06CJNJFBNP@1?42?411?$AA@ 0000000180072210     Group.obj
 0002:00013218       ??_C@_0BD@OLBABOEK@vector?$DMT?$DO?5too?5long?$AA@ 0000000180072218     Group.obj
 0002:00013230       ??_C@_0BC@KBDMBKEH@deque?$DMT?$DO?5too?5long?$AA@ 0000000180072230     Group.obj
 0002:000132a8       ?CONSUME_PRE_PADDING@?$WebSocketProtocol@$00U?$WebSocket@$00@uWS@@@uWS@@2HB 00000001800722a8     Group.obj
 0002:000132ac       ?LONG_MESSAGE_HEADER@?$WebSocketProtocol@$00U?$WebSocket@$00@uWS@@@uWS@@2IB 00000001800722ac     Group.obj
 0002:000132b0       ?SHORT_MESSAGE_HEADER@?$WebSocketProtocol@$00U?$WebSocket@$00@uWS@@@uWS@@2IB 00000001800722b0     Group.obj
 0002:000132b4       ?CONSUME_POST_PADDING@?$WebSocketProtocol@$00U?$WebSocket@$00@uWS@@@uWS@@2HB 00000001800722b4     Group.obj
 0002:000132b4       ?MEDIUM_MESSAGE_HEADER@?$WebSocketProtocol@$0A@U?$WebSocket@$0A@@uWS@@@uWS@@2IB 00000001800722b4     WebSocket.obj
 0002:000132b4       ?CONSUME_POST_PADDING@?$WebSocketProtocol@$0A@U?$WebSocket@$0A@@uWS@@@uWS@@2HB 00000001800722b4     WebSocket.obj
 0002:000132b8       ?LARGE_BUFFER_SIZE@Hub@uWS@@1HB 00000001800722b8     Group.obj
 0002:000132bc       ?MEDIUM_MESSAGE_HEADER@?$WebSocketProtocol@$00U?$WebSocket@$00@uWS@@@uWS@@2IB 00000001800722bc     Group.obj
 0002:000133e0       ?preAllocMaxSize@NodeData@uS@@2HB 00000001800723e0     Group.obj
 0002:00013688       ??_7?$_Ref_count@V?$basic_string@DU?$char_traits@D@std@@V?$allocator@D@2@@std@@@std@@6B@ 0000000180072688     Networking.obj
 0002:000136a8       ??_C@_02LMMGGCAJ@?3?5?$AA@ 00000001800726a8     Hub.obj
 0002:000136b0       ??_C@_0BG@HGEDEDEC@invalid?5stoi?5argument?$AA@ 00000001800726b0     Hub.obj
 0002:000136c8       ??_C@_0BL@MFFNMGGC@stoi?5argument?5out?5of?5range?$AA@ 00000001800726c8     Hub.obj
 0002:000136e4       ??_C@_03GACAABJG@?3?1?1?$AA@ 00000001800726e4     Hub.obj
 0002:000136e8       ??_C@_02DLFOHOMG@?3?1?$AA@ 00000001800726e8     Hub.obj
 0002:000136ec       ??_C@_01KMDKNFGN@?1?$AA@   00000001800726ec     Hub.obj
 0002:000136f0       ??_C@_03HKPGEEPK@wss?$AA@  00000001800726f0     Hub.obj
 0002:000136f4       ??_C@_02FFBCHCAN@ws?$AA@   00000001800726f4     Hub.obj
 0002:000136f8       ??_C@_0BJ@DLJABEHN@x3JJHMbDL1EzLkh9GBhXDw?$DN?$DN?$AA@ 00000001800726f8     Hub.obj
 0002:00013718       ??_C@_0BM@MLLIJMKO@Sec?9WebSocket?9Version?3?513?$AN?6?$AA@ 0000000180072718     Hub.obj
 0002:00013734       ??_C@_02PCIJFNDE@?$AN?6?$AA@ 0000000180072734     Hub.obj
 0002:00013738       ??_C@_08BBGIHPGP@?$AN?6Host?3?5?$AA@ 0000000180072738     Hub.obj
 0002:00013750       ??_C@_0EI@CLJKCAMB@?5HTTP?11?41?$AN?6Upgrade?3?5websocket?$AN?6C@ 0000000180072750     Hub.obj
 0002:00013798       ??_C@_05KCENFFMJ@GET?5?1?$AA@ 0000000180072798     Hub.obj
 0002:000137a0       ??_C@_0BI@CFPLBAOH@invalid?5string?5position?$AA@ 00000001800727a0     Hub.obj
 0002:000137b8       ??_C@_04DOBFCDEM@?4?4?4?4?$AA@ 00000001800727b8     WebSocket.obj
 0002:000137c0       ?CONSUME_PRE_PADDING@?$WebSocketProtocol@$0A@U?$WebSocket@$0A@@uWS@@@uWS@@2HB 00000001800727c0     WebSocket.obj
 0002:000137c4       ?SHORT_MESSAGE_HEADER@?$WebSocketProtocol@$0A@U?$WebSocket@$0A@@uWS@@@uWS@@2IB 00000001800727c4     WebSocket.obj
 0002:000137c8       ?LONG_MESSAGE_HEADER@?$WebSocketProtocol@$0A@U?$WebSocket@$0A@@uWS@@@uWS@@2IB 00000001800727c8     WebSocket.obj
 0002:000137cc       ??_C@_03HNAFFKGA@get?$AA@  00000001800727cc     HTTPSocket.obj
 0002:000137d0       ??_C@_03KMONJGDG@put?$AA@  00000001800727d0     HTTPSocket.obj
 0002:000137d4       ??_C@_04LOKOGFID@post?$AA@ 00000001800727d4     HTTPSocket.obj
 0002:000137dc       ??_C@_04NEODDMOL@head?$AA@ 00000001800727dc     HTTPSocket.obj
 0002:000137e4       ??_C@_05OCKFKOHN@patch?$AA@ 00000001800727e4     HTTPSocket.obj
 0002:000137ec       ??_C@_05IMBNNINJ@trace?$AA@ 00000001800727ec     HTTPSocket.obj
 0002:000137f4       ??_C@_06FOBLBEIN@delete?$AA@ 00000001800727f4     HTTPSocket.obj
 0002:00013800       ??_C@_07FOPBDDAL@options?$AA@ 0000000180072800     HTTPSocket.obj
 0002:00013808       ??_C@_07KAIBNCHO@connect?$AA@ 0000000180072808     HTTPSocket.obj
 0002:00013810       ??_C@_0EB@NFPJKBDG@ABCDEFGHIJKLMNOPQRSTUVWXYZabcdef@ 0000000180072810     HTTPSocket.obj
 0002:00013858       ??_C@_0DN@FABGFECK@XXXXXXXXXXXXXXXXXXXXXXXX258EAFA5@ 0000000180072858     HTTPSocket.obj
 0002:000138a0       ??_C@_0GC@JOKHANIK@HTTP?11?41?5101?5Switching?5Protocols@ 00000001800728a0     HTTPSocket.obj
 0002:00013908       ??_C@_0BL@EPDBCPNN@Sec?9WebSocket?9Extensions?3?5?$AA@ 0000000180072908     HTTPSocket.obj
 0002:00013928       ??_C@_0BJ@IBJCJIFD@Sec?9WebSocket?9Protocol?3?5?$AA@ 0000000180072928     HTTPSocket.obj
 0002:00013948       ??_C@_07NACIIPHM@upgrade?$AA@ 0000000180072948     HTTPSocket.obj
 0002:00013950       ??_C@_0BC@IDPNCDHH@sec?9websocket?9key?$AA@ 0000000180072950     HTTPSocket.obj
 0002:00013968       ??_C@_0BJ@OJNOAKHD@sec?9websocket?9extensions?$AA@ 0000000180072968     HTTPSocket.obj
 0002:00013988       ??_C@_0BH@CAKDAFHO@sec?9websocket?9protocol?$AA@ 0000000180072988     HTTPSocket.obj
 0002:000139a0       ??_C@_0P@DJOOPABC@content?9length?$AA@ 00000001800729a0     HTTPSocket.obj
 0002:000139af       ??_C@_00CNPNBAHC@?$AA@     00000001800729af     Socket.obj
 0002:000139b0       ??_C@_04EMGFNKGN@IPv4?$AA@ 00000001800729b0     Socket.obj
 0002:000139b8       ??_C@_04HOFDLIOP@IPv6?$AA@ 00000001800729b8     Socket.obj
 0002:000139c0       ??_C@_0BC@BDKFLDHL@unknown?5exception?$AA@ 00000001800729c0     addon.obj
 0002:000139d8       ??_C@_0BA@ELKIONDK@bad?5locale?5name?$AA@ 00000001800729d8     addon.obj
 0002:000139e8       ??_C@_05LAPONLG@false?$AA@ 00000001800729e8     addon.obj
 0002:000139f0       ??_C@_04LOAJBDKD@true?$AA@ 00000001800729f0     addon.obj
 0002:000139f8       ??_C@_07DCLBNMLN@generic?$AA@ 00000001800729f8     addon.obj
 0002:00013a00       ??_C@_08LLGCOLLL@iostream?$AA@ 0000000180072a00     addon.obj
 0002:00013a10       ??_C@_0BG@PADBLCHM@iostream?5stream?5error?$AA@ 0000000180072a10     addon.obj
 0002:00013a28       ??_C@_0BF@PHHKMMFD@ios_base?3?3badbit?5set?$AA@ 0000000180072a28     addon.obj
 0002:00013a40       ??_C@_0BG@FMKFHCIL@ios_base?3?3failbit?5set?$AA@ 0000000180072a40     addon.obj
 0002:00013a58       ??_C@_0BF@OOHOMBOF@ios_base?3?3eofbit?5set?$AA@ 0000000180072a58     addon.obj
 0002:00013a70       ??_C@_0CI@BOOAKPPJ@HTTP?11?41?5200?5OK?$AN?6Content?9Length?3@ 0000000180072a70     addon.obj
 0002:00013a98       ??_C@_04PJOLNDGD@data?$AA@ 0000000180072a98     addon.obj
 0002:00013aa0       ??_C@_03JBJLGPFL@end?$AA@  0000000180072aa0     addon.obj
 0002:00013aa8       ??_C@_0BG@MEBPLCF@?$CJ?5is?5not?5implemented?$CB?$AA@ 0000000180072aa8     addon.obj
 0002:00013ac0       ??_C@_0BB@BLMPEKDA@Warning?3?5req?4on?$CI?$AA@ 0000000180072ac0     addon.obj
 0002:00013ae0       ??_C@_0EC@CPLKCHDG@Warning?3?5req?4headers?5usage?5past?5@ 0000000180072ae0     addon.obj
 0002:00013b24       ??_C@_03HAPOJHBM@GET?$AA@  0000000180072b24     addon.obj
 0002:00013b28       ??_C@_03KBBGFLEK@PUT?$AA@  0000000180072b28     addon.obj
 0002:00013b2c       ??_C@_04HCJEIHPL@POST?$AA@ 0000000180072b2c     addon.obj
 0002:00013b34       ??_C@_04BINJNOJD@HEAD?$AA@ 0000000180072b34     addon.obj
 0002:00013b3c       ??_C@_05CJDDEJDD@PATCH?$AA@ 0000000180072b3c     addon.obj
 0002:00013b44       ??_C@_05EHILDPJH@TRACE?$AA@ 0000000180072b44     addon.obj
 0002:00013b4c       ??_C@_06FKDAMKFP@DELETE?$AA@ 0000000180072b4c     addon.obj
 0002:00013b58       ??_C@_07KDKMIPIP@OPTIONS?$AA@ 0000000180072b58     addon.obj
 0002:00013b60       ??_C@_07FNNMGOPK@CONNECT?$AA@ 0000000180072b60     addon.obj
 0002:00013b68       ??_C@_0M@JGEKKEEG@uws?4Request?$AA@ 0000000180072b68     addon.obj
 0002:00013b74       ??_C@_03BMGHOINI@url?$AA@  0000000180072b74     addon.obj
 0002:00013b78       ??_C@_06GABBCIBA@method?$AA@ 0000000180072b78     addon.obj
 0002:00013b80       ??_C@_02LIELOMNJ@on?$AA@   0000000180072b80     addon.obj
 0002:00013b84       ??_C@_06BNLKBOND@unpipe?$AA@ 0000000180072b84     addon.obj
 0002:00013b8c       ??_C@_06PLELHCEK@resume?$AA@ 0000000180072b8c     addon.obj
 0002:00013b94       ??_C@_06HBELJPBO@socket?$AA@ 0000000180072b94     addon.obj
 0002:00013ba0       ??_C@_07LANIGEJC@headers?$AA@ 0000000180072ba0     addon.obj
 0002:00013ba8       ??_C@_05LBOHBHFK@close?$AA@ 0000000180072ba8     addon.obj
 0002:00013bb0       ??_C@_0BB@FGAHOLDL@Warning?3?5res?4on?$CI?$AA@ 0000000180072bb0     addon.obj
 0002:00013bc4       ??_C@_01CLKCMJKC@?5?$AA@   0000000180072bc4     addon.obj
 0002:00013bc8       ??_C@_09NGGEIBPB@HTTP?11?41?5?$AA@ 0000000180072bc8     addon.obj
 0002:00013bd4       ??_C@_02GIPFHKNO@OK?$AA@   0000000180072bd4     addon.obj
 0002:00013bd8       ??_C@_04FMMHFHOO@?$AN?6?$AN?6?$AA@ 0000000180072bd8     addon.obj
 0002:00013be0       ??_C@_0N@KNHNDABP@uws?4Response?$AA@ 0000000180072be0     addon.obj
 0002:00013bf0       ??_C@_09HFPACIHH@writeHead?$AA@ 0000000180072bf0     addon.obj
 0002:00013bfc       ??_C@_05NGFEDHGN@write?$AA@ 0000000180072bfc     addon.obj
 0002:00013c08       ??_C@_09FDDLHLHC@setHeader?$AA@ 0000000180072c08     addon.obj
 0002:00013c18       ??_C@_09HNHOFKOA@getHeader?$AA@ 0000000180072c18     addon.obj
 0002:00013c28       ??_C@_0BE@HIJDFBII@Warning?3?5server?4on?$CI?$AA@ 0000000180072c28     addon.obj
 0002:00013c40       ??_C@_08BHGFJLPJ@listen?3?5?$AA@ 0000000180072c40     addon.obj
 0002:00013c50       ??_C@_07ENHGAJCI@request?$AA@ 0000000180072c50     addon.obj
 0002:00013c58       ??_C@_08HKMEAON@response?$AA@ 0000000180072c58     addon.obj
 0002:00013c68       ??_C@_0N@HFHGEKCH@createServer?$AA@ 0000000180072c68     addon.obj
 0002:00013c78       ??_C@_0O@BNLPPNCC@getExpressApp?$AA@ 0000000180072c78     addon.obj
 0002:00013c88       ??_C@_0BF@ECEEDFLC@getResponsePrototype?$AA@ 0000000180072c88     addon.obj
 0002:00013ca0       ??_C@_0BE@HCBGFFKP@getRequestPrototype?$AA@ 0000000180072ca0     addon.obj
 0002:00013cb4       ??_C@_06OODDLKLE@listen?$AA@ 0000000180072cb4     addon.obj
 0002:00013cbc       ??_C@_06HJHJCKIO@server?$AA@ 0000000180072cbc     addon.obj
 0002:00013cc4       ??_C@_06DGDLPBAN@client?$AA@ 0000000180072cc4     addon.obj
 0002:00013cd0       ??_C@_0L@FEIFCMFG@httpServer?$AA@ 0000000180072cd0     addon.obj
 0002:00013ce0       ??_C@_0M@INFGNMEL@setUserData?$AA@ 0000000180072ce0     addon.obj
 0002:00013cf0       ??_C@_0M@ICEIAKMI@getUserData?$AA@ 0000000180072cf0     addon.obj
 0002:00013d00       ??_C@_0O@BNCPOBGN@clearUserData?$AA@ 0000000180072d00     addon.obj
 0002:00013d10       ??_C@_0L@KDPCDPCO@getAddress?$AA@ 0000000180072d10     addon.obj
 0002:00013d20       ??_C@_08LGNJOGGB@transfer?$AA@ 0000000180072d20     addon.obj
 0002:00013d30       ??_C@_07BJANGOOG@setNoop?$AA@ 0000000180072d30     addon.obj
 0002:00013d38       ??_C@_0BB@MMCPDBML@?4?4?2src?2addon?4cpp?$AA@ 0000000180072d38     addon.obj
 0002:00013d4c       ??_C@_03NHPGCEKN@uws?$AA@  0000000180072d4c     addon.obj
 0002:00013d50       ??_C@_04MIIPNNEF@send?$AA@ 0000000180072d50     addon.obj
 0002:00013d58       ??_C@_09DACGJFPO@terminate?$AA@ 0000000180072d58     addon.obj
 0002:00013d68       ??_C@_0P@OJKPOCHM@prepareMessage?$AA@ 0000000180072d68     addon.obj
 0002:00013d78       ??_C@_0N@PJIIIDIB@sendPrepared?$AA@ 0000000180072d78     addon.obj
 0002:00013d88       ??_C@_0BA@KGPPAAJG@finalizeMessage?$AA@ 0000000180072d88     addon.obj
 0002:00013d98       ??_C@_0N@IDIKOLKI@onConnection?$AA@ 0000000180072d98     addon.obj
 0002:00013da8       ??_C@_09CGGCBBGN@onMessage?$AA@ 0000000180072da8     addon.obj
 0002:00013db8       ??_C@_0BA@JEHIJFKG@onDisconnection?$AA@ 0000000180072db8     addon.obj
 0002:00013dc8       ??_C@_07LKMHCDH@onError?$AA@ 0000000180072dc8     addon.obj
 0002:00013dd0       ??_C@_07EDHBMKOF@forEach?$AA@ 0000000180072dd0     addon.obj
 0002:00013dd8       ??_C@_07HBLPNKFH@getSize?$AA@ 0000000180072dd8     addon.obj
 0002:00013de0       ??_C@_0O@PCAIEFAM@startAutoPing?$AA@ 0000000180072de0     addon.obj
 0002:00013df0       ??_C@_06DLFLBOKP@onPing?$AA@ 0000000180072df0     addon.obj
 0002:00013df8       ??_C@_06BODAEBHD@onPong?$AA@ 0000000180072df8     addon.obj
 0002:00013e00       ??_C@_06HBNONAG@create?$AA@ 0000000180072e00     addon.obj
 0002:00013e08       ??_C@_09OALBOHJN@broadcast?$AA@ 0000000180072e08     addon.obj
 0002:00013e14       ??_C@_05MGJOOGAJ@group?$AA@ 0000000180072e14     addon.obj
 0002:00013e1c       ??_C@_02BBAHNLBA@?$CFp?$AA@ 0000000180072e1c     addon.obj
 0002:00013e20       ??_C@_02MDKMJEGG@eE?$AA@   0000000180072e20     addon.obj
 0002:00013e24       ??_C@_02OOPEBDOJ@pP?$AA@   0000000180072e24     addon.obj
 0002:00013fa8       ??_7exception@stdext@@6B@  0000000180072fa8     addon.obj
 0002:000140e0       ??_C@_08HCOMDCCD@iojs?4exe?$AA@ 00000001800730e0     win_delay_load_hook.obj
 0002:000140f0       ??_C@_08JDDNMFDB@node?4exe?$AA@ 00000001800730f0     win_delay_load_hook.obj
 0002:00014100       __pfnDliNotifyHook2        0000000180073100     win_delay_load_hook.obj
 0002:00014108       __real@4202a05f20000000    0000000180073108     addon.obj
 0002:00014110       __xmm@000000000000000f0000000000000000 0000000180073110     HTTPSocket.obj
 0002:00014120       __xmm@7fffffffffffffff7fffffffffffffff 0000000180073120     addon.obj
 0002:00014188       _tls_used                  0000000180073188     LIBCMT:tlssup.obj
 0002:000141b0       ??_R4exception@std@@6B@    00000001800731b0     libcpmt:xthrow.obj
 0002:000141d8       ??_R3exception@std@@8      00000001800731d8     libcpmt:xthrow.obj
 0002:000141f0       ??_R2exception@std@@8      00000001800731f0     libcpmt:xthrow.obj
 0002:00014200       ??_R1A@?0A@EA@exception@std@@8 0000000180073200     libcpmt:xthrow.obj
 0002:00014228       ??_R4bad_alloc@std@@6B@    0000000180073228     libcpmt:xthrow.obj
 0002:00014250       ??_R3bad_alloc@std@@8      0000000180073250     libcpmt:xthrow.obj
 0002:00014268       ??_R2bad_alloc@std@@8      0000000180073268     libcpmt:xthrow.obj
 0002:00014280       ??_R1A@?0A@EA@bad_alloc@std@@8 0000000180073280     libcpmt:xthrow.obj
 0002:000142a8       ??_R4logic_error@std@@6B@  00000001800732a8     libcpmt:xthrow.obj
 0002:000142d0       ??_R3logic_error@std@@8    00000001800732d0     libcpmt:xthrow.obj
 0002:000142e8       ??_R2logic_error@std@@8    00000001800732e8     libcpmt:xthrow.obj
 0002:00014300       ??_R1A@?0A@EA@logic_error@std@@8 0000000180073300     libcpmt:xthrow.obj
 0002:00014328       ??_R4invalid_argument@std@@6B@ 0000000180073328     libcpmt:xthrow.obj
 0002:00014350       ??_R3invalid_argument@std@@8 0000000180073350     libcpmt:xthrow.obj
 0002:00014368       ??_R2invalid_argument@std@@8 0000000180073368     libcpmt:xthrow.obj
 0002:00014388       ??_R1A@?0A@EA@invalid_argument@std@@8 0000000180073388     libcpmt:xthrow.obj
 0002:000143b0       ??_R4length_error@std@@6B@ 00000001800733b0     libcpmt:xthrow.obj
 0002:000143d8       ??_R3length_error@std@@8   00000001800733d8     libcpmt:xthrow.obj
 0002:000143f0       ??_R2length_error@std@@8   00000001800733f0     libcpmt:xthrow.obj
 0002:00014410       ??_R1A@?0A@EA@length_error@std@@8 0000000180073410     libcpmt:xthrow.obj
 0002:00014438       ??_R4out_of_range@std@@6B@ 0000000180073438     libcpmt:xthrow.obj
 0002:00014460       ??_R3out_of_range@std@@8   0000000180073460     libcpmt:xthrow.obj
 0002:00014478       ??_R2out_of_range@std@@8   0000000180073478     libcpmt:xthrow.obj
 0002:00014498       ??_R1A@?0A@EA@out_of_range@std@@8 0000000180073498     libcpmt:xthrow.obj
 0002:000144c0       ??_R4runtime_error@std@@6B@ 00000001800734c0     libcpmt:xthrow.obj
 0002:000144e8       ??_R3runtime_error@std@@8  00000001800734e8     libcpmt:xthrow.obj
 0002:00014500       ??_R2runtime_error@std@@8  0000000180073500     libcpmt:xthrow.obj
 0002:00014518       ??_R1A@?0A@EA@runtime_error@std@@8 0000000180073518     libcpmt:xthrow.obj
 0002:00014540       ??_R4bad_function_call@std@@6B@ 0000000180073540     libcpmt:xthrow.obj
 0002:00014568       ??_R3bad_function_call@std@@8 0000000180073568     libcpmt:xthrow.obj
 0002:00014580       ??_R2bad_function_call@std@@8 0000000180073580     libcpmt:xthrow.obj
 0002:00014598       ??_R1A@?0A@EA@bad_function_call@std@@8 0000000180073598     libcpmt:xthrow.obj
 0002:000145c0       ??_R3error_category@std@@8 00000001800735c0     libcpmt:thread0.obj
 0002:000145d8       ??_R2error_category@std@@8 00000001800735d8     libcpmt:thread0.obj
 0002:000145e8       ??_R1A@?0A@EA@error_category@std@@8 00000001800735e8     libcpmt:thread0.obj
 0002:00014610       ??_R4_System_error@std@@6B@ 0000000180073610     libcpmt:thread0.obj
 0002:00014638       ??_R3_System_error@std@@8  0000000180073638     libcpmt:thread0.obj
 0002:00014650       ??_R2_System_error@std@@8  0000000180073650     libcpmt:thread0.obj
 0002:00014670       ??_R1A@?0A@EA@_System_error@std@@8 0000000180073670     libcpmt:thread0.obj
 0002:00014698       ??_R4system_error@std@@6B@ 0000000180073698     libcpmt:thread0.obj
 0002:000146c0       ??_R3system_error@std@@8   00000001800736c0     libcpmt:thread0.obj
 0002:000146d8       ??_R2system_error@std@@8   00000001800736d8     libcpmt:thread0.obj
 0002:00014700       ??_R1A@?0A@EA@system_error@std@@8 0000000180073700     libcpmt:thread0.obj
 0002:00014728       ??_R4_Generic_error_category@std@@6B@ 0000000180073728     libcpmt:thread0.obj
 0002:00014750       ??_R3_Generic_error_category@std@@8 0000000180073750     libcpmt:thread0.obj
 0002:00014768       ??_R2_Generic_error_category@std@@8 0000000180073768     libcpmt:thread0.obj
 0002:00014780       ??_R1A@?0A@EA@_Generic_error_category@std@@8 0000000180073780     libcpmt:thread0.obj
 0002:000147a8       ??_R3stl_critical_section_interface@details@Concurrency@@8 00000001800737a8     libcpmt:mutex.obj
 0002:000147c0       ??_R2stl_critical_section_interface@details@Concurrency@@8 00000001800737c0     libcpmt:mutex.obj
 0002:000147d0       ??_R1A@?0A@EA@stl_critical_section_interface@details@Concurrency@@8 00000001800737d0     libcpmt:mutex.obj
 0002:000147f8       ??_R4stl_critical_section_vista@details@Concurrency@@6B@ 00000001800737f8     libcpmt:mutex.obj
 0002:00014820       ??_R3stl_critical_section_vista@details@Concurrency@@8 0000000180073820     libcpmt:mutex.obj
 0002:00014838       ??_R2stl_critical_section_vista@details@Concurrency@@8 0000000180073838     libcpmt:mutex.obj
 0002:00014850       ??_R1A@?0A@EA@stl_critical_section_vista@details@Concurrency@@8 0000000180073850     libcpmt:mutex.obj
 0002:00014878       ??_R4stl_critical_section_win7@details@Concurrency@@6B@ 0000000180073878     libcpmt:mutex.obj
 0002:000148a0       ??_R3stl_critical_section_win7@details@Concurrency@@8 00000001800738a0     libcpmt:mutex.obj
 0002:000148b8       ??_R2stl_critical_section_win7@details@Concurrency@@8 00000001800738b8     libcpmt:mutex.obj
 0002:000148d0       ??_R1A@?0A@EA@stl_critical_section_win7@details@Concurrency@@8 00000001800738d0     libcpmt:mutex.obj
 0002:000148f8       ??_R4stl_critical_section_concrt@details@Concurrency@@6B@ 00000001800738f8     libcpmt:mutex.obj
 0002:00014920       ??_R3stl_critical_section_concrt@details@Concurrency@@8 0000000180073920     libcpmt:mutex.obj
 0002:00014938       ??_R2stl_critical_section_concrt@details@Concurrency@@8 0000000180073938     libcpmt:mutex.obj
 0002:00014950       ??_R1A@?0A@EA@stl_critical_section_concrt@details@Concurrency@@8 0000000180073950     libcpmt:mutex.obj
 0002:00014978       ??_R4ios_base@std@@6B@     0000000180073978     libcpmt:cout.obj
 0002:000149a0       ??_R3ios_base@std@@8       00000001800739a0     libcpmt:cout.obj
 0002:000149b8       ??_R2ios_base@std@@8       00000001800739b8     libcpmt:cout.obj
 0002:000149d0       ??_R1A@?0A@EA@ios_base@std@@8 00000001800739d0     libcpmt:cout.obj
 0002:000149f8       ??_R17?0A@EA@?$_Iosb@H@std@@8 00000001800739f8     libcpmt:cout.obj
 0002:00014a20       ??_R3?$_Iosb@H@std@@8      0000000180073a20     libcpmt:cout.obj
 0002:00014a38       ??_R2?$_Iosb@H@std@@8      0000000180073a38     libcpmt:cout.obj
 0002:00014a48       ??_R1A@?0A@EA@?$_Iosb@H@std@@8 0000000180073a48     libcpmt:cout.obj
 0002:00014a70       ??_R4?$basic_ios@DU?$char_traits@D@std@@@std@@6B@ 0000000180073a70     libcpmt:cout.obj
 0002:00014a98       ??_R3?$basic_ios@DU?$char_traits@D@std@@@std@@8 0000000180073a98     libcpmt:cout.obj
 0002:00014ab0       ??_R2?$basic_ios@DU?$char_traits@D@std@@@std@@8 0000000180073ab0     libcpmt:cout.obj
 0002:00014ad0       ??_R1A@?0A@EA@?$basic_ios@DU?$char_traits@D@std@@@std@@8 0000000180073ad0     libcpmt:cout.obj
 0002:00014af8       ??_R4?$basic_streambuf@DU?$char_traits@D@std@@@std@@6B@ 0000000180073af8     libcpmt:cout.obj
 0002:00014b20       ??_R3?$basic_streambuf@DU?$char_traits@D@std@@@std@@8 0000000180073b20     libcpmt:cout.obj
 0002:00014b38       ??_R2?$basic_streambuf@DU?$char_traits@D@std@@@std@@8 0000000180073b38     libcpmt:cout.obj
 0002:00014b48       ??_R1A@?0A@EA@?$basic_streambuf@DU?$char_traits@D@std@@@std@@8 0000000180073b48     libcpmt:cout.obj
 0002:00014b70       ??_R1A@A@3FA@?$basic_ios@DU?$char_traits@D@std@@@std@@8 0000000180073b70     libcpmt:cout.obj
 0002:00014b98       ??_R1A@A@3EA@ios_base@std@@8 0000000180073b98     libcpmt:cout.obj
 0002:00014bc0       ??_R17A@3EA@?$_Iosb@H@std@@8 0000000180073bc0     libcpmt:cout.obj
 0002:00014be8       ??_R4?$basic_ostream@DU?$char_traits@D@std@@@std@@6B@ 0000000180073be8     libcpmt:cout.obj
 0002:00014c10       ??_R3?$basic_ostream@DU?$char_traits@D@std@@@std@@8 0000000180073c10     libcpmt:cout.obj
 0002:00014c28       ??_R2?$basic_ostream@DU?$char_traits@D@std@@@std@@8 0000000180073c28     libcpmt:cout.obj
 0002:00014c50       ??_R1A@?0A@EA@?$basic_ostream@DU?$char_traits@D@std@@@std@@8 0000000180073c50     libcpmt:cout.obj
 0002:00014c78       ??_R4?$basic_filebuf@DU?$char_traits@D@std@@@std@@6B@ 0000000180073c78     libcpmt:cout.obj
 0002:00014ca0       ??_R3?$basic_filebuf@DU?$char_traits@D@std@@@std@@8 0000000180073ca0     libcpmt:cout.obj
 0002:00014cb8       ??_R2?$basic_filebuf@DU?$char_traits@D@std@@@std@@8 0000000180073cb8     libcpmt:cout.obj
 0002:00014cd0       ??_R1A@?0A@EA@?$basic_filebuf@DU?$char_traits@D@std@@@std@@8 0000000180073cd0     libcpmt:cout.obj
 0002:00014cf8       ??_R4bad_cast@std@@6B@     0000000180073cf8     libcpmt:cout.obj
 0002:00014d20       ??_R3bad_cast@std@@8       0000000180073d20     libcpmt:cout.obj
 0002:00014d38       ??_R2bad_cast@std@@8       0000000180073d38     libcpmt:cout.obj
 0002:00014d50       ??_R1A@?0A@EA@bad_cast@std@@8 0000000180073d50     libcpmt:cout.obj
 0002:00014d78       ??_R4_Facet_base@std@@6B@  0000000180073d78     libcpmt:cout.obj
 0002:00014da0       ??_R3_Facet_base@std@@8    0000000180073da0     libcpmt:cout.obj
 0002:00014db8       ??_R2_Facet_base@std@@8    0000000180073db8     libcpmt:cout.obj
 0002:00014dc8       ??_R1A@?0A@EA@_Facet_base@std@@8 0000000180073dc8     libcpmt:cout.obj
 0002:00014df0       ??_R1A@?0A@EA@facet@locale@std@@8 0000000180073df0     libcpmt:cout.obj
 0002:00014e18       ??_R3facet@locale@std@@8   0000000180073e18     libcpmt:cout.obj
 0002:00014e30       ??_R2facet@locale@std@@8   0000000180073e30     libcpmt:cout.obj
 0002:00014e50       ??_R17?0A@EA@_Crt_new_delete@std@@8 0000000180073e50     libcpmt:cout.obj
 0002:00014e78       ??_R3_Crt_new_delete@std@@8 0000000180073e78     libcpmt:cout.obj
 0002:00014e90       ??_R2_Crt_new_delete@std@@8 0000000180073e90     libcpmt:cout.obj
 0002:00014ea0       ??_R1A@?0A@EA@_Crt_new_delete@std@@8 0000000180073ea0     libcpmt:cout.obj
 0002:00014ec8       ??_R3codecvt_base@std@@8   0000000180073ec8     libcpmt:cout.obj
 0002:00014ee0       ??_R2codecvt_base@std@@8   0000000180073ee0     libcpmt:cout.obj
 0002:00014f08       ??_R1A@?0A@EA@codecvt_base@std@@8 0000000180073f08     libcpmt:cout.obj
 0002:00014f30       ??_R3ctype_base@std@@8     0000000180073f30     libcpmt:cout.obj
 0002:00014f48       ??_R2ctype_base@std@@8     0000000180073f48     libcpmt:cout.obj
 0002:00014f70       ??_R1A@?0A@EA@ctype_base@std@@8 0000000180073f70     libcpmt:cout.obj
 0002:00014f98       ??_R4?$ctype@D@std@@6B@    0000000180073f98     libcpmt:cout.obj
 0002:00014fc0       ??_R3?$ctype@D@std@@8      0000000180073fc0     libcpmt:cout.obj
 0002:00014fd8       ??_R2?$ctype@D@std@@8      0000000180073fd8     libcpmt:cout.obj
 0002:00015008       ??_R1A@?0A@EA@?$ctype@D@std@@8 0000000180074008     libcpmt:cout.obj
 0002:00015030       ??_R4_Iostream_error_category@std@@6B@ 0000000180074030     libcpmt:cout.obj
 0002:00015058       ??_R3_Iostream_error_category@std@@8 0000000180074058     libcpmt:cout.obj
 0002:00015070       ??_R2_Iostream_error_category@std@@8 0000000180074070     libcpmt:cout.obj
 0002:00015090       ??_R1A@?0A@EA@_Iostream_error_category@std@@8 0000000180074090     libcpmt:cout.obj
 0002:000150b8       ??_R4failure@ios_base@std@@6B@ 00000001800740b8     libcpmt:cout.obj
 0002:000150e0       ??_R3failure@ios_base@std@@8 00000001800740e0     libcpmt:cout.obj
 0002:000150f8       ??_R2failure@ios_base@std@@8 00000001800740f8     libcpmt:cout.obj
 0002:00015128       ??_R1A@?0A@EA@failure@ios_base@std@@8 0000000180074128     libcpmt:cout.obj
 0002:00015150       ??_R4?$codecvt@DDU_Mbstatet@@@std@@6B@ 0000000180074150     libcpmt:cout.obj
 0002:00015178       ??_R3?$codecvt@DDU_Mbstatet@@@std@@8 0000000180074178     libcpmt:cout.obj
 0002:00015190       ??_R2?$codecvt@DDU_Mbstatet@@@std@@8 0000000180074190     libcpmt:cout.obj
 0002:000151c0       ??_R1A@?0A@EA@?$codecvt@DDU_Mbstatet@@@std@@8 00000001800741c0     libcpmt:cout.obj
 0002:000151e8       ??_R4_Locimp@locale@std@@6B@ 00000001800741e8     libcpmt:locale0.obj
 0002:00015210       ??_R3_Locimp@locale@std@@8 0000000180074210     libcpmt:locale0.obj
 0002:00015228       ??_R2_Locimp@locale@std@@8 0000000180074228     libcpmt:locale0.obj
 0002:00015250       ??_R1A@?0A@EA@_Locimp@locale@std@@8 0000000180074250     libcpmt:locale0.obj
 0002:00015278       ??_R4?$num_put@DV?$ostreambuf_iterator@DU?$char_traits@D@std@@@std@@@std@@6B@ 0000000180074278     libcpmt:locale.obj
 0002:000152a0       ??_R3?$num_put@DV?$ostreambuf_iterator@DU?$char_traits@D@std@@@std@@@std@@8 00000001800742a0     libcpmt:locale.obj
 0002:000152b8       ??_R2?$num_put@DV?$ostreambuf_iterator@DU?$char_traits@D@std@@@std@@@std@@8 00000001800742b8     libcpmt:locale.obj
 0002:000152e0       ??_R1A@?0A@EA@?$num_put@DV?$ostreambuf_iterator@DU?$char_traits@D@std@@@std@@@std@@8 00000001800742e0     libcpmt:locale.obj
 0002:00015308       ??_R4?$numpunct@D@std@@6B@ 0000000180074308     libcpmt:locale.obj
 0002:00015330       ??_R3?$numpunct@D@std@@8   0000000180074330     libcpmt:locale.obj
 0002:00015348       ??_R2?$numpunct@D@std@@8   0000000180074348     libcpmt:locale.obj
 0002:00015370       ??_R1A@?0A@EA@?$numpunct@D@std@@8 0000000180074370     libcpmt:locale.obj
 0002:00015398       ??_R4type_info@@6B@        0000000180074398     LIBCMT:std_type_info_static.obj
 0002:000153c0       ??_R3type_info@@8          00000001800743c0     LIBCMT:std_type_info_static.obj
 0002:000153d8       ??_R2type_info@@8          00000001800743d8     LIBCMT:std_type_info_static.obj
 0002:000153e8       ??_R1A@?0A@EA@type_info@@8 00000001800743e8     LIBCMT:std_type_info_static.obj
 0002:00015410       ??_R4bad_array_new_length@std@@6B@ 0000000180074410     LIBCMT:throw_bad_alloc.obj
 0002:00015438       ??_R3bad_array_new_length@std@@8 0000000180074438     LIBCMT:throw_bad_alloc.obj
 0002:00015450       ??_R2bad_array_new_length@std@@8 0000000180074450     LIBCMT:throw_bad_alloc.obj
 0002:00015470       ??_R1A@?0A@EA@bad_array_new_length@std@@8 0000000180074470     LIBCMT:throw_bad_alloc.obj
 0002:00015498       ??_R4improper_lock@Concurrency@@6B@ 0000000180074498     libconcrt:rtlocks.obj
 0002:000154c0       ??_R3improper_lock@Concurrency@@8 00000001800744c0     libconcrt:rtlocks.obj
 0002:000154d8       ??_R2improper_lock@Concurrency@@8 00000001800744d8     libconcrt:rtlocks.obj
 0002:000154f0       ??_R1A@?0A@EA@improper_lock@Concurrency@@8 00000001800744f0     libconcrt:rtlocks.obj
 0002:00015518       ??_R4scheduler_resource_allocation_error@Concurrency@@6B@ 0000000180074518     libconcrt:Platform.obj
 0002:00015540       ??_R3scheduler_resource_allocation_error@Concurrency@@8 0000000180074540     libconcrt:Platform.obj
 0002:00015558       ??_R2scheduler_resource_allocation_error@Concurrency@@8 0000000180074558     libconcrt:Platform.obj
 0002:00015570       ??_R1A@?0A@EA@scheduler_resource_allocation_error@Concurrency@@8 0000000180074570     libconcrt:Platform.obj
 0002:00015598       ??_R4scheduler_worker_creation_error@Concurrency@@6B@ 0000000180074598     libconcrt:Exceptions.obj
 0002:000155c0       ??_R3scheduler_worker_creation_error@Concurrency@@8 00000001800745c0     libconcrt:Exceptions.obj
 0002:000155d8       ??_R2scheduler_worker_creation_error@Concurrency@@8 00000001800745d8     libconcrt:Exceptions.obj
 0002:000155f8       ??_R1A@?0A@EA@scheduler_worker_creation_error@Concurrency@@8 00000001800745f8     libconcrt:Exceptions.obj
 0002:00015620       ??_R4unsupported_os@Concurrency@@6B@ 0000000180074620     libconcrt:Exceptions.obj
 0002:00015648       ??_R3unsupported_os@Concurrency@@8 0000000180074648     libconcrt:Exceptions.obj
 0002:00015660       ??_R2unsupported_os@Concurrency@@8 0000000180074660     libconcrt:Exceptions.obj
 0002:00015678       ??_R1A@?0A@EA@unsupported_os@Concurrency@@8 0000000180074678     libconcrt:Exceptions.obj
 0002:000156a0       ??_R4improper_scheduler_attach@Concurrency@@6B@ 00000001800746a0     libconcrt:Exceptions.obj
 0002:000156c8       ??_R3improper_scheduler_attach@Concurrency@@8 00000001800746c8     libconcrt:Exceptions.obj
 0002:000156e0       ??_R2improper_scheduler_attach@Concurrency@@8 00000001800746e0     libconcrt:Exceptions.obj
 0002:000156f8       ??_R1A@?0A@EA@improper_scheduler_attach@Concurrency@@8 00000001800746f8     libconcrt:Exceptions.obj
 0002:00015720       ??_R4improper_scheduler_reference@Concurrency@@6B@ 0000000180074720     libconcrt:Exceptions.obj
 0002:00015748       ??_R3improper_scheduler_reference@Concurrency@@8 0000000180074748     libconcrt:Exceptions.obj
 0002:00015760       ??_R2improper_scheduler_reference@Concurrency@@8 0000000180074760     libconcrt:Exceptions.obj
 0002:00015778       ??_R1A@?0A@EA@improper_scheduler_reference@Concurrency@@8 0000000180074778     libconcrt:Exceptions.obj
 0002:000157a0       ??_R4context_unblock_unbalanced@Concurrency@@6B@ 00000001800747a0     libconcrt:Exceptions.obj
 0002:000157c8       ??_R3context_unblock_unbalanced@Concurrency@@8 00000001800747c8     libconcrt:Exceptions.obj
 0002:000157e0       ??_R2context_unblock_unbalanced@Concurrency@@8 00000001800747e0     libconcrt:Exceptions.obj
 0002:000157f8       ??_R1A@?0A@EA@context_unblock_unbalanced@Concurrency@@8 00000001800747f8     libconcrt:Exceptions.obj
 0002:00015820       ??_R4context_self_unblock@Concurrency@@6B@ 0000000180074820     libconcrt:Exceptions.obj
 0002:00015848       ??_R3context_self_unblock@Concurrency@@8 0000000180074848     libconcrt:Exceptions.obj
 0002:00015860       ??_R2context_self_unblock@Concurrency@@8 0000000180074860     libconcrt:Exceptions.obj
 0002:00015878       ??_R1A@?0A@EA@context_self_unblock@Concurrency@@8 0000000180074878     libconcrt:Exceptions.obj
 0002:000158a0       ??_R4missing_wait@Concurrency@@6B@ 00000001800748a0     libconcrt:Exceptions.obj
 0002:000158c8       ??_R3missing_wait@Concurrency@@8 00000001800748c8     libconcrt:Exceptions.obj
 0002:000158e0       ??_R2missing_wait@Concurrency@@8 00000001800748e0     libconcrt:Exceptions.obj
 0002:000158f8       ??_R1A@?0A@EA@missing_wait@Concurrency@@8 00000001800748f8     libconcrt:Exceptions.obj
 0002:00015920       ??_R4invalid_scheduler_policy_key@Concurrency@@6B@ 0000000180074920     libconcrt:Exceptions.obj
 0002:00015948       ??_R3invalid_scheduler_policy_key@Concurrency@@8 0000000180074948     libconcrt:Exceptions.obj
 0002:00015960       ??_R2invalid_scheduler_policy_key@Concurrency@@8 0000000180074960     libconcrt:Exceptions.obj
 0002:00015978       ??_R1A@?0A@EA@invalid_scheduler_policy_key@Concurrency@@8 0000000180074978     libconcrt:Exceptions.obj
 0002:000159a0       ??_R4invalid_scheduler_policy_value@Concurrency@@6B@ 00000001800749a0     libconcrt:Exceptions.obj
 0002:000159c8       ??_R3invalid_scheduler_policy_value@Concurrency@@8 00000001800749c8     libconcrt:Exceptions.obj
 0002:000159e0       ??_R2invalid_scheduler_policy_value@Concurrency@@8 00000001800749e0     libconcrt:Exceptions.obj
 0002:000159f8       ??_R1A@?0A@EA@invalid_scheduler_policy_value@Concurrency@@8 00000001800749f8     libconcrt:Exceptions.obj
 0002:00015a20       ??_R4invalid_scheduler_policy_thread_specification@Concurrency@@6B@ 0000000180074a20     libconcrt:Exceptions.obj
 0002:00015a48       ??_R3invalid_scheduler_policy_thread_specification@Concurrency@@8 0000000180074a48     libconcrt:Exceptions.obj
 0002:00015a60       ??_R2invalid_scheduler_policy_thread_specification@Concurrency@@8 0000000180074a60     libconcrt:Exceptions.obj
 0002:00015a78       ??_R1A@?0A@EA@invalid_scheduler_policy_thread_specification@Concurrency@@8 0000000180074a78     libconcrt:Exceptions.obj
 0002:00015aa0       ??_R4nested_scheduler_missing_detach@Concurrency@@6B@ 0000000180074aa0     libconcrt:Exceptions.obj
 0002:00015ac8       ??_R3nested_scheduler_missing_detach@Concurrency@@8 0000000180074ac8     libconcrt:Exceptions.obj
 0002:00015ae0       ??_R2nested_scheduler_missing_detach@Concurrency@@8 0000000180074ae0     libconcrt:Exceptions.obj
 0002:00015af8       ??_R1A@?0A@EA@nested_scheduler_missing_detach@Concurrency@@8 0000000180074af8     libconcrt:Exceptions.obj
 0002:00015b20       ??_R4invalid_oversubscribe_operation@Concurrency@@6B@ 0000000180074b20     libconcrt:Exceptions.obj
 0002:00015b48       ??_R3invalid_oversubscribe_operation@Concurrency@@8 0000000180074b48     libconcrt:Exceptions.obj
 0002:00015b60       ??_R2invalid_oversubscribe_operation@Concurrency@@8 0000000180074b60     libconcrt:Exceptions.obj
 0002:00015b78       ??_R1A@?0A@EA@invalid_oversubscribe_operation@Concurrency@@8 0000000180074b78     libconcrt:Exceptions.obj
 0002:00015ba0       ??_R4ResourceManager@details@Concurrency@@6B@ 0000000180074ba0     libconcrt:ResourceManager.obj
 0002:00015bc8       ??_R3ResourceManager@details@Concurrency@@8 0000000180074bc8     libconcrt:ResourceManager.obj
 0002:00015be0       ??_R2ResourceManager@details@Concurrency@@8 0000000180074be0     libconcrt:ResourceManager.obj
 0002:00015bf8       ??_R1A@?0A@EA@ResourceManager@details@Concurrency@@8 0000000180074bf8     libconcrt:ResourceManager.obj
 0002:00015c20       ??_R1A@?0A@EA@IResourceManager@Concurrency@@8 0000000180074c20     libconcrt:ResourceManager.obj
 0002:00015c48       ??_R3IResourceManager@Concurrency@@8 0000000180074c48     libconcrt:ResourceManager.obj
 0002:00015c60       ??_R2IResourceManager@Concurrency@@8 0000000180074c60     libconcrt:ResourceManager.obj
 0002:00015c70       ??_R4invalid_operation@Concurrency@@6B@ 0000000180074c70     libconcrt:ResourceManager.obj
 0002:00015c98       ??_R3invalid_operation@Concurrency@@8 0000000180074c98     libconcrt:ResourceManager.obj
 0002:00015cb0       ??_R2invalid_operation@Concurrency@@8 0000000180074cb0     libconcrt:ResourceManager.obj
 0002:00015cc8       ??_R1A@?0A@EA@invalid_operation@Concurrency@@8 0000000180074cc8     libconcrt:ResourceManager.obj
 0002:00015cf0       ??_R3ITopologyExecutionResource@Concurrency@@8 0000000180074cf0     libconcrt:ResourceManager.obj
 0002:00015d08       ??_R2ITopologyExecutionResource@Concurrency@@8 0000000180074d08     libconcrt:ResourceManager.obj
 0002:00015d18       ??_R1A@?0A@EA@ITopologyExecutionResource@Concurrency@@8 0000000180074d18     libconcrt:ResourceManager.obj
 0002:00015d40       ??_R3ITopologyNode@Concurrency@@8 0000000180074d40     libconcrt:ResourceManager.obj
 0002:00015d58       ??_R2ITopologyNode@Concurrency@@8 0000000180074d58     libconcrt:ResourceManager.obj
 0002:00015d68       ??_R1A@?0A@EA@ITopologyNode@Concurrency@@8 0000000180074d68     libconcrt:ResourceManager.obj
 0002:00015d90       ??_R4TopologyObject@GlobalCore@details@Concurrency@@6B@ 0000000180074d90     libconcrt:ResourceManager.obj
 0002:00015db8       ??_R3TopologyObject@GlobalCore@details@Concurrency@@8 0000000180074db8     libconcrt:ResourceManager.obj
 0002:00015dd0       ??_R2TopologyObject@GlobalCore@details@Concurrency@@8 0000000180074dd0     libconcrt:ResourceManager.obj
 0002:00015de8       ??_R1A@?0A@EA@TopologyObject@GlobalCore@details@Concurrency@@8 0000000180074de8     libconcrt:ResourceManager.obj
 0002:00015e10       ??_R4TopologyObject@GlobalNode@details@Concurrency@@6B@ 0000000180074e10     libconcrt:ResourceManager.obj
 0002:00015e38       ??_R3TopologyObject@GlobalNode@details@Concurrency@@8 0000000180074e38     libconcrt:ResourceManager.obj
 0002:00015e50       ??_R2TopologyObject@GlobalNode@details@Concurrency@@8 0000000180074e50     libconcrt:ResourceManager.obj
 0002:00015e68       ??_R1A@?0A@EA@TopologyObject@GlobalNode@details@Concurrency@@8 0000000180074e68     libconcrt:ResourceManager.obj
 0002:00015e90       ??_R3ScheduleGroupBase@details@Concurrency@@8 0000000180074e90     libconcrt:SchedulerBase.obj
 0002:00015ea8       ??_R2ScheduleGroupBase@details@Concurrency@@8 0000000180074ea8     libconcrt:SchedulerBase.obj
 0002:00015ec0       ??_R1A@?0A@EA@ScheduleGroupBase@details@Concurrency@@8 0000000180074ec0     libconcrt:SchedulerBase.obj
 0002:00015ee8       ??_R1A@?0A@EA@ScheduleGroup@Concurrency@@8 0000000180074ee8     libconcrt:SchedulerBase.obj
 0002:00015f10       ??_R3ScheduleGroup@Concurrency@@8 0000000180074f10     libconcrt:SchedulerBase.obj
 0002:00015f28       ??_R2ScheduleGroup@Concurrency@@8 0000000180074f28     libconcrt:SchedulerBase.obj
 0002:00015f38       ??_R4CacheLocalScheduleGroup@details@Concurrency@@6B@ 0000000180074f38     libconcrt:SchedulerBase.obj
 0002:00015f60       ??_R3CacheLocalScheduleGroup@details@Concurrency@@8 0000000180074f60     libconcrt:SchedulerBase.obj
 0002:00015f78       ??_R2CacheLocalScheduleGroup@details@Concurrency@@8 0000000180074f78     libconcrt:SchedulerBase.obj
 0002:00015f98       ??_R1A@?0A@EA@CacheLocalScheduleGroup@details@Concurrency@@8 0000000180074f98     libconcrt:SchedulerBase.obj
 0002:00015fc0       ??_R4FairScheduleGroup@details@Concurrency@@6B@ 0000000180074fc0     libconcrt:SchedulerBase.obj
 0002:00015fe8       ??_R3FairScheduleGroup@details@Concurrency@@8 0000000180074fe8     libconcrt:SchedulerBase.obj
 0002:00016000       ??_R2FairScheduleGroup@details@Concurrency@@8 0000000180075000     libconcrt:SchedulerBase.obj
 0002:00016020       ??_R1A@?0A@EA@FairScheduleGroup@details@Concurrency@@8 0000000180075020     libconcrt:SchedulerBase.obj
 0002:00016048       ??_R4SchedulerBase@details@Concurrency@@6B@ 0000000180075048     libconcrt:SchedulerBase.obj
 0002:00016070       ??_R3SchedulerBase@details@Concurrency@@8 0000000180075070     libconcrt:SchedulerBase.obj
 0002:00016088       ??_R2SchedulerBase@details@Concurrency@@8 0000000180075088     libconcrt:SchedulerBase.obj
 0002:000160a0       ??_R1A@?0A@EA@SchedulerBase@details@Concurrency@@8 00000001800750a0     libconcrt:SchedulerBase.obj
 0002:000160c8       ??_R1A@?0A@EA@Scheduler@Concurrency@@8 00000001800750c8     libconcrt:SchedulerBase.obj
 0002:000160f0       ??_R3Scheduler@Concurrency@@8 00000001800750f0     libconcrt:SchedulerBase.obj
 0002:00016108       ??_R2Scheduler@Concurrency@@8 0000000180075108     libconcrt:SchedulerBase.obj
 0002:00016118       ??_R1A@?0A@EA@_Chore@details@Concurrency@@8 0000000180075118     libconcrt:SchedulerBase.obj
 0002:00016140       ??_R3_Chore@details@Concurrency@@8 0000000180075140     libconcrt:SchedulerBase.obj
 0002:00016158       ??_R2_Chore@details@Concurrency@@8 0000000180075158     libconcrt:SchedulerBase.obj
 0002:00016168       ??_R4Scheduler@Concurrency@@6B@ 0000000180075168     libconcrt:SchedulerBase.obj
 0002:00016190       ??_R4ScheduleGroup@Concurrency@@6B@ 0000000180075190     libconcrt:SchedulerBase.obj
 0002:000161b8       ??_R4_Chore@details@Concurrency@@6B@ 00000001800751b8     libconcrt:SchedulerBase.obj
 0002:000161e0       ??_R4RealizedChore@details@Concurrency@@6B@ 00000001800751e0     libconcrt:SchedulerBase.obj
 0002:00016208       ??_R3RealizedChore@details@Concurrency@@8 0000000180075208     libconcrt:SchedulerBase.obj
 0002:00016220       ??_R2RealizedChore@details@Concurrency@@8 0000000180075220     libconcrt:SchedulerBase.obj
 0002:00016238       ??_R1A@?0A@EA@RealizedChore@details@Concurrency@@8 0000000180075238     libconcrt:SchedulerBase.obj
 0002:00016260       ??_R4CacheLocalScheduleGroupSegment@details@Concurrency@@6B@ 0000000180075260     libconcrt:SchedulerBase.obj
 0002:00016288       ??_R3CacheLocalScheduleGroupSegment@details@Concurrency@@8 0000000180075288     libconcrt:SchedulerBase.obj
 0002:000162a0       ??_R2CacheLocalScheduleGroupSegment@details@Concurrency@@8 00000001800752a0     libconcrt:SchedulerBase.obj
 0002:000162b8       ??_R1A@?0A@EA@CacheLocalScheduleGroupSegment@details@Concurrency@@8 00000001800752b8     libconcrt:SchedulerBase.obj
 0002:000162e0       ??_R1A@?0A@EA@ScheduleGroupSegmentBase@details@Concurrency@@8 00000001800752e0     libconcrt:SchedulerBase.obj
 0002:00016308       ??_R3ScheduleGroupSegmentBase@details@Concurrency@@8 0000000180075308     libconcrt:SchedulerBase.obj
 0002:00016320       ??_R2ScheduleGroupSegmentBase@details@Concurrency@@8 0000000180075320     libconcrt:SchedulerBase.obj
 0002:00016330       ??_R4FairScheduleGroupSegment@details@Concurrency@@6B@ 0000000180075330     libconcrt:SchedulerBase.obj
 0002:00016358       ??_R3FairScheduleGroupSegment@details@Concurrency@@8 0000000180075358     libconcrt:SchedulerBase.obj
 0002:00016370       ??_R2FairScheduleGroupSegment@details@Concurrency@@8 0000000180075370     libconcrt:SchedulerBase.obj
 0002:00016388       ??_R1A@?0A@EA@FairScheduleGroupSegment@details@Concurrency@@8 0000000180075388     libconcrt:SchedulerBase.obj
 0002:000163b0       ??_R4WaitBlock@details@Concurrency@@6B@ 00000001800753b0     libconcrt:event.obj
 0002:000163d8       ??_R3WaitBlock@details@Concurrency@@8 00000001800753d8     libconcrt:event.obj
 0002:000163f0       ??_R2WaitBlock@details@Concurrency@@8 00000001800753f0     libconcrt:event.obj
 0002:00016400       ??_R1A@?0A@EA@WaitBlock@details@Concurrency@@8 0000000180075400     libconcrt:event.obj
 0002:00016428       ??_R4SingleWaitBlock@details@Concurrency@@6B@ 0000000180075428     libconcrt:event.obj
 0002:00016450       ??_R3SingleWaitBlock@details@Concurrency@@8 0000000180075450     libconcrt:event.obj
 0002:00016468       ??_R2SingleWaitBlock@details@Concurrency@@8 0000000180075468     libconcrt:event.obj
 0002:00016480       ??_R1A@?0A@EA@SingleWaitBlock@details@Concurrency@@8 0000000180075480     libconcrt:event.obj
 0002:000164a8       ??_R4MultiWaitBlock@details@Concurrency@@6B@ 00000001800754a8     libconcrt:event.obj
 0002:000164d0       ??_R3MultiWaitBlock@details@Concurrency@@8 00000001800754d0     libconcrt:event.obj
 0002:000164e8       ??_R2MultiWaitBlock@details@Concurrency@@8 00000001800754e8     libconcrt:event.obj
 0002:00016500       ??_R1A@?0A@EA@MultiWaitBlock@details@Concurrency@@8 0000000180075500     libconcrt:event.obj
 0002:00016528       ??_R4WaitAllBlock@details@Concurrency@@6B@ 0000000180075528     libconcrt:event.obj
 0002:00016550       ??_R3WaitAllBlock@details@Concurrency@@8 0000000180075550     libconcrt:event.obj
 0002:00016568       ??_R2WaitAllBlock@details@Concurrency@@8 0000000180075568     libconcrt:event.obj
 0002:00016588       ??_R1A@?0A@EA@WaitAllBlock@details@Concurrency@@8 0000000180075588     libconcrt:event.obj
 0002:000165b0       ??_R4WaitAnyBlock@details@Concurrency@@6B@ 00000001800755b0     libconcrt:event.obj
 0002:000165d8       ??_R3WaitAnyBlock@details@Concurrency@@8 00000001800755d8     libconcrt:event.obj
 0002:000165f0       ??_R2WaitAnyBlock@details@Concurrency@@8 00000001800755f0     libconcrt:event.obj
 0002:00016610       ??_R1A@?0A@EA@WaitAnyBlock@details@Concurrency@@8 0000000180075610     libconcrt:event.obj
 0002:00016638       ??_R4TimedSingleWaitBlock@details@Concurrency@@6B@ 0000000180075638     libconcrt:event.obj
 0002:00016660       ??_R3TimedSingleWaitBlock@details@Concurrency@@8 0000000180075660     libconcrt:event.obj
 0002:00016678       ??_R2TimedSingleWaitBlock@details@Concurrency@@8 0000000180075678     libconcrt:event.obj
 0002:00016698       ??_R1A@?0A@EA@TimedSingleWaitBlock@details@Concurrency@@8 0000000180075698     libconcrt:event.obj
 0002:000166c0       ??_R4?$_MallocaArrayHolder@PEAVContext@Concurrency@@@details@Concurrency@@6B@ 00000001800756c0     libconcrt:event.obj
 0002:000166e8       ??_R3?$_MallocaArrayHolder@PEAVContext@Concurrency@@@details@Concurrency@@8 00000001800756e8     libconcrt:event.obj
 0002:00016700       ??_R2?$_MallocaArrayHolder@PEAVContext@Concurrency@@@details@Concurrency@@8 0000000180075700     libconcrt:event.obj
 0002:00016710       ??_R1A@?0A@EA@?$_MallocaArrayHolder@PEAVContext@Concurrency@@@details@Concurrency@@8 0000000180075710     libconcrt:event.obj
 0002:00016738       ??_R4ContextBase@details@Concurrency@@6B@ 0000000180075738     libconcrt:ContextBase.obj
 0002:00016760       ??_R3ContextBase@details@Concurrency@@8 0000000180075760     libconcrt:ContextBase.obj
 0002:00016778       ??_R2ContextBase@details@Concurrency@@8 0000000180075778     libconcrt:ContextBase.obj
 0002:00016790       ??_R1A@?0A@EA@ContextBase@details@Concurrency@@8 0000000180075790     libconcrt:ContextBase.obj
 0002:000167b8       ??_R1A@?0A@EA@Context@Concurrency@@8 00000001800757b8     libconcrt:ContextBase.obj
 0002:000167e0       ??_R3Context@Concurrency@@8 00000001800757e0     libconcrt:ContextBase.obj
 0002:000167f8       ??_R2Context@Concurrency@@8 00000001800757f8     libconcrt:ContextBase.obj
 0002:00016808       ??_R4Context@Concurrency@@6B@ 0000000180075808     libconcrt:ContextBase.obj
 0002:00016830       ??_R4_Interruption_exception@details@Concurrency@@6B@ 0000000180075830     libconcrt:TaskCollection.obj
 0002:00016858       ??_R3_Interruption_exception@details@Concurrency@@8 0000000180075858     libconcrt:TaskCollection.obj
 0002:00016870       ??_R2_Interruption_exception@details@Concurrency@@8 0000000180075870     libconcrt:TaskCollection.obj
 0002:00016888       ??_R1A@?0A@EA@_Interruption_exception@details@Concurrency@@8 0000000180075888     libconcrt:TaskCollection.obj
 0002:000168b0       ??_R1A@?0A@EA@_RefCounter@details@Concurrency@@8 00000001800758b0     libconcrt:TaskCollection.obj
 0002:000168d8       ??_R3_RefCounter@details@Concurrency@@8 00000001800758d8     libconcrt:TaskCollection.obj
 0002:000168f0       ??_R2_RefCounter@details@Concurrency@@8 00000001800758f0     libconcrt:TaskCollection.obj
 0002:00016900       ??_R4_CancellationTokenRegistration@details@Concurrency@@6B@ 0000000180075900     libconcrt:TaskCollection.obj
 0002:00016928       ??_R3_CancellationTokenRegistration@details@Concurrency@@8 0000000180075928     libconcrt:TaskCollection.obj
 0002:00016940       ??_R2_CancellationTokenRegistration@details@Concurrency@@8 0000000180075940     libconcrt:TaskCollection.obj
 0002:00016958       ??_R1A@?0A@EA@_CancellationTokenRegistration@details@Concurrency@@8 0000000180075958     libconcrt:TaskCollection.obj
 0002:00016980       ??_R4_RefCounter@details@Concurrency@@6B@ 0000000180075980     libconcrt:TaskCollection.obj
 0002:000169a8       ??_R4CancellationTokenRegistration_TaskProc@details@Concurrency@@6B@ 00000001800759a8     libconcrt:TaskCollection.obj
 0002:000169d0       ??_R3CancellationTokenRegistration_TaskProc@details@Concurrency@@8 00000001800759d0     libconcrt:TaskCollection.obj
